
Build/lib/pisplit_ecnr_inear_v2_swb_position_independent.splitload.lib:     file format elf32-xtensa-le


Disassembly of section .text:

00000000 <_init-0x844>:
       0:	00000894 00014ae0 00015d9c 00000000     .....J...]......
      10:	00015d68 00000000 00015d84 000190e0     h].......]......
      20:	00015e18 00004d28 00015e31 00004e64     .^..(M..1^..dN..
      30:	00015e48 00006328 00015e5f 0000604c     H^..(c.._^..L`..
      40:	00015e7a 0000d604 00015e8e 00005f14     z^.......^..._..
      50:	00015ea5 0000d238 00015eb9 00005f7c     .^..8....^..|_..
      60:	00015ed0 000060a8 00015eee 0000c970     .^...`...^..p...
      70:	00015f07 00014140 00015f17 00004d30     ._..@A..._..0M..
      80:	00015f31 00006118 00015f53 0000c7a8     1_...a..S_......
      90:	00015f70 00007b18 00015f8e 000062e4     p_...{..._...b..
      a0:	00015fae 00007b00 00015fce 00004d20     ._...{..._.. M..
      b0:	00015fe1 0000de0c 00015ff6 00005fe4     ._......._..._..
      c0:	0001600e 00007bf8 00016026 00007e28     .`...{..&`..(~..
      d0:	0001603e 00007c34 0001605f 00009ca0     >`..4|.._`......
      e0:	00016080 00006128 000160a1 000060f8     .`..(a...`...`..
      f0:	00015db0 0000fbc0 00000bfc 000190f0     .]..............
     100:	00018070 000180e0 00014b74 000190f8     p.......tK......
     110:	00014b88 00008e6e 000090b8 00009368     .K..n.......h...
     120:	00009208 000092b0 00008fb4 000090b4     ................
     130:	00009378 00008fb8 00009364 00009428     x.......d...(...
     140:	00009430 0000941c 0000943c 00009438     0.......<...8...
     150:	0000942e 0000942c 00009424 00018820     ....,...$... ...
     160:	00018270 dacccccd 0dfffffe 00b33333     p...........33..
     170:	fb4ccccd 00008e6a fcb33333 00008e6c     ..L.j...33..l...
     180:	00008e68 00008e66 00009434 00008e94     h...f...4.......
     190:	7fff0000 00014b04 33334ccd 00000e18     .....K...L33....
     1a0:	7fe70019 7e1401ec 0000a838 147ae100     .......~8.....z.
     1b0:	00001bf0 002ccccd 00466666 00533333     ......,.ffF.33S.
     1c0:	005851ec 005ae148 005ccccd 0000c148     .QX.H.Z...\.H...
     1d0:	7ffffffe 5a820000 c28f0000 cccd0000     .......Z........
     1e0:	e6660000 f3330000 0ccd0000 199a0000     ..f...3.........
     1f0:	33330000 3d710000 4ccccd00 2ccccccd     ..33..q=...L...,
     200:	6ccccccd 5999999a 73333333 70a3d70a     ...l...Y333s...p
     210:	7e147ae1 7fbe76c9 000014fc 3999999a     .z.~.v.........9
     220:	5d70a3d7 66666666 00014001 0ccccccd     ..p]ffff.@......
     230:	00008ea4 00001de4 00008e78 000190e8     ........x.......
     240:	00008e8c 00008e88 00014bd0 0aaaaaab     .........K......
     250:	00008e90 00008e84 00008e7c 00000c6c     ........|...l...
     260:	00008e98 00008e9c 00cccccd 0099999a     ................
     270:	435e50d8 0159999a 13ffffff f570a3d7     .P^C..Y.......p.
     280:	2428f5c4 00002f75 00300040 00200018     ..($u/..@.0... .
     290:	00c00100 00600040 000039c0 00003940     ....@.`..9..@9..
     2a0:	00003984 00003a54 00010818 00010824     .9..T:......$...
     2b0:	00010820 000cd080 000160d0 002aaa00      ........`....*.
     2c0:	00017fe0 00012dd4 00012d20 00003a68     .....-.. -..h:..
     2d0:	000043b4 000044dc 00003b48 00003d9c     .C...D..H;...=..
     2e0:	00003c90 00003f78 00003ea8 00004adc     .<..x?...>...J..
     2f0:	0150520c 00010860 00013f04 00004e8c     .RP.`....?...N..
     300:	00004db0 0001084c 00010848 00010804     .M..L...H.......
     310:	00003408 0000d6e0 0000d40c 000190f4     .4..............
     320:	0000a280 0000c86c 0000c14c 000051c8     ....l...L....Q..
     330:	000173b0 000052a0 0000533c 000172b0     .s...R..<S...r..
     340:	00017330 0000d640 00009aca 0000c090     0s..@...........
     350:	00005740 0000d278 0000de54 000101fd     @W..x...T.......
     360:	0000c168 0001083c 0000371c 000103a8     h...<....7......
     370:	0001039c 00010308 00010398 0001038c     ................
     380:	00010388 000103aa 00010390 000101f4     ................
     390:	000101f8 000101ec 0001415c 00006158     ........\A..Xa..
     3a0:	00006354 00008e54 0000c0d4 00005da4     Tc..T........]..
     3b0:	000101fc 7fbe0042 000101f0 000101f6     ....B...........
     3c0:	0000c0d6 00005194 00016190 00009cb8     .....Q...a......
     3d0:	000053ec 0000550c 00004048 00004554     .S...U..H@..TE..
     3e0:	00009dbc 0000585c 00005624 0000a960     ....\X..$V..`...
     3f0:	0000ada4 0000b1b0 0000afa4 0000b848     ............H...
     400:	00005d38 0000bb24 00004de0 0000bfe4     8]..$....M......
     410:	0000c224 0000b638 00004880 00004908     $...8....H...I..
     420:	000048c4 0000494c 0000f37c 0000d2c8     .H..LI..|.......
     430:	00005c38 00005b4c 0000547c 000101fa     8\..L[..|T......
     440:	00014190 000101fe 000161d0 00007e54     .A.......a..T~..
     450:	00010850 00007bc4 00010844 00010838     P....{..D...8...
     460:	000105e0 00010620 00010808 000105a0     .... ...........
     470:	00007c78 0001080c 00010828 00007dc8     x|......(....}..
     480:	00010698 00010830 00010794 00007d94     ....0........}..
     490:	000106b0 000107cc 0001082c 00010722     ........,..."...
     4a0:	00010834 00010660 000105fc 0001065c     4...`.......\...
     4b0:	0001059c 0001061c 000105dc 000105bc     ................
     4c0:	0001063c 0000f870 0000dccc 7f800080     <...p...........
     4d0:	78000800 00017fff 7c000400 0006ffff     ...x.......|....
     4e0:	0e390000 0d330000 00010460 0001081c     ..9...3.`.......
     4f0:	0000f6c4 0000dfd4 0ccccc00 00393e4b     ............K>9.
     500:	15555500 00175e97 0000a100 0000a8fc     .UU..^..........
     510:	0000a894 c0010000 3fff0000 0000baa6     ...........?....
     520:	0000c0e8 0000c6ec 0000c0d8 0000c0e4     ................
     530:	00016840 00016730 00016210 00016a50     @h..0g...b..Pj..
     540:	000167c0 00016390 00016c60 00016810     .g...c..`l...h..
     550:	00016550 007fff00 000182d0 0000caac     Pe..............
     560:	0000e170 00010104 000100f8 0000c928     p...........(...
     570:	0000e47e 0000c970 0000c170 0000e490     ~...p...p.......
     580:	0000e61c 0000e484 0000e48d 0000e48e     ................
     590:	0000e48a 0000edb8 0000e648 0000c94c     ........H...L...
     5a0:	0000e462 00010108 0000e3f0 0000e3f2     b...............
     5b0:	0000e3f8 0000e404 0000e412 0000e428     ............(...
     5c0:	0000e438 0000e454 0000e458 0000e43c     8...T...X...<...
     5d0:	0000e408 0000e42c 0000e370 000184f0     ....,...p.......
     5e0:	0000c0c4 0000c0c8 00000cf4 00014050     ............P@..
     5f0:	00009a98 0000cc70 0000c0cc 000122dc     ....p........"..
     600:	00014744 0001493c 00002760 0000fc1c     DG..<I..`'......
     610:	000027c4 0000fe84 00010094 00010588     .'..............
     620:	00010754 0001282c 00010b70 000009e0     T...,(..p.......
     630:	00004c14 00011534 00018710 0000d454     .L..4.......T...
     640:	0000d68c 00018860 0000d170 0000d118     ....`...p.......
     650:	0000d144 00018ca0 038e3900 035e5100     D........9...Q^.
     660:	00008e24 000089e4 ffe9ffe9 000173d0     $............s..
     670:	0001300c 7f5c00a4 7ff00010 000139f0     .0....\......9..
     680:	034ccccd 00d9999b fe266666 01eb851f     ..L.....ff&.....
     690:	04cccccd ffa66666 02bfffff 0059999a     ....ff........Y.
     6a0:	0000e667 0000e001 0000fbe0 46666666     g...........fffF
     6b0:	2666599a 1b333333 1e666666 7ccd0333     .Yf&333.fff.3..|
     6c0:	23333333 1ccccccd 00333333 7eb80148     333#....333.H..~
     6d0:	40004000 6666199a 00266666 599a2666     .@.@..ffff&.f&.Y
     6e0:	66666667 f6666666 0999999a 7ccccd00     gffffff........|
     6f0:	7f1b00e5 0000deb0 6ccd1333 799a0666     ........3..lf..y
     700:	00018050 10000001 00008e58 0000e180     P.......X.......
     710:	000102c4 75c30a3d 00008e50 0000df3c     ....=..uP...<...
     720:	00018290 000182c0 00018840 0ccccd00     ........@.......
     730:	0e38e400 12492500 000182b0 00000e6c     ..8..%I.....l...
     740:	000014e8 00010894 00010a0c 00004990     .............I..
     750:	0001125c 000ccccd 000e38e4 00124925     \........8..%I..
     760:	fed9999a 0001184c 00011a64 00012544     ....L...d...D%..
     770:	00011c8c 00011e48 00011f54 00014210     ....H...T....B..
     780:	000144a4 80000001 00017bd0 00013530     .D.......{..05..
     790:	00013580 00013558 00012e10 00013508     .5..X5.......5..
     7a0:	00013710 000135a8 000136a0 00013738     .7...5...6..87..
     7b0:	003eb852 00333334 00266667 0019999a     R.>.433.gf&.....
     7c0:	ffc147ae ffcccccc ffd99999 ffe66666     .G..........ff..
     7d0:	fff33333 ffe00001 00028f5e fe924dd3     33......^....M..
     7e0:	04d24dd3 077fffff 0021eb86 0effffff     .M........!.....
     7f0:	00666667 cb333334 00013770 fb333334     gff.433.p7..433.
     800:	00013894 00013928 0399999a 0299999a     .8..(9..........
     810:	00016e70 00017090 00016f80 0000b814     pn...p...o......
     820:	000171a0 7fffff00 0001180c 95b38000     .q..............
     830:	7ffffb00 00017fd0 0000d49a 00015d70     ............p]..
     840:	0000085c                                \...

00000844 <_init>:
     844:	008136                                    	entry	a1, 64
     847:	fdee81                                    	l32r	a8, 0 (894 <frame_dummy>)
     84a:	f03d                                    	nop.n
     84c:	0008e0                                    	callx8	a8
     84f:	fded81                                    	l32r	a8, 4 (14ae0 <__do_global_ctors_aux>)
     852:	f03d                                    	nop.n
     854:	0008e0                                    	callx8	a8
     857:	f01d                                    	retw.n

00000859 <_init+0x15>:
     859:	000000                                        ...

0000085c <__do_global_dtors_aux>:
     85c:	004136                                    	entry	a1, 32
     85f:	fdea21                                    	l32r	a2, 8 (15d9c <__do_global_dtors_aux.completed>)
     862:	000232                                    	l8ui	a3, a2, 0
     865:	63ec                                    	bnez.n	a3, 88f <__do_global_dtors_aux+0x33>

00000867 <__do_global_dtors_aux+0xb>:
     867:	1248                                    	l32i.n	a4, a2, 4
     869:	0438                                    	l32i.n	a3, a4, 0
     86b:	04028424000163ae                  	{ beqz.w15	a3, 87c <__do_global_dtors_aux+0x20>; addi	a4, a4, 4 }
     873:	1249                                    	s32i.n	a4, a2, 4
     875:	0003e0                                    	callx8	a3
     878:	fffac6                                    	j	867 <__do_global_dtors_aux+0xb>

0000087b <__do_global_dtors_aux+0x1f>:
	...

0000087c <__do_global_dtors_aux+0x20>:
     87c:	fde431                                    	l32r	a3, c (0 <_text_start>)
     87f:	fde4a1                                    	l32r	a10, 10 (15d68 <__FRAME_END__>)
     882:	438c                                    	beqz.n	a3, 88a <__do_global_dtors_aux+0x2e>
     884:	fde281                                    	l32r	a8, c (0 <_text_start>)
     887:	0008e0                                    	callx8	a8
     88a:	130c                                    	movi.n	a3, 1
     88c:	004232                                    	s8i	a3, a2, 0
     88f:	f01d                                    	retw.n

00000891 <__do_global_dtors_aux+0x35>:
     891:	000000                                        ...

00000894 <frame_dummy>:
     894:	004136                                    	entry	a1, 32
     897:	fddf21                                    	l32r	a2, 14 (0 <_text_start>)
     89a:	fddda1                                    	l32r	a10, 10 (15d68 <__FRAME_END__>)
     89d:	fddeb1                                    	l32r	a11, 18 (15d84 <frame_dummy.object>)
     8a0:	428c                                    	beqz.n	a2, 8a8 <frame_dummy+0x14>
     8a2:	fddc81                                    	l32r	a8, 14 (0 <_text_start>)
     8a5:	0008e0                                    	callx8	a8

000008a8 <frame_dummy+0x14>:
     8a8:	f01d                                    	retw.n

000008aa <frame_dummy+0x16>:
	...

000008ac <_start>:
     8ac:	004136                                    	entry	a1, 32
     8af:	fddb31                                    	l32r	a3, 1c (190e0 <printf_ptr>)
     8b2:	0228                                    	l32i.n	a2, a2, 0
     8b4:	fddba1                                    	l32r	a10, 20 (15e18 <export_parameter_array+0x68>)
     8b7:	fddbb1                                    	l32r	a11, 24 (4d28 <get_aec_nr_memsize>)
     8ba:	0329                                    	s32i.n	a2, a3, 0
     8bc:	0002e0                                    	callx8	a2
     8bf:	0328                                    	l32i.n	a2, a3, 0
     8c1:	fdd9a1                                    	l32r	a10, 28 (15e31 <export_parameter_array+0x81>)
     8c4:	fddab1                                    	l32r	a11, 2c (4e64 <Voice_WB_TX_Init>)
     8c7:	0002e0                                    	callx8	a2
     8ca:	0328                                    	l32i.n	a2, a3, 0
     8cc:	fdd9a1                                    	l32r	a10, 30 (15e48 <export_parameter_array+0x98>)
     8cf:	fdd9b1                                    	l32r	a11, 34 (6328 <Voice_WB_TX_Prcs>)
     8d2:	0002e0                                    	callx8	a2
     8d5:	0328                                    	l32i.n	a2, a3, 0
     8d7:	fdd8a1                                    	l32r	a10, 38 (15e5f <export_parameter_array+0xaf>)
     8da:	fdd8b1                                    	l32r	a11, 3c (604c <EC_REF_GAIN_READBACK>)
     8dd:	0002e0                                    	callx8	a2
     8e0:	0328                                    	l32i.n	a2, a3, 0
     8e2:	fdd7a1                                    	l32r	a10, 40 (15e7a <export_parameter_array+0xca>)
     8e5:	fdd7b1                                    	l32r	a11, 44 (d604 <NB_RX_NR_init>)
     8e8:	0002e0                                    	callx8	a2
     8eb:	0328                                    	l32i.n	a2, a3, 0
     8ed:	fdd6a1                                    	l32r	a10, 48 (15e8e <export_parameter_array+0xde>)
     8f0:	fdd7b1                                    	l32r	a11, 4c (5f14 <Voice_NB_RX_Prcs>)
     8f3:	0002e0                                    	callx8	a2
     8f6:	0328                                    	l32i.n	a2, a3, 0
     8f8:	fdd6a1                                    	l32r	a10, 50 (15ea5 <export_parameter_array+0xf5>)
     8fb:	fdd6b1                                    	l32r	a11, 54 (d238 <WB_RX_NR_init>)
     8fe:	0002e0                                    	callx8	a2
     901:	0328                                    	l32i.n	a2, a3, 0
     903:	fdd5a1                                    	l32r	a10, 58 (15eb9 <export_parameter_array+0x109>)
     906:	fdd5b1                                    	l32r	a11, 5c (5f7c <Voice_WB_RX_Prcs>)
     909:	0002e0                                    	callx8	a2
     90c:	0328                                    	l32i.n	a2, a3, 0
     90e:	fdd4a1                                    	l32r	a10, 60 (15ed0 <export_parameter_array+0x120>)
     911:	fdd4b1                                    	l32r	a11, 64 (60a8 <EC_PreLim_Coef_READBACK>)
     914:	0002e0                                    	callx8	a2
     917:	0328                                    	l32i.n	a2, a3, 0
     919:	fdd3a1                                    	l32r	a10, 68 (15eee <export_parameter_array+0x13e>)
     91c:	fdd4b1                                    	l32r	a11, 6c (c970 <AEC_NR_Write_FLASH>)
     91f:	0002e0                                    	callx8	a2
     922:	0328                                    	l32i.n	a2, a3, 0
     924:	fdd3a1                                    	l32r	a10, 70 (15f07 <export_parameter_array+0x157>)
     927:	fdd3b1                                    	l32r	a11, 74 (14140 <EQ_update>)
     92a:	0002e0                                    	callx8	a2
     92d:	0328                                    	l32i.n	a2, a3, 0
     92f:	fdd2a1                                    	l32r	a10, 78 (15f17 <export_parameter_array+0x167>)
     932:	fdd2b1                                    	l32r	a11, 7c (4d30 <get_txnr_pitch_last>)
     935:	0002e0                                    	callx8	a2
     938:	0328                                    	l32i.n	a2, a3, 0
     93a:	fdd1a1                                    	l32r	a10, 80 (15f31 <export_parameter_array+0x181>)
     93d:	fdd1b1                                    	l32r	a11, 84 (6118 <DaulMIC_power_Coef_READBACK>)
     940:	0002e0                                    	callx8	a2
     943:	0328                                    	l32i.n	a2, a3, 0
     945:	fdd0a1                                    	l32r	a10, 88 (15f53 <export_parameter_array+0x1a3>)
     948:	fdd1b1                                    	l32r	a11, 8c (c7a8 <TWO_MIC_WB_Write_FLASH>)
     94b:	0002e0                                    	callx8	a2
     94e:	0328                                    	l32i.n	a2, a3, 0
     950:	fdd0a1                                    	l32r	a10, 90 (15f70 <export_parameter_array+0x1c0>)
     953:	fdd0b1                                    	l32r	a11, 94 (7b18 <IE_EC_REF_GAIN_READBACK>)
     956:	0002e0                                    	callx8	a2
     959:	0328                                    	l32i.n	a2, a3, 0
     95b:	fdcfa1                                    	l32r	a10, 98 (15f8e <export_parameter_array+0x1de>)
     95e:	fdcfb1                                    	l32r	a11, 9c (62e4 <Voice_WB_TX_Inear_Init_V2>)
     961:	0002e0                                    	callx8	a2
     964:	0328                                    	l32i.n	a2, a3, 0
     966:	fdcea1                                    	l32r	a10, a0 (15fae <export_parameter_array+0x1fe>)
     969:	fdceb1                                    	l32r	a11, a4 (7b00 <Voice_WB_TX_Inear_Prcs_V2>)
     96c:	0002e0                                    	callx8	a2
     96f:	0328                                    	l32i.n	a2, a3, 0
     971:	fdcda1                                    	l32r	a10, a8 (15fce <export_parameter_array+0x21e>)
     974:	fdceb1                                    	l32r	a11, ac (4d20 <get_ECNR_SVN>)
     977:	0002e0                                    	callx8	a2
     97a:	0328                                    	l32i.n	a2, a3, 0
     97c:	fdcda1                                    	l32r	a10, b0 (15fe1 <export_parameter_array+0x231>)
     97f:	fdcdb1                                    	l32r	a11, b4 (de0c <SWB_RX_NR_init>)
     982:	0002e0                                    	callx8	a2
     985:	0328                                    	l32i.n	a2, a3, 0
     987:	fdcca1                                    	l32r	a10, b8 (15ff6 <export_parameter_array+0x246>)
     98a:	fdccb1                                    	l32r	a11, bc (5fe4 <Voice_SWB_RX_Prcs>)
     98d:	0002e0                                    	callx8	a2
     990:	0328                                    	l32i.n	a2, a3, 0
     992:	fdcba1                                    	l32r	a10, c0 (1600e <export_parameter_array+0x25e>)
     995:	fdcbb1                                    	l32r	a11, c4 (7bf8 <Voice_SWB_TX_Init>)
     998:	0002e0                                    	callx8	a2
     99b:	0328                                    	l32i.n	a2, a3, 0
     99d:	fdcaa1                                    	l32r	a10, c8 (16026 <export_parameter_array+0x276>)
     9a0:	fdcbb1                                    	l32r	a11, cc (7e28 <Voice_SWB_TX_Prcs>)
     9a3:	0002e0                                    	callx8	a2
     9a6:	0328                                    	l32i.n	a2, a3, 0
     9a8:	fdcaa1                                    	l32r	a10, d0 (1603e <export_parameter_array+0x28e>)
     9ab:	fdcab1                                    	l32r	a11, d4 (7c34 <Voice_SWB_TX_Inear_Init_V2>)
     9ae:	0002e0                                    	callx8	a2
     9b1:	0328                                    	l32i.n	a2, a3, 0
     9b3:	fdc9a1                                    	l32r	a10, d8 (1605f <export_parameter_array+0x2af>)
     9b6:	fdc9b1                                    	l32r	a11, dc (9ca0 <Voice_SWB_TX_Inear_Prcs_V2>)
     9b9:	0002e0                                    	callx8	a2
     9bc:	0328                                    	l32i.n	a2, a3, 0
     9be:	fdc8a1                                    	l32r	a10, e0 (16080 <export_parameter_array+0x2d0>)
     9c1:	fdc8b1                                    	l32r	a11, e4 (6128 <BAND5_EC_REF_GAIN_READBACK>)
     9c4:	0002e0                                    	callx8	a2
     9c7:	0328                                    	l32i.n	a2, a3, 0
     9c9:	fdc7a1                                    	l32r	a10, e8 (160a1 <export_parameter_array+0x2f1>)
     9cc:	fdc8b1                                    	l32r	a11, ec (60f8 <BAND5_PreLim_Coef_READBACK>)
     9cf:	0002e0                                    	callx8	a2
     9d2:	fdc721                                    	l32r	a2, f0 (15db0 <export_parameter_array>)
     9d5:	f01d                                    	retw.n

000009d7 <_start+0x12b>:
	...

000009e0 <comfort_noise_gen_wb>:
     9e0:	00c136                                    	entry	a1, 96
     9e3:	13d2f2                                    	addmi	a15, a2, 0x1300
     9e6:	036d                                    	mov.n	a6, a3
     9e8:	7b9f32                                    	l16si	a3, a15, 246
     9eb:	3802a2                                    	l8ui	a10, a2, 56
     9ee:	f139                                    	s32i.n	a3, a1, 60
     9f0:	fcc572                                    	addi	a7, a5, -4
     9f3:	fdc031                                    	l32r	a3, f4 (fbc0 <get_sb_ptn_addr>)
     9f6:	0003e0                                    	callx8	a3
     9f9:	360252                                    	l8ui	a5, a2, 54
     9fc:	030c                                    	movi.n	a3, 0
     9fe:	0c0c                                    	movi.n	a12, 0
     a00:	0d0c                                    	movi.n	a13, 0
     a02:	02ed                                    	mov.n	a14, a2
     a04:	0f0c                                    	movi.n	a15, 0
     a06:	b1a9                                    	s32i.n	a10, a1, 44
     a08:	020c                                    	movi.n	a2, 0
     a0a:	a139                                    	s32i.n	a3, a1, 40
     a0c:	25de82                                    	addmi	a8, a14, 0x2500
     a0f:	090c                                    	movi.n	a9, 0
     a11:	91c9                                    	s32i.n	a12, a1, 36
     a13:	3b2832                                    	l32i	a3, a8, 236
     a16:	71d9                                    	s32i.n	a13, a1, 28
     a18:	068d                                    	mov.n	a8, a6
     a1a:	81f9                                    	s32i.n	a15, a1, 32
     a1c:	02d8a2                                    	addmi	a10, a8, 0x200
     a1f:	466527                                    	bbci	a5, 2, a69 <comfort_noise_gen_wb+0x89>
     a22:	02d322                                    	addmi	a2, a3, 0x200
     a25:	7199                                    	s32i.n	a9, a1, 28
     a27:	6512c2                                    	l16ui	a12, a2, 202
     a2a:	1bd352                                    	addmi	a5, a3, 0x1b00
     a2d:	2195d2                                    	l16si	a13, a5, 66
     a30:	020c                                    	movi.n	a2, 0
     a32:	160c                                    	movi.n	a6, 1
     a34:	a1d9                                    	s32i.n	a13, a1, 40
     a36:	072c66                                    	bnei	a12, 2, a41 <comfort_noise_gen_wb+0x61>
     a39:	701a52                                    	l16ui	a5, a10, 224
     a3c:	625560                                    	saltu	a5, a5, a6
     a3f:	7159                                    	s32i.n	a5, a1, 28

00000a41 <comfort_noise_gen_wb+0x61>:
     a41:	0cd452                                    	addmi	a5, a4, 0xc00
     a44:	89a1f2                                    	movi	a15, 0x189
     a47:	151562                                    	l16ui	a6, a5, 42
     a4a:	115fd0                                    	slli	a5, a15, 3
     a4d:	1a0c                                    	movi.n	a10, 1
     a4f:	0cd492                                    	addmi	a9, a4, 0xc00
     a52:	071666                                    	bnei	a6, 1, a5d <comfort_noise_gen_wb+0x7d>
     a55:	141922                                    	l16ui	a2, a9, 40
     a58:	220b                                    	addi.n	a2, a2, -1
     a5a:	6222a0                                    	saltu	a2, a2, a10
     a5d:	02d862                                    	addmi	a6, a8, 0x200
     a60:	335a                                    	add.n	a3, a3, a5
     a62:	519662                                    	l16si	a6, a6, 162
     a65:	9139                                    	s32i.n	a3, a1, 36
     a67:	8169                                    	s32i.n	a6, a1, 32
     a69:	0cd452                                    	addmi	a5, a4, 0xc00
     a6c:	1502de4004a94c0e                  	{ ae_movi	aed0, 0; addmi	a4, a14, 0x2500 }
     a74:	3203454004c3717e                  	{ ae_s16x2m.iu	aed0, a7, 4; l16si	a3, a5, 30 }
     a7c:	3a044b4004c0617e                  	{ ae_s16x2m.iu	aed0, a7, 4; movi	a10, 59 }
     a84:	3403c44004cd617e                  	{ ae_s16x2m.iu	aed0, a7, 4; l32i	a4, a4, 220 }
     a8c:	1d1e62                                    	l16ui	a6, a14, 58
     a8f:	572b                                    	addi.n	a5, a7, 2
     a91:	e139                                    	s32i.n	a3, a1, 56
     a93:	190c                                    	movi.n	a9, 1
     a95:	081c                                    	movi.n	a8, 16
     a97:	117a90                                    	slli	a7, a10, 7
     a9a:	300704200420c6ae                  	{ beqz.w15	a6, bd6 <comfort_noise_gen_wb+0x1f6>; ae_movda32	aed0, a4 }
     aa2:	2283060520000e1e                  	{ ae_s64.i	aed0, a1, 16; nop; ae_mulf32r.lh	aed0, aed0, aed0 }
     aaa:	fca462                                    	movi	a6, 0x4fc
     aad:	302290                                    	xor	a2, a2, a9
     ab0:	25de32                                    	addmi	a3, a14, 0x2500
     ab3:	040400400040080e                  	{ ae_trunca32x2f64s	aed0, aed0, aed0, a8; movi	a4, 0 }
     abb:	c129                                    	s32i.n	a2, a1, 48
     abd:	020c                                    	movi.n	a2, 0
     abf:	d139                                    	s32i.n	a3, a1, 52
     ac1:	6e6a                                    	add.n	a6, a14, a6
     ac3:	36068e4000f1971e                  	{ ae_s64.i	aed0, a1, 8; add	a7, a14, a7 }
     acb:	e1d8                                    	l32i.n	a13, a1, 56
     acd:	001a06                                    	j	b39 <comfort_noise_gen_wb+0x159>

00000ad0 <comfort_noise_gen_wb+0xf0>:
     ad0:	2283470b3422b13e                  	{ nop; nop; ae_mulf32r.ll	aed1, aed1, aed2 }
     ad8:	1302824014a0e98e                  	{ ae_cvtp24a16x2.ll	aed2, a9, a8; addi	a2, a2, 1 }
     ae0:	228113183022422e                  	{ ae_sel16i	aed2, aed2, aed2, 1; nop; ae_mulf48q32sp16s.l	aed3, aed1, aed2 }
     ae8:	2281f3e22022e1de                  	{ l32i	a13, a1, 56; nop; ae_mulf48q32sp16s.l	aed28, aed1, aed2 }
     af0:	2281b3ec2060444e                  	{ addi	a4, a4, 4; nop; ae_mulf48q32sp16s.l	aed29, aed3, aed0 }
     af8:	228353f33780b13e                  	{ nop; nop; ae_mulf48q32sp16s.l	aed30, aed28, aed0 }
     b00:	220760c014a5fade                  	{ ae_slaasq56s	aed31, aed29, a10; nop }
     b08:	0ead3d7b091d0cf0c387e1381c013aef 	{ ae_slaasq56s	aed0, aed30, a10; nop; nop; ae_roundsp16q48x2sym	aed1, aed31, aed31 }
     b18:	0ead217b0c450cf0c30001390401415f 	{ ae_s16m.l.iu	aed1, a5, 2; nop; nop; ae_roundsp16q48x2sym	aed0, aed0, aed0 }
     b28:	230740c004c5115e                  	{ ae_s16m.l.iu	aed0, a5, 2; nop }
     b30:	1d1ef2                                    	l16ui	a15, a14, 58
     b33:	0232f7                                    	bltu	a2, a15, b39 <comfort_noise_gen_wb+0x159>
     b36:	002706                                    	j	bd6 <comfort_noise_gen_wb+0x1f6>
     b39:	8138                                    	l32i.n	a3, a1, 32
     b3b:	06bd                                    	mov.n	a11, a6
     b3d:	71f8                                    	l32i.n	a15, a1, 28
     b3f:	06cd                                    	mov.n	a12, a6
     b41:	7292d0                                    	salt	a9, a2, a13
     b44:	91a8                                    	l32i.n	a10, a1, 36
     b46:	c1d8                                    	l32i.n	a13, a1, 48
     b48:	728230                                    	salt	a8, a2, a3
     b4b:	108f80                                    	and	a8, a15, a8
     b4e:	93ba90                                    	movnez	a11, a10, a9
     b51:	f1f8                                    	l32i.n	a15, a1, 60
     b53:	93ca80                                    	movnez	a12, a10, a8
     b56:	20d8d0                                    	or	a13, a8, a13
     b59:	0e3d                                    	mov.n	a3, a14
     b5b:	93bcd0                                    	movnez	a11, a12, a13
     b5e:	a1c8                                    	l32i.n	a12, a1, 40
     b60:	bb4a                                    	add.n	a11, a11, a4
     b62:	0fad                                    	mov.n	a10, a15
     b64:	0bb8                                    	l32i.n	a11, a11, 0
     b66:	93fc80                                    	movnez	a15, a12, a8
     b69:	93ac90                                    	movnez	a10, a12, a9
     b6c:	fd6381                                    	l32r	a8, f8 (bfc <HIFI_sqrt>)
     b6f:	93afd0                                    	movnez	a10, a15, a13
     b72:	0008e0                                    	callx8	a8
     b75:	fd61d1                                    	l32r	a13, fc (190f0 <p_ecnr_mem>)
     b78:	03ed                                    	mov.n	a14, a3
     b7a:	d1f8                                    	l32i.n	a15, a1, 52
     b7c:	0d88                                    	l32i.n	a8, a13, 0
     b7e:	20070b4418816fde                  	{ l16si	a13, a15, 230; ae_cvt48a32	aed1, a11 }
     b86:	75a0f2                                    	movi	a15, 117
     b89:	35d892                                    	addmi	a9, a8, 0x3500
     b8c:	f1a382                                    	movi	a8, 0x3f1
     b8f:	6399c2                                    	l16si	a12, a9, 198
     b92:	b03880                                    	addx8	a3, a8, a8
     b95:	828c30                                    	mull	a8, a12, a3
     b98:	bbdf32                                    	addmi	a3, a15, 0xffffbb00
     b9b:	635982                                    	s16i	a8, a9, 198
     b9e:	829c30                                    	mull	a9, a12, a3
     ba1:	1104174708801ece                  	{ l16ui	a12, a14, 58; ae_l16m.iu	aed0, a7, 2 }
     ba9:	b138                                    	l32i.n	a3, a1, 44
     bab:	02a2d7                                    	bge	a2, a13, bb1 <comfort_noise_gen_wb+0x1d1>
     bae:	ffc986                                    	j	ad8 <comfort_noise_gen_wb+0xf8>
     bb1:	2105811d0fe212ce                  	{ bgeu.w15	a2, a12, ad8 <comfort_noise_gen_wb+0xf8>; ae_l64.i	aed2, a1, 8 }
     bb9:	30070b42008103ce                  	{ l16si	a12, a3, 16; ae_movda32	aed1, a11 }
     bc1:	0222c7                                    	blt	a2, a12, bc7 <comfort_noise_gen_wb+0x1e7>
     bc4:	ffc206                                    	j	ad0 <comfort_noise_gen_wb+0xf0>
     bc7:	230581471c62e50e                  	{ j	ad0 <comfort_noise_gen_wb+0xf0>; ae_l64.i	aed2, a1, 16 }

00000bcf <comfort_noise_gen_wb+0x1ef>:
     bcf:	00000000                                 .......

00000bd6 <comfort_noise_gen_wb+0x1f6>:
     bd6:	380e22                                    	l8ui	a2, a14, 56
     bd9:	930c                                    	movi.n	a3, 9
     bdb:	142c                                    	movi.n	a4, 33
     bdd:	ff0c                                    	movi.n	a15, 15
     bdf:	0c07004014e0432e                  	{ saltu	a2, a3, a2; ae_movi	aed0, 0 }
     be7:	93f420                                    	movnez	a15, a4, a2
     bea:	fec522                                    	addi	a2, a5, -2
     bed:	078f76                                    	loop	a15, bf8 <comfort_noise_gen_wb+0x218>
     bf0:	220740c004c5712e                  	{ ae_s16x2m.iu	aed0, a2, 4; nop }

00000bf8 <comfort_noise_gen_wb+0x218>:
     bf8:	f01d                                    	retw.n

00000bfa <comfort_noise_gen_wb+0x21a>:
	...

00000bfc <HIFI_sqrt>:
     bfc:	004136                                    	entry	a1, 32
     bff:	070c                                    	movi.n	a7, 0
     c01:	6113a6                                    	blti	a3, 1, c66 <HIFI_sqrt+0x6a>
     c04:	40e340                                    	nsa	a4, a3
     c07:	c02240                                    	sub	a2, a2, a4
     c0a:	401400                                    	ssl	a4
     c0d:	044020                                    	extui	a4, a2, 0, 1
     c10:	a1d300                                    	sll	a13, a3
     c13:	400400                                    	ssr	a4
     c16:	fd3a51                                    	l32r	a5, 100 (18070 <TABLE_SQRT>)
     c19:	b130d0                                    	sra	a3, a13
     c1c:	242a                                    	add.n	a2, a4, a2
     c1e:	656930                                    	extui	a6, a3, 25, 7
     c21:	413930                                    	srli	a3, a3, 9
     c24:	070286c004bce33e                  	{ ae_cvtp24a16x2.ll	aed0, a3, a3; addi	a6, a6, -16 }
     c2c:	536670                                    	max	a6, a6, a7
     c2f:	905650                                    	addx2	a5, a6, a5
     c32:	456d                                    	ae_l16ui.n	a6, a5, 0
     c34:	355d                                    	ae_l16si.n	a5, a5, 2
     c36:	11f600                                    	slli	a15, a6, 16
     c39:	21070f4314e1456e                  	{ sub	a14, a5, a6; ae_cvt48a32	aed1, a15 }
     c41:	113e00                                    	slli	a3, a14, 16
     c44:	2107234010a2212e                  	{ srai	a2, a2, 1; ae_cvt48a32	aed2, a3 }
     c4c:	20834f0b3440b13e                  	{ nop; nop; ae_mulaq32sp16u.l	aed1, aed2, aed0 }
     c54:	0ead257b0d240cd0c400813b0c01631f 	{ ae_trunca32q48	a3, aed1; nop; nop; nop }
     c64:	f01d                                    	retw.n

00000c66 <HIFI_sqrt+0x6a>:
     c66:	020c                                    	movi.n	a2, 0
     c68:	030c                                    	movi.n	a3, 0
     c6a:	f01d                                    	retw.n

00000c6c <Log2_norm>:
     c6c:	004136                                    	entry	a1, 32
     c6f:	024d                                    	mov.n	a4, a2
     c71:	ff7c                                    	movi.n	a15, -1
     c73:	156c                                    	movi.n	a5, -31
     c75:	012f10                                    	slli	a2, a15, 31
     c78:	062c                                    	movi.n	a6, 32
     c7a:	5714a6                                    	blti	a4, 1, cd5 <Log2_norm+0x69>
     c7d:	040634801802a35e                  	{ blt.w15	a3, a5, cd5 <Log2_norm+0x69>; ae_movda32x2	aed2, a4, a4 }
     c85:	552840                                    	extui	a2, a4, 24, 6
     c88:	06a637                                    	bge	a6, a3, c92 <Log2_norm+0x26>
     c8b:	f27c                                    	movi.n	a2, -1
     c8d:	412120                                    	srli	a2, a2, 1
     c90:	f01d                                    	retw.n

00000c92 <Log2_norm+0x26>:
     c92:	fd1c51                                    	l32r	a5, 104 (180e0 <TABLE_LOG2_1530>)
     c95:	1122e0                                    	slli	a2, a2, 2
     c98:	3606a34000c0a25e                  	{ ae_l32m.xu	aed0, a5, a2; slli	a3, a3, 26 }
     ca0:	220720c008c5715e                  	{ ae_l32m.i	aed1, a5, 4; nop }
     ca8:	0ead057b08e40cd0c58081380001e11f 	{ ae_sub64	aed1, aed1, aed0; nop; nop; nop }
     cb8:	20834f033422b13e                  	{ nop; nop; ae_mulaq32sp16u.l	aed0, aed1, aed2 }
     cc0:	0ead257b0d240cd0c400813b0c016f0f 	{ ae_trunca32q48	a15, aed0; nop; nop; nop }
     cd0:	2125f0                                    	srai	a2, a15, 5
     cd3:	223a                                    	add.n	a2, a2, a3
     cd5:	f01d                                    	retw.n

00000cd7 <Log2_norm+0x6b>:
	...

00000ce0 <COMPL_S16x2_fun>:
     ce0:	004136                                    	entry	a1, 32
     ce3:	f37c                                    	movi.n	a3, -1
     ce5:	114200                                    	slli	a4, a2, 16
     ce8:	013310                                    	slli	a3, a3, 31
     ceb:	30f230                                    	xor	a15, a2, a3
     cee:	c02f40                                    	sub	a2, a15, a4
     cf1:	f01d                                    	retw.n

00000cf3 <COMPL_S16x2_fun+0x13>:
	...

00000cf4 <PD_INIT>:
     cf4:	006136                                    	entry	a1, 48
     cf7:	fd01f1                                    	l32r	a15, fc (190f0 <p_ecnr_mem>)
     cfa:	73a432                                    	movi	a3, 0x473
     cfd:	fd0261                                    	l32r	a6, 108 (14b74 <xt_memset>)
     d00:	1133b0                                    	slli	a3, a3, 5
     d03:	0b0c                                    	movi.n	a11, 0
     d05:	f0a2c2                                    	movi	a12, 0x2f0
     d08:	0f48                                    	l32i.n	a4, a15, 0
     d0a:	3129                                    	s32i.n	a2, a1, 12
     d0c:	343a                                    	add.n	a3, a4, a3
     d0e:	03ad                                    	mov.n	a10, a3
     d10:	0006e0                                    	callx8	a6
     d13:	fcfe71                                    	l32r	a7, 10c (190f8 <aec_nr_para>)
     d16:	cea082                                    	movi	a8, 206
     d19:	fcfd21                                    	l32r	a2, 110 (14b88 <xt_memcpy>)
     d1c:	7c0c                                    	movi.n	a12, 7
     d1e:	03ad                                    	mov.n	a10, a3
     d20:	0768                                    	l32i.n	a6, a7, 0
     d22:	b68a                                    	add.n	a11, a6, a8
     d24:	0002e0                                    	callx8	a2
     d27:	fcfc91                                    	l32r	a9, 118 (90b8 <Voice_SWB_TX_Common_Prcs+0x1264>)
     d2a:	8ba4b2                                    	movi	a11, 0x48b
     d2d:	fcfba1                                    	l32r	a10, 11c (9368 <Voice_SWB_TX_Common_Prcs+0x1514>)
     d30:	9ba4e2                                    	movi	a14, 0x49b
     d33:	fcfbc1                                    	l32r	a12, 120 (9208 <Voice_SWB_TX_Common_Prcs+0x13b4>)
     d36:	11bbb0                                    	slli	a11, a11, 5
     d39:	949a                                    	add.n	a9, a4, a9
     d3b:	fcfad1                                    	l32r	a13, 124 (92b0 <Voice_SWB_TX_Common_Prcs+0x145c>)
     d3e:	a4aa                                    	add.n	a10, a4, a10
     d40:	fcfaf1                                    	l32r	a15, 128 (8fb4 <Voice_SWB_TX_Common_Prcs+0x1160>)
     d43:	fcfa61                                    	l32r	a6, 12c (90b4 <Voice_SWB_TX_Common_Prcs+0x1260>)
     d46:	11eeb0                                    	slli	a14, a14, 5
     d49:	550c                                    	movi.n	a5, 5
     d4b:	fcf921                                    	l32r	a2, 130 (9378 <Voice_SWB_TX_Common_Prcs+0x1524>)
     d4e:	0a99                                    	s32i.n	a9, a10, 0
     d50:	0778                                    	l32i.n	a7, a7, 0
     d52:	fcf081                                    	l32r	a8, 114 (8e6e <Voice_SWB_TX_Common_Prcs+0x101a>)
     d55:	b4ba                                    	add.n	a11, a4, a11
     d57:	c4ca                                    	add.n	a12, a4, a12
     d59:	fcf691                                    	l32r	a9, 134 (8fb8 <Voice_SWB_TX_Common_Prcs+0x1164>)
     d5c:	d4da                                    	add.n	a13, a4, a13
     d5e:	e4ea                                    	add.n	a14, a4, a14
     d60:	0155f0                                    	slli	a5, a5, 17
     d63:	f4fa                                    	add.n	a15, a4, a15
     d65:	1ab9                                    	s32i.n	a11, a10, 4
     d67:	646a                                    	add.n	a6, a4, a6
     d69:	2ac9                                    	s32i.n	a12, a10, 8
     d6b:	c48a                                    	add.n	a12, a4, a8
     d6d:	3ad9                                    	s32i.n	a13, a10, 12
     d6f:	9797d2                                    	l16si	a13, a7, 0x12e
     d72:	0ea9                                    	s32i.n	a10, a14, 0
     d74:	9897e2                                    	l16si	a14, a7, 0x130
     d77:	0f59                                    	s32i.n	a5, a15, 0
     d79:	1a0c                                    	movi.n	a10, 1
     d7b:	242a                                    	add.n	a2, a4, a2
     d7d:	8b2c                                    	movi.n	a11, 40
     d7f:	849a                                    	add.n	a8, a4, a9
     d81:	ff7c                                    	movi.n	a15, -1
     d83:	62ad                                    	ae_s16i.n	a10, a2, 0
     d85:	4191f0                                    	srli	a9, a15, 1
     d88:	08ad                                    	mov.n	a10, a8
     d8a:	006652                                    	s32i	a5, a6, 0
     d8d:	6cdd                                    	ae_s16i.n	a13, a12, 0
     d8f:	7ced                                    	ae_s16i.n	a14, a12, 2
     d91:	038b76                                    	loop	a11, d98 <PD_INIT+0xa4>
     d94:	0a99                                    	s32i.n	a9, a10, 0
     d96:	aa4b                                    	addi.n	a10, a10, 4

00000d98 <PD_INIT+0xa4>:
     d98:	8c9752                                    	l16si	a5, a7, 0x118
     d9b:	05d332                                    	addmi	a3, a3, 0x500
     d9e:	f7a162                                    	movi	a6, 0x1f7
     da1:	655352                                    	s16i	a5, a3, 202
     da4:	1136b0                                    	slli	a3, a6, 5
     da7:	fcd561                                    	l32r	a6, fc (190f0 <p_ecnr_mem>)
     daa:	fce321                                    	l32r	a2, 138 (9364 <Voice_SWB_TX_Common_Prcs+0x1510>)
     dad:	1ca1c2                                    	movi	a12, 0x11c
     db0:	fce391                                    	l32r	a9, 13c (9428 <Voice_SWB_TX_Common_Prcs+0x15d4>)
     db3:	b7ca                                    	add.n	a11, a7, a12
     db5:	0668                                    	l32i.n	a6, a6, 0
     db7:	8b97a2                                    	l16si	a10, a7, 0x116
     dba:	242a                                    	add.n	a2, a4, a2
     dbc:	fce1f1                                    	l32r	a15, 140 (9430 <Voice_SWB_TX_Common_Prcs+0x15dc>)
     dbf:	0289                                    	s32i.n	a8, a2, 0
     dc1:	549a                                    	add.n	a5, a4, a9
     dc3:	35d6d2                                    	addmi	a13, a6, 0x3500
     dc6:	fcd221                                    	l32r	a2, 110 (14b88 <xt_memcpy>)
     dc9:	363a                                    	add.n	a3, a6, a3
     dcb:	65ad                                    	ae_s16i.n	a10, a5, 0
     dcd:	3178                                    	l32i.n	a7, a1, 12
     dcf:	0e0c                                    	movi.n	a14, 0
     dd1:	35d662                                    	addmi	a6, a6, 0x3500
     dd4:	a4fa                                    	add.n	a10, a4, a15
     dd6:	406d32                                    	s32i	a3, a13, 0x100
     dd9:	3c0c                                    	movi.n	a12, 3
     ddb:	3f6d72                                    	s32i	a7, a13, 252
     dde:	130c                                    	movi.n	a3, 1
     de0:	6656e2                                    	s16i	a14, a6, 204
     de3:	150c                                    	movi.n	a5, 1
     de5:	0002e0                                    	callx8	a2
     de8:	68d422                                    	addmi	a2, a4, 0x6800
     deb:	960c                                    	movi.n	a6, 9
     ded:	a002a2                                    	l8ui	a10, a2, 160
     df0:	113340                                    	slli	a3, a3, 12
     df3:	fcd491                                    	l32r	a9, 144 (941c <Voice_SWB_TX_Common_Prcs+0x15c8>)
     df6:	115550                                    	slli	a5, a5, 11
     df9:	511222                                    	l16ui	a2, a2, 162
     dfc:	a1a482                                    	movi	a8, 0x4a1
     dff:	6266a0                                    	saltu	a6, a6, a10
     e02:	1188b0                                    	slli	a8, a8, 5
     e05:	935360                                    	movnez	a5, a3, a6
     e08:	e48a                                    	add.n	a14, a4, a8
     e0a:	575a                                    	add.n	a5, a7, a5
     e0c:	f49a                                    	add.n	a15, a4, a9
     e0e:	a02250                                    	addx4	a2, a2, a5
     e11:	0e59                                    	s32i.n	a5, a14, 0
     e13:	0f29                                    	s32i.n	a2, a15, 0
     e15:	f01d                                    	retw.n

00000e17 <PD_INIT+0x123>:
	...

00000e18 <wind_noise_alpha>:
     e18:	004136                                    	entry	a1, 32
     e1b:	f77c                                    	movi.n	a7, -1
     e1d:	017710                                    	slli	a7, a7, 31
     e20:	2213a6                                    	blti	a3, 1, e46 <wind_noise_alpha+0x2e>
     e23:	944d                                    	ae_zext16	a4, a4
     e25:	824460                                    	mull	a4, a4, a6
     e28:	414e40                                    	srli	a4, a4, 14
     e2b:	948d                                    	ae_zext16	a8, a4
     e2d:	114400                                    	slli	a4, a4, 16
     e30:	c08840                                    	sub	a8, a8, a4
     e33:	024d                                    	mov.n	a4, a2
     e35:	887a                                    	add.n	a8, a8, a7
     e37:	038376                                    	loop	a3, e3e <wind_noise_alpha+0x26>
     e3a:	0489                                    	s32i.n	a8, a4, 0
     e3c:	444b                                    	addi.n	a4, a4, 4

00000e3e <wind_noise_alpha+0x26>:
     e3e:	942c                                    	movi.n	a4, 41
     e40:	04b437                                    	bgeu	a4, a3, e48 <wind_noise_alpha+0x30>
     e43:	0008c6                                    	j	e6a <wind_noise_alpha+0x52>

00000e46 <wind_noise_alpha+0x2e>:
     e46:	030c                                    	movi.n	a3, 0
     e48:	954d                                    	ae_zext16	a4, a5
     e4a:	824460                                    	mull	a4, a4, a6
     e4d:	d6c3e2                                    	addi	a14, a3, -42
     e50:	a02320                                    	addx4	a2, a3, a2
     e53:	414e40                                    	srli	a4, a4, 14
     e56:	60f0e0                                    	neg	a15, a14
     e59:	94dd                                    	ae_zext16	a13, a4
     e5b:	114400                                    	slli	a4, a4, 16
     e5e:	c04d40                                    	sub	a4, a13, a4
     e61:	347a                                    	add.n	a3, a4, a7
     e63:	038f76                                    	loop	a15, e6a <wind_noise_alpha+0x52>
     e66:	0239                                    	s32i.n	a3, a2, 0
     e68:	224b                                    	addi.n	a2, a2, 4

00000e6a <wind_noise_alpha+0x52>:
     e6a:	f01d                                    	retw.n

00000e6c <PD_Noise_Est>:
     e6c:	00e136                                    	entry	a1, 112
     e6f:	fca3c1                                    	l32r	a12, fc (190f0 <p_ecnr_mem>)
     e72:	02ed                                    	mov.n	a14, a2
     e74:	25d232                                    	addmi	a3, a2, 0x2500
     e77:	73a442                                    	movi	a4, 0x473
     e7a:	f139                                    	s32i.n	a3, a1, 60
     e7c:	312332                                    	l32i	a3, a3, 196
     e7f:	0c98                                    	l32i.n	a9, a12, 0
     e81:	1144b0                                    	slli	a4, a4, 5
     e84:	fcb251                                    	l32r	a5, 14c (9438 <Voice_SWB_TX_Common_Prcs+0x15e4>)
     e87:	fcb2b1                                    	l32r	a11, 150 (942e <Voice_SWB_TX_Common_Prcs+0x15da>)
     e8a:	10c3d2                                    	addi	a13, a3, 16
     e8d:	0506a94000d161de                  	{ ae_l32m.iu	aed0, a13, 4; add	a4, a9, a4 }
     e95:	090525c008c271de                  	{ ae_l32m.iu	aed1, a13, 4; ae_l32m.xu	aed2, a5, a9 }
     e9d:	0ea564065d229bd0c580800a11600ddf 	{ ae_l32m.iu	aed28, a13, 4; add	a11, a9, a11; ae_add64	aed0, aed0, aed1; nop }
     ead:	0ea4c41001e108d0c40080e61560aa7f 	{ l32r	a7, 158 (9424 <Voice_SWB_TX_Common_Prcs+0x15d0>); movi	a8, 0; ae_add64	aed0, aed0, aed28; nop }
     ebd:	0b03b24708ce61de                  	{ ae_l32m.iu	aed29, a13, 4; l8ui	a10, a2, 56 }
     ec5:	0ea5041b09e50cd0c40080ee0560ab6f 	{ l32r	a6, 154 (942c <Voice_SWB_TX_Common_Prcs+0x15d8>); nop; ae_add64	aed0, aed0, aed29; nop }
     ed5:	0e6d416661fb97500600013e1c0198ff 	{ l32r	a15, 148 (943c <Voice_SWB_TX_Common_Prcs+0x15e8>); add	a12, a9, a7; nop; ae_srai64	aed0, aed0, 2 }
     ee5:	0ea4c40851e44dd0c50082051d7e21cf 	{ s32i	a12, a1, 44; l32i	a13, a4, 40; ae_add64	aed30, aed2, aed0; nop }
     ef5:	0e6ce168047ccc4fc703c13804010b2f 	{ l16si	a2, a11, 0; l32i	a12, a12, 0; nop; ae_srai64	aed31, aed30, 1 }
     f05:	2606e94000d1e9fe                  	{ ae_s32m.xu	aed0, a15, a9; add	a6, a9, a6 }
     f0d:	7149                                    	s32i.n	a4, a1, 28
     f0f:	d169                                    	s32i.n	a6, a1, 52
     f11:	668d                                    	ae_s16i.n	a8, a6, 0
     f13:	6199                                    	s32i.n	a9, a1, 24
     f15:	c1f9                                    	s32i.n	a15, a1, 48
     f17:	106152                                    	s32i	a5, a1, 64
     f1a:	0402e2c718dca05e                  	{ ae_s32m.i	aed31, a5, 0; addi	a4, a2, -16 }
     f22:	131da6                                    	blti	a13, 1, f39 <PD_Noise_Est+0xcd>
     f25:	7138                                    	l32i.n	a3, a1, 28
     f27:	112ca6                                    	blti	a12, 2, f3c <PD_Noise_Est+0xd0>
     f2a:	05d332                                    	addmi	a3, a3, 0x500
     f2d:	659332                                    	l16si	a3, a3, 202
     f30:	1133f0                                    	slli	a3, a3, 1
     f33:	432430                                    	min	a2, a4, a3
     f36:	000c06                                    	j	f6a <PD_Noise_Est+0xfe>

00000f39 <PD_Noise_Est+0xcd>:
     f39:	121ca6                                    	blti	a12, 1, f4f <PD_Noise_Est+0xe3>
     f3c:	c138                                    	l32i.n	a3, a1, 48
     f3e:	0338                                    	l32i.n	a3, a3, 0
     f40:	0513a6                                    	blti	a3, 1, f49 <PD_Noise_Est+0xdd>
     f43:	f8c222                                    	addi	a2, a2, -8
     f46:	000806                                    	j	f6a <PD_Noise_Est+0xfe>

00000f49 <PD_Noise_Est+0xdd>:
     f49:	fec222                                    	addi	a2, a2, -2
     f4c:	000686                                    	j	f6a <PD_Noise_Est+0xfe>

00000f4f <PD_Noise_Est+0xe3>:
     f4f:	0348                                    	l32i.n	a4, a3, 0
     f51:	1338                                    	l32i.n	a3, a3, 4
     f53:	534a                                    	add.n	a5, a3, a4
     f55:	0415a6                                    	blti	a5, 1, f5d <PD_Noise_Est+0xf1>
     f58:	222b                                    	addi.n	a2, a2, 2
     f5a:	000306                                    	j	f6a <PD_Noise_Est+0xfe>

00000f5d <PD_Noise_Est+0xf1>:
     f5d:	0714e6                                    	bgei	a4, 1, f68 <PD_Noise_Est+0xfc>
     f60:	0413e6                                    	bgei	a3, 1, f68 <PD_Noise_Est+0xfc>
     f63:	220b                                    	addi.n	a2, a2, -1
     f65:	000046                                    	j	f6a <PD_Noise_Est+0xfe>

00000f68 <PD_Noise_Est+0xfc>:
     f68:	221b                                    	addi.n	a2, a2, 1
     f6a:	6158                                    	l32i.n	a5, a1, 24
     f6c:	080c                                    	movi.n	a8, 0
     f6e:	f33c                                    	movi.n	a3, 63
     f70:	532280                                    	max	a2, a2, a8
     f73:	432230                                    	min	a2, a2, a3
     f76:	a1b9                                    	s32i.n	a11, a1, 40
     f78:	35d542                                    	addmi	a4, a5, 0x3500
     f7b:	6b2d                                    	ae_s16i.n	a2, a11, 0
     f7d:	649442                                    	l16si	a4, a4, 200
     f80:	35d592                                    	addmi	a9, a5, 0x3500
     f83:	fc7631                                    	l32r	a3, 15c (18820 <swb_score_bands>)
     f86:	0b0c                                    	movi.n	a11, 0
     f88:	920c                                    	movi.n	a2, 9
     f8a:	063496                                    	bltz	a4, ff1 <PD_Noise_Est+0x185>
     f8d:	6699b2                                    	l16si	a11, a9, 204
     f90:	6222a0                                    	saltu	a2, a2, a10
     f93:	131da6                                    	blti	a13, 1, faa <PD_Noise_Est+0x13e>
     f96:	169e22                                    	l16si	a2, a14, 44
     f99:	fecb42                                    	addi	a4, a11, -2
     f9c:	159e32                                    	l16si	a3, a14, 42
     f9f:	530b                                    	addi.n	a5, a3, -1
     fa1:	2da327                                    	bge	a3, a2, fd2 <PD_Noise_Est+0x166>
     fa4:	d8cbb2                                    	addi	a11, a11, -40
     fa7:	001186                                    	j	ff1 <PD_Noise_Est+0x185>

00000faa <PD_Noise_Est+0x13e>:
     faa:	432ce6                                    	bgei	a12, 2, ff1 <PD_Noise_Est+0x185>
     fad:	fc6c41                                    	l32r	a4, 160 (18270 <wb_score_bands>)
     fb0:	934320                                    	movnez	a4, a3, a2
     fb3:	345d                                    	ae_l16si.n	a5, a4, 2
     fb5:	902a40                                    	addx2	a2, a10, a4
     fb8:	029442                                    	l16si	a4, a4, 4
     fbb:	223d                                    	ae_l16si.n	a3, a2, 0
     fbd:	191e22                                    	l16ui	a2, a14, 50
     fc0:	454a                                    	add.n	a4, a5, a4
     fc2:	434a                                    	add.n	a4, a3, a4
     fc4:	1ca247                                    	bge	a2, a4, fe4 <PD_Noise_Est+0x178>
     fc7:	1ea237                                    	bge	a2, a3, fe9 <PD_Noise_Est+0x17d>
     fca:	02ac                                    	beqz.n	a2, fee <PD_Noise_Est+0x182>
     fcc:	fecbb2                                    	addi	a11, a11, -2
     fcf:	000786                                    	j	ff1 <PD_Noise_Est+0x185>

00000fd2 <PD_Noise_Est+0x166>:
     fd2:	c06520                                    	sub	a6, a5, a2
     fd5:	059237                                    	bne	a2, a3, fde <PD_Noise_Est+0x172>
     fd8:	facbb2                                    	addi	a11, a11, -6
     fdb:	000486                                    	j	ff1 <PD_Noise_Est+0x185>

00000fde <PD_Noise_Est+0x172>:
     fde:	83b460                                    	moveqz	a11, a4, a6
     fe1:	000306                                    	j	ff1 <PD_Noise_Est+0x185>

00000fe4 <PD_Noise_Est+0x178>:
     fe4:	bb2b                                    	addi.n	a11, a11, 2
     fe6:	0001c6                                    	j	ff1 <PD_Noise_Est+0x185>

00000fe9 <PD_Noise_Est+0x17d>:
     fe9:	bb1b                                    	addi.n	a11, a11, 1
     feb:	000086                                    	j	ff1 <PD_Noise_Est+0x185>

00000fee <PD_Noise_Est+0x182>:
     fee:	e8cbb2                                    	addi	a11, a11, -24
     ff1:	532b80                                    	max	a2, a11, a8
     ff4:	ffa032                                    	movi	a3, 255
     ff7:	432230                                    	min	a2, a2, a3
     ffa:	fc3e31                                    	l32r	a3, f4 (fbc0 <get_sb_ptn_addr>)
     ffd:	81e9                                    	s32i.n	a14, a1, 32
     fff:	665922                                    	s16i	a2, a9, 204
    1002:	0003e0                                    	callx8	a3
    1005:	7138                                    	l32i.n	a3, a1, 28
    1007:	e1a9                                    	s32i.n	a10, a1, 56
    1009:	fc5c51                                    	l32r	a5, 17c (8e6c <Voice_SWB_TX_Common_Prcs+0x1018>)
    100c:	6148                                    	l32i.n	a4, a1, 24
    100e:	a3c8                                    	l32i.n	a12, a3, 40
    1010:	8168                                    	l32i.n	a6, a1, 32
    1012:	6178                                    	l32i.n	a7, a1, 24
    1014:	090c                                    	movi.n	a9, 0
    1016:	8188                                    	l32i.n	a8, a1, 32
    1018:	345a                                    	add.n	a3, a4, a5
    101a:	021ce6                                    	bgei	a12, 1, 1020 <PD_Noise_Est+0x1b4>
    101d:	006b86                                    	j	11cf <PD_Noise_Est+0x363>
    1020:	81f8                                    	l32i.n	a15, a1, 32
    1022:	d158                                    	l32i.n	a5, a1, 52
    1024:	169822                                    	l16si	a2, a8, 44
    1027:	cca462                                    	movi	a6, 0x4cc
    102a:	159832                                    	l16si	a3, a8, 42
    102d:	570c                                    	movi.n	a7, 5
    102f:	fc4d41                                    	l32r	a4, 164 (dacccccd <_end+0xdacb3bd1>)
    1032:	8f6a                                    	add.n	a8, a15, a6
    1034:	0a0c                                    	movi.n	a10, 0
    1036:	210704020c5f032e                  	{ bge.w15	a3, a2, 125c <PD_Noise_Est+0x3f0>; ae_cvt48a32	aed31, a4 }
    103e:	657d                                    	ae_s16i.n	a7, a5, 0
    1040:	11052842088011ae                  	{ s32i	a10, a1, 36; ae_l32m.iu	aed0, a8, 4 }
    1048:	3f042fc008df618e                  	{ ae_l32m.iu	aed1, a8, 4; movi	a14, -1 }
    1050:	0ea4e408352413d0c580800a11604d8f 	{ ae_l32m.iu	aed29, a8, 4; l32i	a3, a1, 24; ae_add64	aed0, aed0, aed1; nop }
    1060:	0ea564053526e1d0c58080ea11608d8f 	{ ae_l32m.iu	aed30, a8, 4; slli	a6, a14, 31; ae_add64	aed0, aed0, aed29; nop }
    1070:	0ea5041b09e50cd0c40080f605603b2f 	{ l32r	a2, 13c (9428 <Voice_SWB_TX_Common_Prcs+0x15d4>); nop; ae_add64	aed0, aed0, aed30; nop }
    1080:	0ead257b09040cd0c580813a0c01020f 	{ ae_srai64	aed0, aed0, 2; nop; nop; nop }
    1090:	0ead057b08c40cd0c400813f1c01040f 	{ ae_le64	b0, aed0, aed31; nop; nop; nop }
    10a0:	232a                                    	add.n	a2, a3, a2
    10a2:	1a1076                                    	bt	b0, 10c0 <PD_Noise_Est+0x254>
    10a5:	222d                                    	ae_l16si.n	a2, a2, 0
    10a7:	522b                                    	addi.n	a5, a2, 2
    10a9:	114200                                    	slli	a4, a2, 16
    10ac:	215250                                    	srai	a5, a5, 2
    10af:	302260                                    	xor	a2, a2, a6
    10b2:	303560                                    	xor	a3, a5, a6
    10b5:	115500                                    	slli	a5, a5, 16
    10b8:	c0f350                                    	sub	a15, a3, a5
    10bb:	c09240                                    	sub	a9, a2, a4
    10be:	91f9                                    	s32i.n	a15, a1, 36
    10c0:	fc2a31                                    	l32r	a3, 168 (dfffffe <_end+0xdfe6f02>)
    10c3:	2c2b                                    	addi.n	a2, a12, 2
    10c5:	fc1f41                                    	l32r	a4, 144 (941c <Voice_SWB_TX_Common_Prcs+0x15c8>)
    10c8:	21b220                                    	srai	a11, a2, 2
    10cb:	61f8                                    	l32i.n	a15, a1, 24
    10cd:	f67c                                    	movi.n	a6, -1
    10cf:	727c30                                    	salt	a7, a12, a3
    10d2:	fc2681                                    	l32r	a8, 16c (b33333 <_end+0xb1a237>)
    10d5:	937b70                                    	movnez	a7, a11, a7
    10d8:	016660                                    	slli	a6, a6, 26
    10db:	2f4a                                    	add.n	a2, a15, a4
    10dd:	5b7a                                    	add.n	a5, a11, a7
    10df:	02c8                                    	l32i.n	a12, a2, 0
    10e1:	356a                                    	add.n	a3, a5, a6
    10e3:	fc2321                                    	l32r	a2, 170 (fb4ccccd <_end+0xfb4b3bd1>)
    10e6:	a1a4d2                                    	movi	a13, 0x4a1
    10e9:	61a8                                    	l32i.n	a10, a1, 24
    10eb:	11edb0                                    	slli	a14, a13, 5
    10ee:	0c4d                                    	mov.n	a4, a12
    10f0:	212387                                    	blt	a3, a8, 1115 <PD_Noise_Est+0x2a9>
    10f3:	180c                                    	movi.n	a8, 1
    10f5:	552a                                    	add.n	a5, a5, a2
    10f7:	018880                                    	slli	a8, a8, 24
    10fa:	4aea                                    	add.n	a4, a10, a14
    10fc:	858a                                    	add.n	a8, a5, a8
    10fe:	0458                                    	l32i.n	a5, a4, 0
    1100:	758880                                    	extui	a8, a8, 24, 8
    1103:	0c4d                                    	mov.n	a4, a12
    1105:	0c8876                                    	loop	a8, 1115 <PD_Noise_Est+0x2a9>
    1108:	0499                                    	s32i.n	a9, a4, 0
    110a:	444b                                    	addi.n	a4, a4, 4
    110c:	0588                                    	l32i.n	a8, a5, 0
    110e:	1188f0                                    	slli	a8, a8, 1
    1111:	0589                                    	s32i.n	a8, a5, 0
    1113:	554b                                    	addi.n	a5, a5, 4

00001115 <PD_Noise_Est+0x2a9>:
    1115:	e158                                    	l32i.n	a5, a1, 56
    1117:	91f8                                    	l32i.n	a15, a1, 36
    1119:	04f9                                    	s32i.n	a15, a4, 0
    111b:	a1a442                                    	movi	a4, 0x4a1
    111e:	059552                                    	l16si	a5, a5, 10
    1121:	1144b0                                    	slli	a4, a4, 5
    1124:	552b                                    	addi.n	a5, a5, 2
    1126:	90fb70                                    	addx2	a15, a11, a7
    1129:	018580                                    	slli	a8, a5, 24
    112c:	e76a                                    	add.n	a14, a7, a6
    112e:	136182                                    	s32i	a8, a1, 76
    1131:	6f2a                                    	add.n	a6, a15, a2
    1133:	61d8                                    	l32i.n	a13, a1, 24
    1135:	02a837                                    	bge	a8, a3, 113b <PD_Noise_Est+0x2cf>
    1138:	004806                                    	j	125c <PD_Noise_Est+0x3f0>
    113b:	fc0e31                                    	l32r	a3, 174 (8e6a <Voice_SWB_TX_Common_Prcs+0x1016>)
    113e:	987c                                    	movi.n	a8, -7
    1140:	fc0e51                                    	l32r	a5, 178 (fcb33333 <_end+0xfcb1a237>)
    1143:	1f0c                                    	movi.n	a15, 1
    1145:	ad3a                                    	add.n	a10, a13, a3
    1147:	3d4a                                    	add.n	a3, a13, a4
    1149:	2aad                                    	ae_l16si.n	a10, a10, 0
    114b:	0338                                    	l32i.n	a3, a3, 0
    114d:	01df80                                    	slli	a13, a15, 24
    1150:	018890                                    	slli	a8, a8, 23
    1153:	475a                                    	add.n	a4, a7, a5
    1155:	11fae0                                    	slli	a15, a10, 2
    1158:	778a                                    	add.n	a7, a7, a8
    115a:	1161d2                                    	s32i	a13, a1, 68
    115d:	1261f2                                    	s32i	a15, a1, 72
    1160:	2b7a                                    	add.n	a2, a11, a7

00001162 <PD_Noise_Est+0x2f6>:
    1162:	31a820                                    	srai	a10, a2, 24
    1165:	0f0c                                    	movi.n	a15, 0
    1167:	a08ac0                                    	addx4	a8, a10, a12
    116a:	db4a                                    	add.n	a13, a11, a4
    116c:	5a1b                                    	addi.n	a5, a10, 1
    116e:	08f9                                    	s32i.n	a15, a8, 0
    1170:	a02a30                                    	addx4	a2, a10, a3
    1173:	018580                                    	slli	a8, a5, 24
    1176:	1221f2                                    	l32i	a15, a1, 72
    1179:	02f9                                    	s32i.n	a15, a2, 0
    117b:	a025c0                                    	addx4	a2, a5, a12
    117e:	91f8                                    	l32i.n	a15, a1, 36
    1180:	06a8d7                                    	bge	a8, a13, 118a <PD_Noise_Est+0x31e>
    1183:	5a2b                                    	addi.n	a5, a10, 2
    1185:	02f9                                    	s32i.n	a15, a2, 0
    1187:	018580                                    	slli	a8, a5, 24
    118a:	a0a5c0                                    	addx4	a10, a5, a12
    118d:	252687                                    	blt	a6, a8, 11b6 <PD_Noise_Est+0x34a>
    1190:	112182                                    	l32i	a8, a1, 68
    1193:	012580                                    	slli	a2, a5, 24
    1196:	c02620                                    	sub	a2, a6, a2
    1199:	1f0c                                    	movi.n	a15, 1
    119b:	a05530                                    	addx4	a5, a5, a3
    119e:	228a                                    	add.n	a2, a2, a8
    11a0:	752820                                    	extui	a2, a2, 24, 8
    11a3:	5322f0                                    	max	a2, a2, a15
    11a6:	0c8276                                    	loop	a2, 11b6 <PD_Noise_Est+0x34a>
    11a9:	0a99                                    	s32i.n	a9, a10, 0
    11ab:	aa4b                                    	addi.n	a10, a10, 4
    11ad:	0528                                    	l32i.n	a2, a5, 0
    11af:	1122f0                                    	slli	a2, a2, 1
    11b2:	0529                                    	s32i.n	a2, a5, 0
    11b4:	554b                                    	addi.n	a5, a5, 4

000011b6 <PD_Noise_Est+0x34a>:
    11b6:	eeba                                    	add.n	a14, a14, a11
    11b8:	132152                                    	l32i	a5, a1, 76
    11bb:	9128                                    	l32i.n	a2, a1, 36
    11bd:	fbea                                    	add.n	a15, a11, a14
    11bf:	0a29                                    	s32i.n	a2, a10, 0
    11c1:	44ba                                    	add.n	a4, a4, a11
    11c3:	77ba                                    	add.n	a7, a7, a11
    11c5:	66ba                                    	add.n	a6, a6, a11
    11c7:	2b7a                                    	add.n	a2, a11, a7
    11c9:	95a5f7                                    	bge	a5, a15, 1162 <PD_Noise_Est+0x2f6>
    11cc:	002306                                    	j	125c <PD_Noise_Est+0x3f0>

000011cf <PD_Noise_Est+0x363>:
    11cf:	233d                                    	ae_l16si.n	a3, a3, 0
    11d1:	fbeb41                                    	l32r	a4, 180 (8e68 <Voice_SWB_TX_Common_Prcs+0x1014>)
    11d4:	02a237                                    	bge	a2, a3, 11da <PD_Noise_Est+0x36e>
    11d7:	002046                                    	j	125c <PD_Noise_Est+0x3f0>
    11da:	1d1652                                    	l16ui	a5, a6, 58
    11dd:	a1a432                                    	movi	a3, 0x4a1
    11e0:	1163b0                                    	slli	a6, a3, 5
    11e3:	376a                                    	add.n	a3, a7, a6
    11e5:	c5ac                                    	beqz.n	a5, 1215 <PD_Noise_Est+0x3a9>
    11e7:	0338                                    	l32i.n	a3, a3, 0
    11e9:	240437400cc0203e                  	{ ae_l32.i	aed1, a3, 0; ae_l16m.x	aed0, a7, a4 }
    11f1:	1a8355033401b13e                  	{ nop; nop; ae_mul32.ll	aed0, aed0, aed1 }
    11f9:	0ead257b0d240cd0c400813b0c016f0f 	{ ae_trunca32q48	a15, aed0; nop; nop; nop }
    1209:	4f2b                                    	addi.n	a4, a15, 2
    120b:	214240                                    	srai	a4, a4, 2
    120e:	038576                                    	loop	a5, 1215 <PD_Noise_Est+0x3a9>
    1211:	0349                                    	s32i.n	a4, a3, 0
    1213:	334b                                    	addi.n	a3, a3, 4

00001215 <PD_Noise_Est+0x3a9>:
    1215:	fbdb31                                    	l32r	a3, 184 (8e66 <Voice_SWB_TX_Common_Prcs+0x1012>)
    1218:	d2a572                                    	movi	a7, 0x5d2
    121b:	6148                                    	l32i.n	a4, a1, 24
    121d:	7188                                    	l32i.n	a8, a1, 28
    121f:	f67c                                    	movi.n	a6, -1
    1221:	61d8                                    	l32i.n	a13, a1, 24
    1223:	343a                                    	add.n	a3, a4, a3
    1225:	240c                                    	movi.n	a4, 2
    1227:	233d                                    	ae_l16si.n	a3, a3, 0
    1229:	787a                                    	add.n	a7, a8, a7
    122b:	fbc6c1                                    	l32r	a12, 144 (941c <Voice_SWB_TX_Common_Prcs+0x15c8>)
    122e:	016610                                    	slli	a6, a6, 31
    1231:	272237                                    	blt	a2, a3, 125c <PD_Noise_Est+0x3f0>
    1234:	b128                                    	l32i.n	a2, a1, 44
    1236:	25ac                                    	beqz.n	a5, 125c <PD_Noise_Est+0x3f0>
    1238:	fbd431                                    	l32r	a3, 188 (9434 <Voice_SWB_TX_Common_Prcs+0x15e0>)
    123b:	edca                                    	add.n	a14, a13, a12
    123d:	0228                                    	l32i.n	a2, a2, 0
    123f:	3d3a                                    	add.n	a3, a13, a3
    1241:	722240                                    	salt	a2, a2, a4
    1244:	833720                                    	moveqz	a3, a7, a2
    1247:	002e22                                    	l32i	a2, a14, 0
    124a:	233d                                    	ae_l16si.n	a3, a3, 0
    124c:	11f300                                    	slli	a15, a3, 16
    124f:	303360                                    	xor	a3, a3, a6
    1252:	c033f0                                    	sub	a3, a3, a15
    1255:	038576                                    	loop	a5, 125c <PD_Noise_Est+0x3f0>
    1258:	0239                                    	s32i.n	a3, a2, 0
    125a:	224b                                    	addi.n	a2, a2, 4
    125c:	81c8                                    	l32i.n	a12, a1, 32
    125e:	e1b8                                    	l32i.n	a11, a1, 56
    1260:	431c                                    	movi.n	a3, 20
    1262:	191c22                                    	l16ui	a2, a12, 50
    1265:	773327                                    	bltu	a3, a2, 12e0 <PD_Noise_Est+0x474>
    1268:	7da232                                    	movi	a3, 0x27d
    126b:	0572f6                                    	bgeui	a2, 7, 1274 <PD_Noise_Est+0x408>
    126e:	f9a422                                    	movi	a2, 0x4f9
    1271:	0002c6                                    	j	1280 <PD_Noise_Est+0x414>

00001274 <PD_Noise_Est+0x408>:
    1274:	05b2f6                                    	bgeui	a2, 16, 127d <PD_Noise_Est+0x411>
    1277:	1123d0                                    	slli	a2, a3, 3
    127a:	000146                                    	j	1283 <PD_Noise_Est+0x417>

0000127d <PD_Noise_Est+0x411>:
    127d:	fba422                                    	movi	a2, 0x4fb
    1280:	1122e0                                    	slli	a2, a2, 2
    1283:	d1f8                                    	l32i.n	a15, a1, 52
    1285:	4c2a                                    	add.n	a4, a12, a2
    1287:	380c32                                    	l8ui	a3, a12, 56
    128a:	f158                                    	l32i.n	a5, a1, 60
    128c:	f67c                                    	movi.n	a6, -1
    128e:	6188                                    	l32i.n	a8, a1, 24
    1290:	2f2d                                    	ae_l16si.n	a2, a15, 0
    1292:	016610                                    	slli	a6, a6, 31
    1295:	fbab71                                    	l32r	a7, 144 (941c <Voice_SWB_TX_Common_Prcs+0x15c8>)
    1298:	44a237                                    	bge	a2, a3, 12e0 <PD_Noise_Est+0x474>
    129b:	312552                                    	l32i	a5, a5, 196
    129e:	244d                                    	ae_l16si.n	a4, a4, 0
    12a0:	787a                                    	add.n	a7, a8, a7
    12a2:	000a86                                    	j	12d0 <PD_Noise_Est+0x464>

000012a5 <PD_Noise_Est+0x439>:
    12a5:	221b                                    	addi.n	a2, a2, 1
    12a7:	2a8d                                    	ae_l16si.n	a8, a10, 0
    12a9:	9092b0                                    	addx2	a9, a2, a11
    12ac:	299d                                    	ae_l16si.n	a9, a9, 0
    12ae:	c0d980                                    	sub	a13, a9, a8
    12b1:	18a897                                    	bge	a8, a9, 12cd <PD_Noise_Est+0x461>
    12b4:	07a8                                    	l32i.n	a10, a7, 0
    12b6:	a088a0                                    	addx4	a8, a8, a10
    12b9:	108d76                                    	loop	a13, 12cd <PD_Noise_Est+0x461>
    12bc:	489d                                    	ae_l16ui.n	a9, a8, 0
    12be:	994a                                    	add.n	a9, a9, a4
    12c0:	11a900                                    	slli	a10, a9, 16
    12c3:	309960                                    	xor	a9, a9, a6
    12c6:	c099a0                                    	sub	a9, a9, a10
    12c9:	0899                                    	s32i.n	a9, a8, 0
    12cb:	884b                                    	addi.n	a8, a8, 4

000012cd <PD_Noise_Est+0x461>:
    12cd:	0fa237                                    	bge	a2, a3, 12e0 <PD_Noise_Est+0x474>

000012d0 <PD_Noise_Est+0x464>:
    12d0:	a08250                                    	addx4	a8, a2, a5
    12d3:	90a2b0                                    	addx2	a10, a2, a11
    12d6:	0888                                    	l32i.n	a8, a8, 0
    12d8:	c918a6                                    	blti	a8, 1, 12a5 <PD_Noise_Est+0x439>
    12db:	221b                                    	addi.n	a2, a2, 1
    12dd:	fffb06                                    	j	12cd <PD_Noise_Est+0x461>

000012e0 <PD_Noise_Est+0x474>:
    12e0:	7128                                    	l32i.n	a2, a1, 28
    12e2:	f47c                                    	movi.n	a4, -1
    12e4:	191222                                    	l16ui	a2, a2, 50
    12e7:	823d                                    	ae_sext16	a3, a2
    12e9:	531b                                    	addi.n	a5, a3, 1
    12eb:	013396                                    	bltz	a3, 1302 <PD_Noise_Est+0x496>
    12ee:	021c42                                    	l16ui	a4, a12, 4
    12f1:	f37c                                    	movi.n	a3, -1
    12f3:	904440                                    	addx2	a4, a4, a4
    12f6:	1144e0                                    	slli	a4, a4, 2
    12f9:	622240                                    	saltu	a2, a2, a4
    12fc:	933520                                    	movnez	a3, a5, a2
    12ff:	000086                                    	j	1305 <PD_Noise_Est+0x499>

00001302 <PD_Noise_Est+0x496>:
    1302:	f43040                                    	extui	a3, a4, 0, 16
    1305:	7148                                    	l32i.n	a4, a1, 28
    1307:	fba151                                    	l32r	a5, 18c (8e94 <Voice_SWB_TX_Common_Prcs+0x1040>)
    130a:	fba1b1                                    	l32r	a11, 190 (7fff0000 <_end+0x7ffd6f04>)
    130d:	a428                                    	l32i.n	a2, a4, 40
    130f:	195432                                    	s16i	a3, a4, 50
    1312:	102142                                    	l32i	a4, a1, 64
    1315:	6168                                    	l32i.n	a6, a1, 24
    1317:	a28c                                    	beqz.n	a2, 1325 <PD_Noise_Est+0x4b9>
    1319:	0448                                    	l32i.n	a4, a4, 0
    131b:	765a                                    	add.n	a7, a6, a5
    131d:	18a4d6                                    	bgez	a4, 14ab <PD_Noise_Est+0x63f>
    1320:	474d                                    	ae_l16ui.n	a4, a7, 0
    1322:	185456                                    	bnez	a4, 14ab <PD_Noise_Est+0x63f>
    1325:	b148                                    	l32i.n	a4, a1, 44
    1327:	7168                                    	l32i.n	a6, a1, 28
    1329:	a1f8                                    	l32i.n	a15, a1, 40
    132b:	1e0c                                    	movi.n	a14, 1
    132d:	833d                                    	ae_sext16	a3, a3
    132f:	0448                                    	l32i.n	a4, a4, 0
    1331:	05d672                                    	addmi	a7, a6, 0x500
    1334:	6188                                    	l32i.n	a8, a1, 24
    1336:	11ee20                                    	slli	a14, a14, 14
    1339:	0224a6                                    	blti	a4, 2, 133f <PD_Noise_Est+0x4d3>
    133c:	005ac6                                    	j	14ab <PD_Noise_Est+0x63f>
    133f:	2f4d                                    	ae_l16si.n	a4, a15, 0
    1341:	659762                                    	l16si	a6, a7, 202
    1344:	c1f8                                    	l32i.n	a15, a1, 48
    1346:	022647                                    	blt	a6, a4, 134c <PD_Noise_Est+0x4e0>
    1349:	005786                                    	j	14ab <PD_Noise_Est+0x63f>
    134c:	002396                                    	bltz	a3, 1352 <PD_Noise_Est+0x4e6>
    134f:	000986                                    	j	1379 <PD_Noise_Est+0x50d>

00001352 <PD_Noise_Est+0x4e6>:
    1352:	0a9c22                                    	l16si	a2, a12, 20
    1355:	0b9c32                                    	l16si	a3, a12, 22
    1358:	0c9c42                                    	l16si	a4, a12, 24
    135b:	0fa8                                    	l32i.n	a10, a15, 0
    135d:	fb6d61                                    	l32r	a6, 114 (8e6e <Voice_SWB_TX_Common_Prcs+0x101a>)
    1360:	232a                                    	add.n	a2, a3, a2
    1362:	224a                                    	add.n	a2, a2, a4
    1364:	386a                                    	add.n	a3, a8, a6
    1366:	045122                                    	s16i	a2, a1, 8
    1369:	82bd                                    	ae_sext16	a11, a2
    136b:	23cd                                    	ae_l16si.n	a12, a3, 0
    136d:	fb8921                                    	l32r	a2, 194 (14b04 <cal_wind_score>)
    1370:	0002e0                                    	callx8	a2
    1373:	7128                                    	l32i.n	a2, a1, 28
    1375:	0aed                                    	mov.n	a14, a10
    1377:	a228                                    	l32i.n	a2, a2, 40
    1379:	ffa032                                    	movi	a3, 255
    137c:	a1a8                                    	l32i.n	a10, a1, 40
    137e:	8198                                    	l32i.n	a9, a1, 32
    1380:	3fd332                                    	addmi	a3, a3, 0x3f00
    1383:	61f8                                    	l32i.n	a15, a1, 24
    1385:	3e3a                                    	add.n	a3, a14, a3
    1387:	a1a462                                    	movi	a6, 0x4a1
    138a:	045132                                    	s16i	a3, a1, 8
    138d:	040451240401c2ae                  	{ beqz.w15	a2, 144a <PD_Noise_Est+0x5de>; ae_l16m.i	aed1, a1, 8 }
    1395:	20c922                                    	addi	a2, a9, 32
    1398:	1166b0                                    	slli	a6, a6, 5
    139b:	2606ef400490602e                  	{ ae_l16m.i	aed0, a2, 0; add	a2, a15, a6 }
    13a3:	2281e8022001022e                  	{ l32i	a2, a2, 0; nop; ae_mulf32s.hh	aed0, aed0, aed1 }
    13ab:	0eace5701100a8d0c580813a0c01230f 	{ ae_srai64	aed0, aed0, 11; movi	a8, 42; nop; nop }
    13bb:	220760c000c5b31e                  	{ ae_s32m.i	aed0, a1, 12; nop }
    13c3:	3138                                    	l32i.n	a3, a1, 12
    13c5:	038876                                    	loop	a8, 13cc <PD_Noise_Est+0x560>
    13c8:	0239                                    	s32i.n	a3, a2, 0
    13ca:	224b                                    	addi.n	a2, a2, 4

000013cc <PD_Noise_Est+0x560>:
    13cc:	659722                                    	l16si	a2, a7, 202
    13cf:	2a3d                                    	ae_l16si.n	a3, a10, 0
    13d1:	343c                                    	movi.n	a4, 51
    13d3:	fb5c61                                    	l32r	a6, 144 (941c <Voice_SWB_TX_Common_Prcs+0x15c8>)
    13d6:	5bd442                                    	addmi	a4, a4, 0x5b00
    13d9:	61f8                                    	l32i.n	a15, a1, 24
    13db:	d14240                                    	mul16s	a4, a2, a4
    13de:	113330                                    	slli	a3, a3, 13
    13e1:	112220                                    	slli	a2, a2, 14
    13e4:	25d972                                    	addmi	a7, a9, 0x2500
    13e7:	2ea437                                    	bge	a4, a3, 1419 <PD_Noise_Est+0x5ad>
    13ea:	25d942                                    	addmi	a4, a9, 0x2500
    13ed:	fb5521                                    	l32r	a2, 144 (941c <Voice_SWB_TX_Common_Prcs+0x15c8>)
    13f0:	7294b2                                    	l16si	a11, a4, 228
    13f3:	6148                                    	l32i.n	a4, a1, 24
    13f5:	13d932                                    	addmi	a3, a9, 0x1300
    13f8:	fb68c1                                    	l32r	a12, 198 (33334ccd <_end+0x3331bbd1>)
    13fb:	3923d2                                    	l32i	a13, a3, 228
    13fe:	242a                                    	add.n	a2, a4, a2
    1400:	02a8                                    	l32i.n	a10, a2, 0
    1402:	fb6621                                    	l32r	a2, 19c (e18 <wind_noise_alpha>)
    1405:	0002e0                                    	callx8	a2
    1408:	fb4e21                                    	l32r	a2, 140 (9430 <Voice_SWB_TX_Common_Prcs+0x15dc>)
    140b:	242a                                    	add.n	a2, a4, a2
    140d:	222d                                    	ae_l16si.n	a2, a2, 0
    140f:	d12220                                    	mul16s	a2, a2, a2
    1412:	11b2f0                                    	slli	a11, a2, 1
    1415:	002406                                    	j	14a9 <PD_Noise_Est+0x63d>

00001418 <PD_Noise_Est+0x5ac>:
	...

00001419 <PD_Noise_Est+0x5ad>:
    1419:	13d942                                    	addmi	a4, a9, 0x1300
    141c:	73a237                                    	bge	a2, a3, 1493 <PD_Noise_Est+0x627>
    141f:	25d932                                    	addmi	a3, a9, 0x2500
    1422:	fb4821                                    	l32r	a2, 144 (941c <Voice_SWB_TX_Common_Prcs+0x15c8>)
    1425:	7293b2                                    	l16si	a11, a3, 228
    1428:	6138                                    	l32i.n	a3, a1, 24
    142a:	13d942                                    	addmi	a4, a9, 0x1300
    142d:	3924c2                                    	l32i	a12, a4, 228
    1430:	232a                                    	add.n	a2, a3, a2
    1432:	3a24d2                                    	l32i	a13, a4, 232
    1435:	02a8                                    	l32i.n	a10, a2, 0
    1437:	fb5921                                    	l32r	a2, 19c (e18 <wind_noise_alpha>)
    143a:	0002e0                                    	callx8	a2
    143d:	fb4021                                    	l32r	a2, 140 (9430 <Voice_SWB_TX_Common_Prcs+0x15dc>)
    1440:	232a                                    	add.n	a2, a3, a2
    1442:	222d                                    	ae_l16si.n	a2, a2, 0
    1444:	11b200                                    	slli	a11, a2, 16
    1447:	001786                                    	j	14a9 <PD_Noise_Est+0x63d>

0000144a <PD_Noise_Est+0x5de>:
    144a:	8198                                    	l32i.n	a9, a1, 32
    144c:	a1a442                                    	movi	a4, 0x4a1
    144f:	6168                                    	l32i.n	a6, a1, 24
    1451:	1184b0                                    	slli	a8, a4, 5
    1454:	050471410c60292e                  	{ addmi	a2, a9, 0x2500; ae_l16m.i	aed0, a1, 8 }
    145c:	729232                                    	l16si	a3, a2, 228
    145f:	268a                                    	add.n	a2, a6, a8
    1461:	0213e6                                    	bgei	a3, 1, 1467 <PD_Noise_Est+0x5fb>
    1464:	ffd906                                    	j	13cc <PD_Noise_Est+0x560>
    1467:	93fd                                    	ae_zext16	a15, a3
    1469:	0228                                    	l32i.n	a2, a2, 0
    146b:	130c                                    	movi.n	a3, 1
    146d:	0402a2c008df602e                  	{ ae_l32m.i	aed1, a2, 0; addi	a4, a2, -4 }
    1475:	178f76                                    	loop	a15, 1490 <PD_Noise_Est+0x624>
    1478:	2283530b3420b13e                  	{ nop; nop; ae_mulf48q32sp16s.l	aed1, aed1, aed0 }
    1480:	1005024300a1931e                  	{ ae_slaaq56	aed2, aed1, a3; ae_l32m.iu	aed1, a2, 4 }
    1488:	230760c010c5b14e                  	{ ae_s32m.iu	aed2, a4, 4; nop }

00001490 <PD_Noise_Est+0x624>:
    1490:	ffce06                                    	j	13cc <PD_Noise_Est+0x560>

00001493 <PD_Noise_Est+0x627>:
    1493:	7297b2                                    	l16si	a11, a7, 228
    1496:	3a24c2                                    	l32i	a12, a4, 232
    1499:	2f6a                                    	add.n	a2, a15, a6
    149b:	3b24d2                                    	l32i	a13, a4, 236
    149e:	02a8                                    	l32i.n	a10, a2, 0
    14a0:	fb3f21                                    	l32r	a2, 19c (e18 <wind_noise_alpha>)
    14a3:	0002e0                                    	callx8	a2
    14a6:	fb3ab1                                    	l32r	a11, 190 (7fff0000 <_end+0x7ffd6f04>)
    14a9:	81c8                                    	l32i.n	a12, a1, 32
    14ab:	fb3d21                                    	l32r	a2, 1a0 (7fe70019 <_end+0x7fe56f1d>)
    14ae:	25dc42                                    	addmi	a4, a12, 0x2500
    14b1:	4129                                    	s32i.n	a2, a1, 16
    14b3:	3824a2                                    	l32i	a10, a4, 224
    14b6:	fb3c21                                    	l32r	a2, 1a8 (a838 <siir_safr>)
    14b9:	10c1c2                                    	addi	a12, a1, 16
    14bc:	fb3a31                                    	l32r	a3, 1a4 (7e1401ec <_end+0x7e1270f0>)
    14bf:	360c                                    	movi.n	a6, 3
    14c1:	5139                                    	s32i.n	a3, a1, 20
    14c3:	0002e0                                    	callx8	a2
    14c6:	6128                                    	l32i.n	a2, a1, 24
    14c8:	0f0c                                    	movi.n	a15, 0
    14ca:	71e8                                    	l32i.n	a14, a1, 28
    14cc:	3864a2                                    	s32i	a10, a4, 224
    14cf:	325a                                    	add.n	a3, a2, a5
    14d1:	232d                                    	ae_l16si.n	a2, a3, 0
    14d3:	ae58                                    	l32i.n	a5, a14, 40
    14d5:	721b                                    	addi.n	a7, a2, 1
    14d7:	220b                                    	addi.n	a2, a2, -1
    14d9:	5342f0                                    	max	a4, a2, a15
    14dc:	436760                                    	min	a6, a7, a6
    14df:	934650                                    	movnez	a4, a6, a5
    14e2:	020c                                    	movi.n	a2, 0
    14e4:	634d                                    	ae_s16i.n	a4, a3, 0
    14e6:	f01d                                    	retw.n

000014e8 <PD_Noise_Gain>:
    14e8:	004136                                    	entry	a1, 32
    14eb:	fb0421                                    	l32r	a2, fc (190f0 <p_ecnr_mem>)
    14ee:	fb1931                                    	l32r	a3, 154 (942c <Voice_SWB_TX_Common_Prcs+0x15d8>)
    14f1:	0228                                    	l32i.n	a2, a2, 0
    14f3:	223a                                    	add.n	a2, a2, a3
    14f5:	222d                                    	ae_l16si.n	a2, a2, 0
    14f7:	f01d                                    	retw.n

000014f9 <PD_Noise_Gain+0x11>:
    14f9:	000000                                        ...

000014fc <voiced_decision>:
    14fc:	00e136                                    	entry	a1, 112
    14ff:	faff41                                    	l32r	a4, fc (190f0 <p_ecnr_mem>)
    1502:	9ca072                                    	movi	a7, 156
    1505:	fb0081                                    	l32r	a8, 108 (14b74 <xt_memset>)
    1508:	eca0f2                                    	movi	a15, 236
    150b:	14a152                                    	movi	a5, 0x114
    150e:	0b0c                                    	movi.n	a11, 0
    1510:	0448                                    	l32i.n	a4, a4, 0
    1512:	7c2c                                    	movi.n	a12, 39
    1514:	c139                                    	s32i.n	a3, a1, 48
    1516:	d129                                    	s32i.n	a2, a1, 52
    1518:	32d442                                    	addmi	a4, a4, 0x3200
    151b:	ff2462                                    	l32i	a6, a4, 0x3fc
    151e:	040c                                    	movi.n	a4, 0
    1520:	367a                                    	add.n	a3, a6, a7
    1522:	06ad                                    	mov.n	a10, a6
    1524:	265a                                    	add.n	a2, a6, a5
    1526:	76fa                                    	add.n	a7, a6, a15
    1528:	752c                                    	movi.n	a5, 39
    152a:	0008e0                                    	callx8	a8
    152d:	e139                                    	s32i.n	a3, a1, 56
    152f:	03ad                                    	mov.n	a10, a3
    1531:	faf531                                    	l32r	a3, 108 (14b74 <xt_memset>)
    1534:	0b0c                                    	movi.n	a11, 0
    1536:	8c2c                                    	movi.n	a12, 40
    1538:	0003e0                                    	callx8	a3
    153b:	0b0c                                    	movi.n	a11, 0
    153d:	4c1c                                    	movi.n	a12, 20
    153f:	07ad                                    	mov.n	a10, a7
    1541:	f179                                    	s32i.n	a7, a1, 60
    1543:	0003e0                                    	callx8	a3
    1546:	0b0c                                    	movi.n	a11, 0
    1548:	4c1c                                    	movi.n	a12, 20
    154a:	02ad                                    	mov.n	a10, a2
    154c:	106122                                    	s32i	a2, a1, 64
    154f:	0003e0                                    	callx8	a3
    1552:	d1c8                                    	l32i.n	a12, a1, 52
    1554:	1e0c                                    	movi.n	a14, 1
    1556:	0c2122                                    	l32i	a2, a1, 48
    1559:	48c182                                    	addi	a8, a1, 72
    155c:	310762440c00c43e                  	{ l32r	a3, 1ac (147ae100 <_end+0x14795004>); ae_movda32	aed0, a2 }
    1564:	300703450c818c7e                  	{ l32i	a7, a12, 0x254; ae_movda32	aed1, a3 }
    156c:	0e9cc63051e1cfd0c4808c090001270f 	{ ae_cvt48a32	aed2, a7; movi	a15, 172; ae_mulf32r.hh	aed1, aed0, aed1; nop }
    157c:	020465400ca0ce2e                  	{ ae_sraaq56	aed31, aed2, a14; movi	a2, 5 }
    1584:	0ea5440b01e043d0c50082fd15a2ac4f 	{ s32i	a4, a12, 168; ae_cvt48a32	aed0, a4; ae_addsq56s	aed2, aed2, aed31; nop }
    1594:	0eace17005290330c304413f08017cff 	{ add	a7, a12, a15; movi	a3, 0; nop; ae_max64	aed1, aed1, aed2 }
    15a4:	116182                                    	s32i	a8, a1, 68
    15a7:	220760c008c5b08e                  	{ ae_s32m.i	aed1, a8, 0; nop }

000015af <voiced_decision+0xb3>:
    15af:	1d07204010c3617e                  	{ ae_l32m.iu	aed2, a7, 4; ae_mov	aed3, aed0 }
    15b7:	0eacc56008c244d0c50081381001041f 	{ ae_lt64	b0, aed1, aed2; addi	a4, a4, 1; nop; nop }
    15c7:	f4c782                                    	addi	a8, a7, -12
    15ca:	360076                                    	bf	b0, 1604 <voiced_decision+0x108>
    15cd:	178276                                    	loop	a2, 15e8 <voiced_decision+0xec>
    15d0:	230720c100c5718e                  	{ ae_l32m.iu	aed4, a8, 4; nop }
    15d8:	0ead057b08e40cd0c48081381c01034f 	{ ae_max64	aed3, aed4, aed3; nop; nop; nop }

000015e8 <voiced_decision+0xec>:
    15e8:	0ead057b08c40cd0c40081381801042f 	{ ae_eq64	b0, aed2, aed3; nop; nop; nop }
    15f8:	838d                                    	ae_sext16	a8, a3
    15fa:	908860                                    	addx2	a8, a8, a6
    15fd:	030076                                    	bf	b0, 1604 <voiced_decision+0x108>
    1600:	331b                                    	addi.n	a3, a3, 1
    1602:	684d                                    	ae_s16i.n	a4, a8, 0

00001604 <voiced_decision+0x108>:
    1604:	a79457                                    	bne	a4, a5, 15af <voiced_decision+0xb3>
    1607:	230b                                    	addi.n	a2, a3, -1
    1609:	28c152                                    	addi	a5, a1, 40
    160c:	827d                                    	ae_sext16	a7, a2
    160e:	0a5122                                    	s16i	a2, a1, 20
    1611:	10c122                                    	addi	a2, a1, 16
    1614:	030c                                    	movi.n	a3, 0
    1616:	0217e6                                    	bgei	a7, 1, 161c <voiced_decision+0x120>
    1619:	004906                                    	j	1741 <voiced_decision+0x245>
    161c:	130c                                    	movi.n	a3, 1
    161e:	940c                                    	movi.n	a4, 9
    1620:	113310                                    	slli	a3, a3, 15
    1623:	114480                                    	slli	a4, a4, 8
    1626:	200763410462068e                  	{ addi	a8, a6, 4; ae_cvt48a32	aed2, a3 }
    162e:	050634c30080018e                  	{ s32i	a8, a1, 48; ae_movda32x2	aed0, a4, a4 }
    1636:	090c                                    	movi.n	a9, 0
    1638:	0606894000f68f1e                  	{ ae_s64.i	aed0, a1, 24; addx2	a8, a9, a6 }
    1640:	0304004010e0931e                  	{ ae_s64.i	aed2, a1, 32; movi	a3, 0 }
    1648:	001546                                    	j	16a1 <voiced_decision+0x1a5>

0000164b <voiced_decision+0x14f>:
    164b:	fad981                                    	l32r	a8, 1b0 (1bf0 <Xfrac_num_pd_td32>)
    164e:	adea                                    	add.n	a10, a13, a14
    1650:	9c0c                                    	movi.n	a12, 9
    1652:	0008e0                                    	callx8	a8
    1655:	240581430c8201ce                  	{ l32i	a12, a1, 52; ae_l64.i	aed2, a1, 32 }
    165d:	a1a9                                    	s32i.n	a10, a1, 40
    165f:	2803a14000c3705e                  	{ ae_l32m.i	aed0, a5, 0; l32i	a9, a1, 56 }
    1667:	0ead017b09e40cf0c30001381c0131ef 	{ l32i	a14, a1, 60; nop; nop; ae_roundsp16q48x2sym	aed0, aed0, aed0 }
    1677:	220740c004c5102e                  	{ ae_s16m.l.i	aed0, a2, 0; nop }
    167f:	0891b2                                    	l16si	a11, a1, 16
    1682:	838d                                    	ae_sext16	a8, a3
    1684:	a09890                                    	addx4	a9, a8, a9
    1687:	9088e0                                    	addx2	a8, a8, a14
    168a:	a0dbc0                                    	addx4	a13, a11, a12
    168d:	09a9                                    	s32i.n	a10, a9, 0
    168f:	451df2                                    	l16ui	a15, a13, 138
    1692:	331b                                    	addi.n	a3, a3, 1
    1694:	049d                                    	mov.n	a9, a4
    1696:	68fd                                    	ae_s16i.n	a15, a8, 0
    1698:	908960                                    	addx2	a8, a9, a6
    169b:	022477                                    	blt	a4, a7, 16a1 <voiced_decision+0x1a5>
    169e:	002846                                    	j	1743 <voiced_decision+0x247>
    16a1:	491b                                    	addi.n	a4, a9, 1
    16a3:	28bd                                    	ae_l16si.n	a11, a8, 0
    16a5:	1c07014614e0246e                  	{ addx2	a10, a4, a6; ae_mov	aed0, aed2 }
    16ad:	aca0e2                                    	movi	a14, 172
    16b0:	2a8d                                    	ae_l16si.n	a8, a10, 0
    16b2:	c0a8b0                                    	sub	a10, a8, a11
    16b5:	a0dbc0                                    	addx4	a13, a11, a12
    16b8:	8f1a66                                    	bnei	a10, 1, 164b <voiced_decision+0x14f>
    16bb:	c1a8                                    	l32i.n	a10, a1, 48
    16bd:	33a477                                    	bge	a4, a7, 16f4 <voiced_decision+0x1f8>
    16c0:	08dd                                    	mov.n	a13, a8
    16c2:	c0b740                                    	sub	a11, a7, a4
    16c5:	8ded                                    	ae_sext16	a14, a13
    16c7:	1c0701460ce029ae                  	{ addx2	a9, a9, a10; ae_mov	aed0, aed2 }
    16cf:	04ad                                    	mov.n	a10, a4
    16d1:	1f8b76                                    	loop	a11, 16f4 <voiced_decision+0x1f8>
    16d4:	298d                                    	ae_l16si.n	a8, a9, 0
    16d6:	992b                                    	addi.n	a9, a9, 2
    16d8:	c0b8e0                                    	sub	a11, a8, a14
    16db:	08dd                                    	mov.n	a13, a8
    16dd:	0a4d                                    	mov.n	a4, a10
    16df:	111b66                                    	bnei	a11, 1, 16f4 <voiced_decision+0x1f8>
    16e2:	0ea4e4000d23aad0c500801711a0477f 	{ or	a4, a7, a7; addi	a10, a10, 1; ae_addsq56s	aed0, aed0, aed2; nop }
    16f2:	8ded                                    	ae_sext16	a14, a13

000016f4 <voiced_decision+0x1f8>:
    16f4:	2205814604e3346e                  	{ addx2	a8, a4, a6; ae_l64.i	aed3, a1, 24 }
    16fc:	1402e4400c80608e                  	{ ae_l16m.i	aed1, a8, 0; addi	a4, a4, 1 }
    1704:	0ead257b0d040cd0c48081381c01811f 	{ ae_add24s	aed1, aed1, aed3; nop; nop; nop }
    1714:	0ead257b0d240cd0c400813c0801196f 	{ ae_cvtq56p32s.h	aed1, aed1; nop; nop; nop }
    1724:	0ead057b08e40cd0c58081380401601f 	{ ae_subsq56s	aed0, aed1, aed0; nop; nop; nop }
    1734:	220760c000c5b05e                  	{ ae_s32m.i	aed0, a5, 0; nop }
    173c:	a1a8                                    	l32i.n	a10, a1, 40
    173e:	ffc746                                    	j	165f <voiced_decision+0x163>

00001741 <voiced_decision+0x245>:
    1741:	040c                                    	movi.n	a4, 0
    1743:	908760                                    	addx2	a8, a7, a6
    1746:	4e9477                                    	bne	a4, a7, 1798 <voiced_decision+0x29c>
    1749:	28bd                                    	ae_l16si.n	a11, a8, 0
    174b:	aca0f2                                    	movi	a15, 172
    174e:	fa9861                                    	l32r	a6, 1b0 (1bf0 <Xfrac_num_pd_td32>)
    1751:	4cfa                                    	add.n	a4, a12, a15
    1753:	9c0c                                    	movi.n	a12, 9
    1755:	a0ab40                                    	addx4	a10, a11, a4
    1758:	0006e0                                    	callx8	a6
    175b:	e1e8                                    	l32i.n	a14, a1, 56
    175d:	a1a9                                    	s32i.n	a10, a1, 40
    175f:	3e03a14000c3705e                  	{ ae_l32m.i	aed0, a5, 0; l32i	a15, a1, 60 }
    1767:	0ead017b09e40cf0c30001380c0131cf 	{ l32i	a12, a1, 52; nop; nop; ae_roundsp16q48x2sym	aed0, aed0, aed0 }
    1777:	220740c004c5102e                  	{ ae_s16m.l.i	aed0, a2, 0; nop }
    177f:	089122                                    	l16si	a2, a1, 16
    1782:	836d                                    	ae_sext16	a6, a3
    1784:	a056e0                                    	addx4	a5, a6, a14
    1787:	331b                                    	addi.n	a3, a3, 1
    1789:	a02240                                    	addx4	a2, a2, a4
    178c:	05a9                                    	s32i.n	a10, a5, 0
    178e:	dec222                                    	addi	a2, a2, -34
    1791:	9046f0                                    	addx2	a4, a6, a15
    1794:	422d                                    	ae_l16ui.n	a2, a2, 0
    1796:	642d                                    	ae_s16i.n	a2, a4, 0
    1798:	836d                                    	ae_sext16	a6, a3
    179a:	f47c                                    	movi.n	a4, -1
    179c:	0216e6                                    	bgei	a6, 1, 17a2 <voiced_decision+0x2a6>
    179f:	0095c6                                    	j	19fa <voiced_decision+0x4fe>
    17a2:	102142                                    	l32i	a4, a1, 64
    17a5:	120c                                    	movi.n	a2, 1
    17a7:	c169                                    	s32i.n	a6, a1, 48
    17a9:	038676                                    	loop	a6, 17b0 <voiced_decision+0x2b4>
    17ac:	642d                                    	ae_s16i.n	a2, a4, 0
    17ae:	442b                                    	addi.n	a4, a4, 2

000017b0 <voiced_decision+0x2b4>:
    17b0:	05dc62                                    	addmi	a6, a12, 0x500
    17b3:	150c                                    	movi.n	a5, 1
    17b5:	0c9622                                    	l16si	a2, a6, 24
    17b8:	3e0c                                    	movi.n	a14, 3
    17ba:	117500                                    	slli	a7, a5, 16
    17bd:	fa7d91                                    	l32r	a9, 1b4 (2ccccd <_end+0x2b3bd1>)
    17c0:	210767420400c2fe                  	{ l32r	a15, 1c8 (5ccccd <_end+0x5b3bd1>); ae_cvt48a32	aed0, a7 }
    17c8:	f40c                                    	movi.n	a4, 15
    17ca:	0212e6                                    	bgei	a2, 1, 17d0 <voiced_decision+0x2d4>
    17cd:	008e86                                    	j	1a0b <voiced_decision+0x50f>
    17d0:	01eeb0                                    	slli	a14, a14, 21
    17d3:	d158                                    	l32i.n	a5, a1, 52
    17d5:	080619c30481119e                  	{ l32i	a9, a1, 48; ae_movda32x2	aed1, a9, a9 }
    17dd:	0f063ec500a8041e                  	{ slli	a4, a4, 15; ae_movda32x2	aed8, a14, a14 }
    17e5:	0e061fc3148611ee                  	{ l32i	a14, a1, 56; ae_movda32x2	aed6, a15, a15 }
    17ed:	040614c4048701fe                  	{ l32i	a15, a1, 64; ae_movda32x2	aed7, a4, a4 }
    17f5:	110064c11c08c0ae                  	{ l32r	a10, 1b8 (466666 <_end+0x44d56a>); ae_sel16i	aed8, aed8, aed8, 1 }
    17fd:	6ca542                                    	movi	a4, 0x56c
    1800:	0b067ac11402cfbe                  	{ l32r	a11, 1bc (533333 <_end+0x51a237>); ae_movda32x2	aed2, a10, a10 }
    1808:	0b067bc11403dece                  	{ l32r	a12, 1c0 (5851ec <_end+0x56c0f0>); ae_movda32x2	aed3, a11, a11 }
    1810:	0d067cc11404cdde                  	{ l32r	a13, 1c4 (5ae148 <_end+0x59504c>); ae_movda32x2	aed4, a12, a12 }
    1818:	0c067dc30465317e                  	{ addi	a7, a1, 44; ae_movda32x2	aed5, a13, a13 }
    1820:	922d                                    	ae_zext16	a2, a2
    1822:	0e0063c40467158e                  	{ addi	a8, a5, 16; ae_sel16i	aed7, aed7, aed7, 1 }
    182a:	990b                                    	addi.n	a9, a9, -1
    182c:	0a0c                                    	movi.n	a10, 0
    182e:	1b0c                                    	movi.n	a11, 1
    1830:	80d540                                    	add	a13, a5, a4
    1833:	42a5c2                                    	movi	a12, 0x542

00001836 <voiced_decision+0x33a>:
    1836:	3402a2c208df60ee                  	{ ae_l32m.i	aed9, a14, 0; addi	a4, a2, -1 }
    183e:	228333492d2754ae                  	{ sub	a5, a4, a10; nop; ae_mulf48q32sp16s.l	aed9, aed9, aed7 }
    1846:	0eacc56800e4e2d0c48081380401059f 	{ ae_max64	aed9, aed9, aed0; l32i	a2, a14, 0; nop; nop }
    1856:	2eaa47                                    	bge	a10, a4, 1888 <voiced_decision+0x38c>
    1859:	0c06ca4210f9198e                  	{ ae_neg64	aed10, aed9; addx4	a4, a10, a13 }
    1861:	238576                                    	loop	a5, 1888 <voiced_decision+0x38c>
    1864:	0458                                    	l32i.n	a5, a4, 0
    1866:	c05520                                    	sub	a5, a5, a2
    1869:	b159                                    	s32i.n	a5, a1, 44
    186b:	0402a44218c1607e                  	{ ae_l32m.i	aed11, a7, 0; addi	a4, a4, 4 }
    1873:	0ead057b08c40cd0c500813a180104af 	{ ae_lt64	b0, aed10, aed11; nop; nop; nop }
    1883:	011076                                    	bt	b0, 1888 <voiced_decision+0x38c>
    1886:	aa1b                                    	addi.n	a10, a10, 1

00001888 <voiced_decision+0x38c>:
    1888:	d158                                    	l32i.n	a5, a1, 52
    188a:	a04a50                                    	addx4	a4, a10, a5
    188d:	05d442                                    	addmi	a4, a4, 0x500
    1890:	1b2442                                    	l32i	a4, a4, 108
    1893:	c02420                                    	sub	a2, a4, a2
    1896:	602120                                    	abs	a2, a2
    1899:	b129                                    	s32i.n	a2, a1, 44
    189b:	2406aa4210d4707e                  	{ ae_l32m.i	aed10, a7, 0; addx2	a2, a10, a5 }
    18a3:	0eacc566c0c2f4d0c400813a0c0104af 	{ ae_le64	b0, aed10, aed9; addi	a4, a15, -40; nop; nop }
    18b3:	710076                                    	bf	b0, 1928 <voiced_decision+0x42c>
    18b6:	2c0472421c8c608e                  	{ ae_l16m.i	aed11, a8, 0; ae_l16m.x	aed12, a2, a12 }
    18be:	2282285c256cf04e                  	{ ae_l16m.i	aed31, a4, 0; nop; ae_mulf32s.hh	aed11, aed11, aed12 }
    18c6:	0eace570052014d0c580813d1801c96f 	{ ae_cvtq56p32s.h	aed12, aed31; movi	a4, 1; nop; nop }
    18d6:	0e6d017b08fc0c4b0781813a180107bf 	{ ae_round24x2f48ssym	aed11, aed11, aed11; nop; nop; ae_srai64	aed12, aed12, 1 }
    18e6:	2283486b342bb13e                  	{ nop; nop; ae_mulf32s.hh	aed13, aed1, aed11 }
    18ee:	0ead057b08c40cd0c500813b080104cf 	{ ae_lt64	b0, aed12, aed13; nop; nop; nop }
    18fe:	020076                                    	bf	b0, 1904 <voiced_decision+0x408>
    1901:	002786                                    	j	19a3 <voiced_decision+0x4a7>
    1904:	2281a86e204b524e                  	{ addmi	a4, a2, 0x500; nop; ae_mulf32s.hh	aed13, aed2, aed11 }
    190c:	0ead057b08c40cd0c500813b080104cf 	{ ae_lt64	b0, aed12, aed13; nop; nop; nop }
    191c:	100076                                    	bf	b0, 1930 <voiced_decision+0x434>
    191f:	0d9422                                    	l16si	a2, a4, 26
    1922:	fbc222                                    	addi	a2, a2, -5
    1925:	001dc6                                    	j	19a0 <voiced_decision+0x4a4>

00001928 <voiced_decision+0x42c>:
    1928:	6fbd                                    	ae_s16i.n	a11, a15, 0
    192a:	084956                                    	bnez	a9, 19b2 <voiced_decision+0x4b6>
    192d:	003686                                    	j	1a0b <voiced_decision+0x50f>

00001930 <voiced_decision+0x434>:
    1930:	2281a86e206b524e                  	{ addmi	a4, a2, 0x500; nop; ae_mulf32s.hh	aed13, aed3, aed11 }
    1938:	0ead057b08c40cd0c500813b080104cf 	{ ae_lt64	b0, aed12, aed13; nop; nop; nop }
    1948:	080076                                    	bf	b0, 1954 <voiced_decision+0x458>
    194b:	0d9422                                    	l16si	a2, a4, 26
    194e:	fcc222                                    	addi	a2, a2, -4
    1951:	0012c6                                    	j	19a0 <voiced_decision+0x4a4>

00001954 <voiced_decision+0x458>:
    1954:	2281a86e208b524e                  	{ addmi	a4, a2, 0x500; nop; ae_mulf32s.hh	aed13, aed4, aed11 }
    195c:	0e9cc68828c225d0c5008e4b092804cf 	{ ae_lt64	b0, aed12, aed13; addmi	a5, a2, 0x500; ae_mulf48q32sp16s.l	aed9, aed9, aed8; nop }
    196c:	080076                                    	bf	b0, 1978 <voiced_decision+0x47c>
    196f:	0d9422                                    	l16si	a2, a4, 26
    1972:	fec222                                    	addi	a2, a2, -2
    1975:	0009c6                                    	j	19a0 <voiced_decision+0x4a4>

00001978 <voiced_decision+0x47c>:
    1978:	0e9cc62828c224d0c4008f6a0cab14af 	{ ae_le64	b1, aed10, aed9; addmi	a4, a2, 0x500; ae_mulf32s.hh	aed13, aed5, aed11; nop }
    1988:	0ead057b08c40cd0c500813b080104cf 	{ ae_lt64	b0, aed12, aed13; nop; nop; nop }
    1998:	280076                                    	bf	b0, 19c4 <voiced_decision+0x4c8>
    199b:	0d9422                                    	l16si	a2, a4, 26
    199e:	220b                                    	addi.n	a2, a2, -1
    19a0:	5342b0                                    	max	a4, a2, a11
    19a3:	6f4d                                    	ae_s16i.n	a4, a15, 0
    19a5:	0c9622                                    	l16si	a2, a6, 24
    19a8:	220b                                    	addi.n	a2, a2, -1
    19aa:	722a20                                    	salt	a2, a10, a2
    19ad:	aa2a                                    	add.n	a10, a10, a2
    19af:	058916                                    	beqz	a9, 1a0b <voiced_decision+0x50f>
    19b2:	0c9622                                    	l16si	a2, a6, 24
    19b5:	ff2b                                    	addi.n	a15, a15, 2
    19b7:	ee4b                                    	addi.n	a14, a14, 4
    19b9:	990b                                    	addi.n	a9, a9, -1
    19bb:	ff9dc6                                    	j	1836 <voiced_decision+0x33a>

000019be <voiced_decision+0x4c2>:
    19be:	00000000                                 ......

000019c4 <voiced_decision+0x4c8>:
    19c4:	2281a85e20cb524e                  	{ addmi	a4, a2, 0x500; nop; ae_mulf32s.hh	aed11, aed6, aed11 }
    19cc:	0ead057b08c40cd0c500813a180104cf 	{ ae_lt64	b0, aed12, aed11; nop; nop; nop }
    19dc:	0a0076                                    	bf	b0, 19ea <voiced_decision+0x4ee>
    19df:	0d1442                                    	l16ui	a4, a4, 26
    19e2:	ffef46                                    	j	19a3 <voiced_decision+0x4a7>

000019e5 <voiced_decision+0x4e9>:
    19e5:	00000000                                 .....

000019ea <voiced_decision+0x4ee>:
    19ea:	0d9522                                    	l16si	a2, a5, 26
    19ed:	041c                                    	movi.n	a4, 16
    19ef:	ab0176                                    	bf	b1, 199e <voiced_decision+0x4a2>
    19f2:	221b                                    	addi.n	a2, a2, 1
    19f4:	434240                                    	min	a4, a2, a4
    19f7:	ffea06                                    	j	19a3 <voiced_decision+0x4a7>

000019fa <voiced_decision+0x4fe>:
    19fa:	05dc22                                    	addmi	a2, a12, 0x500
    19fd:	0144f0                                    	slli	a4, a4, 17
    1a00:	200724430081023e                  	{ s16i	a3, a2, 24; ae_cvt48a32	aed1, a4 }
    1a08:	006246                                    	j	1b95 <voiced_decision+0x699>

00001a0b <voiced_decision+0x50f>:
    1a0b:	d148                                    	l32i.n	a4, a1, 52
    1a0d:	1aa522                                    	movi	a2, 0x51a
    1a10:	c158                                    	l32i.n	a5, a1, 48
    1a12:	1021b2                                    	l32i	a11, a1, 64
    1a15:	742a                                    	add.n	a7, a4, a2
    1a17:	f9be21                                    	l32r	a2, 110 (14b88 <xt_memcpy>)
    1a1a:	07ad                                    	mov.n	a10, a7
    1a1c:	05cd                                    	mov.n	a12, a5
    1a1e:	0002e0                                    	callx8	a2
    1a21:	112182                                    	l32i	a8, a1, 68
    1a24:	190c                                    	movi.n	a9, 1
    1a26:	1d0c                                    	movi.n	a13, 1
    1a28:	f1f8                                    	l32i.n	a15, a1, 60
    1a2a:	0c5632                                    	s16i	a3, a6, 24
    1a2d:	f27c                                    	movi.n	a2, -1
    1a2f:	113920                                    	slli	a3, a9, 14
    1a32:	8fa392                                    	movi	a9, 0x38f
    1a35:	0a04234000c0708e                  	{ ae_l32m.i	aed0, a8, 0; movi	a11, 3 }
    1a3d:	0e6ce17005391e498600013804018d0f 	{ slli	a8, a13, 16; movi	a14, 1; nop; ae_srai64	aed6, aed0, 1 }
    1a4d:	2f06824204a0f33e                  	{ ae_cvtp24a16x2.ll	aed8, a3, a3; slli	a2, a2, 17 }
    1a55:	f9dda1                                    	l32r	a10, 1cc (c148 <beam1_mid_band+0x164>)
    1a58:	7fd992                                    	addmi	a9, a9, 0x7f00
    1a5b:	2107284510a20b0e                  	{ slli	a6, a11, 16; ae_cvt48a32	aed2, a8 }
    1a63:	110024c200a80efe                  	{ slli	a8, a14, 17; ae_sel16i	aed8, aed8, aed8, 1 }
    1a6b:	2007224700e1e44e                  	{ or	a12, a4, a4; ae_cvt48a32	aed1, a2 }
    1a73:	20076a430463412e                  	{ addi	a2, a1, 76; ae_cvt48a32	aed3, a10 }
    1a7b:	200746400085093e                  	{ movi	a3, 9; ae_cvt48a32	aed5, a6 }
    1a83:	056d                                    	mov.n	a6, a5
    1a85:	200769471464ef4e                  	{ addi	a4, a15, -2; ae_cvt48a32	aed4, a9 }
    1a8d:	2107284318e7647e                  	{ nop; ae_cvt48a32	aed7, a8 }
    1a95:	fc8576                                    	loop	a5, 1b95 <voiced_decision+0x699>
    1a98:	100414400089175e                  	{ l16si	a5, a7, 0; ae_l16m.iu	aed9, a4, 2 }
    1aa0:	000003ee288000fcb40383043860b5cf 	{ blti.w15	a5, 3, 1af9 <voiced_decision+0x5fd>; ae_cvtq56p32s.h	aed9, aed9; nop }
    1ab0:	02a537                                    	bge	a5, a3, 1ab6 <voiced_decision+0x5ba>
    1ab3:	002406                                    	j	1b47 <voiced_decision+0x64b>
    1ab6:	0ead257b09440cd0c58081380c01820f 	{ ae_slaisq56s	aed10, aed0, 2; nop; nop; nop }
    1ac6:	0ead057b08e40cd0c5808138040166af 	{ ae_subsq56s	aed10, aed10, aed0; nop; nop; nop }
    1ad6:	0ead057b08c40cd0c500813a080104af 	{ ae_lt64	b0, aed10, aed9; nop; nop; nop }
    1ae6:	600076                                    	bf	b0, 1b4a <voiced_decision+0x64e>
    1ae9:	0ea5041b08e40cd0c500812801a100af 	{ j	1b8d <voiced_decision+0x691>; nop; ae_addsq56s	aed1, aed1, aed5; nop }

00001af9 <voiced_decision+0x5fd>:
    1af9:	3a1566                                    	bnei	a5, 1, 1b37 <voiced_decision+0x63b>
    1afc:	0ead257b09440cd0c58081380c01810f 	{ ae_slaisq56s	aed10, aed0, 1; nop; nop; nop }
    1b0c:	1e8354533408b13e                  	{ nop; nop; ae_mulaf48q32sp16s.l	aed10, aed0, aed8 }
    1b14:	0ead057b08c40cd0c500813a1001049f 	{ ae_lt64	b0, aed9, aed10; nop; nop; nop }
    1b24:	0f0076                                    	bf	b0, 1b37 <voiced_decision+0x63b>
    1b27:	0ea5043b08e40cd0c50081180101026f 	{ j	1b8d <voiced_decision+0x691>; nop; ae_subsq56s	aed1, aed1, aed3; nop }

00001b37 <voiced_decision+0x63b>:
    1b37:	0ea5043b08e40cd0c50081200101025f 	{ j	1b8d <voiced_decision+0x691>; nop; ae_subsq56s	aed1, aed1, aed4; nop }

00001b47 <voiced_decision+0x64b>:
    1b47:	3265a6                                    	blti	a5, 6, 1b7d <voiced_decision+0x681>
    1b4a:	0ead057b08e40cd0c48081380001c66f 	{ ae_addsq56s	aed10, aed6, aed0; nop; nop; nop }
    1b5a:	0ead057b08c40cd0c500813a080104af 	{ ae_lt64	b0, aed10, aed9; nop; nop; nop }
    1b6a:	0f0076                                    	bf	b0, 1b7d <voiced_decision+0x681>
    1b6d:	0ea5041b08e40cd0c500813819a1001f 	{ j	1b8d <voiced_decision+0x691>; nop; ae_addsq56s	aed1, aed1, aed7; nop }

00001b7d <voiced_decision+0x681>:
    1b7d:	0ead057b08e40cd0c48081381001c11f 	{ ae_addsq56s	aed1, aed1, aed2; nop; nop; nop }
    1b8d:	2602e74008c0b02e                  	{ ae_s32m.i	aed1, a2, 0; addi	a7, a7, 2 }

00001b95 <voiced_decision+0x699>:
    1b95:	0eace1682c6ac5f0c20021380401512f 	{ addi	a2, a1, 20; addmi	a5, a12, 0x500; nop; ae_roundsp16q48x2sym	aed0, aed1, aed1 }
    1ba5:	0204484004c0102e                  	{ ae_s16m.l.i	aed0, a2, 0; movi	a3, 8 }
    1bad:	0a9122                                    	l16si	a2, a1, 20
    1bb0:	312592                                    	l32i	a9, a5, 196
    1bb3:	847c                                    	movi.n	a4, -8
    1bb5:	0a1c                                    	movi.n	a10, 16
    1bb7:	f986d1                                    	l32r	a13, 1d0 (7ffffffe <_end+0x7ffe6f02>)
    1bba:	0b0c                                    	movi.n	a11, 0
    1bbc:	432230                                    	min	a2, a2, a3
    1bbf:	6ca5e2                                    	movi	a14, 0x56c
    1bc2:	532240                                    	max	a2, a2, a4
    1bc5:	11f6f0                                    	slli	a15, a6, 1
    1bc8:	292a                                    	add.n	a2, a9, a2
    1bca:	f95131                                    	l32r	a3, 110 (14b88 <xt_memcpy>)
    1bcd:	4322a0                                    	min	a2, a2, a10
    1bd0:	acea                                    	add.n	a10, a12, a14
    1bd2:	5322b0                                    	max	a2, a2, a11
    1bd5:	e1b8                                    	l32i.n	a11, a1, 56
    1bd7:	316522                                    	s32i	a2, a5, 196
    1bda:	0c5d                                    	mov.n	a5, a12
    1bdc:	10cfd0                                    	and	a12, a15, a13
    1bdf:	42a522                                    	movi	a2, 0x542
    1be2:	0003e0                                    	callx8	a3
    1be5:	f1b8                                    	l32i.n	a11, a1, 60
    1be7:	a52a                                    	add.n	a10, a5, a2
    1be9:	06cd                                    	mov.n	a12, a6
    1beb:	0003e0                                    	callx8	a3
    1bee:	f01d                                    	retw.n

00001bf0 <Xfrac_num_pd_td32>:
    1bf0:	008136                                    	entry	a1, 64
    1bf3:	f97861                                    	l32r	a6, 1d4 (5a820000 <_end+0x5a806f04>)
    1bf6:	18c152                                    	addi	a5, a1, 24
    1bf9:	0105424010e006ee                  	{ ae_movda32	aed2, a6; ae_l32m.i	aed0, a2, 0 }
    1c01:	1604204008c0612e                  	{ ae_l32m.i	aed1, a2, 4; movi	a6, 16 }
    1c09:	0ea4c43919e22fd0c500800d0d01113f 	{ s32i	a3, a1, 20; ae_l32m.i	aed3, a2, -4; ae_subsq56s	aed1, aed0, aed1; nop }
    1c19:	0ea4e430012012d0c48080180d00361f 	{ ae_trunca32x2f64s	aed4, aed1, aed1, a6; movi	a2, 1; ae_subsq56s	aed0, aed0, aed3; nop }
    1c29:	2282c7ff2082161e                  	{ ae_s32m.i	aed1, a1, 24; nop; ae_mulf32r.ll	aed31, aed4, aed2 }
    1c31:	012240                                    	slli	a2, a2, 28
    1c34:	2603e14000c1b71e                  	{ ae_s32m.i	aed0, a1, 28; l32i	a7, a1, 24 }
    1c3c:	0ead456b08c074d0c500813f1801040f 	{ ae_lt64	b0, aed0, aed31; ae_movda32	aed1, a7; nop; nop }
    1c4c:	250076                                    	bf	b0, 1c75 <Xfrac_num_pd_td32+0x85>
    1c4f:	300762451402c22e                  	{ l32r	a2, 1d8 (c28f0000 <_end+0xc28d6f04>); ae_movda32	aed2, a2 }
    1c57:	2283470b3422b13e                  	{ nop; nop; ae_mulf32r.ll	aed1, aed1, aed2 }
    1c5f:	0ead057b08c40cd0c50081380801040f 	{ ae_lt64	b0, aed0, aed1; nop; nop; nop }
    1c6f:	380076                                    	bf	b0, 1cab <Xfrac_num_pd_td32+0xbb>
    1c72:	0046c6                                    	j	1d91 <Xfrac_num_pd_td32+0x1a1>

00001c75 <Xfrac_num_pd_td32+0x85>:
    1c75:	000505400040460e                  	{ ae_trunca32x2f64s	aed1, aed0, aed0, a6; ae_l32m.i	aed0, a5, 0 }
    1c7d:	228227122022017e                  	{ movi	a7, 1; nop; ae_mulf32r.ll	aed2, aed1, aed2 }
    1c85:	0ead456528c672d0c50081380001042f 	{ ae_lt64	b0, aed2, aed0; slli	a5, a7, 30; nop; nop }
    1c95:	0304404010e005ee                  	{ ae_movda32	aed2, a5; movi	a2, 0 }
    1c9d:	2283470b3422b13e                  	{ nop; nop; ae_mulf32r.ll	aed1, aed1, aed2 }
    1ca5:	380076                                    	bf	b0, 1ce1 <Xfrac_num_pd_td32+0xf1>
    1ca8:	003946                                    	j	1d91 <Xfrac_num_pd_td32+0x1a1>

00001cab <Xfrac_num_pd_td32+0xbb>:
    1cab:	0e6d017b09f50c488600213f1c01402f 	{ l32r	a2, 1dc (cccd0000 <_end+0xcccb6f04>); nop; nop; ae_slaisq56s	aed2, aed1, 1 }
    1cbb:	0ead043b09e50cd0c40080171562425f 	{ l32r	a5, 1e4 (f3330000 <_end+0xf3316f04>); nop; ae_sat48s	aed2, aed2; nop }
    1ccb:	0ead057b08c40cd0c50081381001040f 	{ ae_lt64	b0, aed0, aed2; nop; nop; nop }
    1cdb:	280076                                    	bf	b0, 1d07 <Xfrac_num_pd_td32+0x117>
    1cde:	002bc6                                    	j	1d91 <Xfrac_num_pd_td32+0x1a1>

00001ce1 <Xfrac_num_pd_td32+0xf1>:
    1ce1:	0e6d017b08dc0c48870021380001041f 	{ ae_lt64	b0, aed1, aed0; nop; nop; ae_srai64	aed2, aed1, 1 }
    1cf1:	0e6d017b09fd0c504600213f1c01312f 	{ l32r	a2, 1e8 (ccd0000 <_end+0xccb6f04>); nop; nop; ae_srai64	aed1, aed1, 2 }
    1d01:	380076                                    	bf	b0, 1d3d <Xfrac_num_pd_td32+0x14d>
    1d04:	002246                                    	j	1d91 <Xfrac_num_pd_td32+0x1a1>

00001d07 <Xfrac_num_pd_td32+0x117>:
    1d07:	0e6d017b09f50c504600213f0c01322f 	{ l32r	a2, 1e0 (e6660000 <_end+0xe6646f04>); nop; nop; ae_slaisq56s	aed1, aed1, 2 }
    1d17:	0ead243b0d440cd0c50080080d61015f 	{ nop; nop; ae_sat48s	aed1, aed1; nop }
    1d27:	0ead057b08c40cd0c50081380801040f 	{ ae_lt64	b0, aed0, aed1; nop; nop; nop }
    1d37:	280076                                    	bf	b0, 1d63 <Xfrac_num_pd_td32+0x173>
    1d3a:	0014c6                                    	j	1d91 <Xfrac_num_pd_td32+0x1a1>

00001d3d <Xfrac_num_pd_td32+0x14d>:
    1d3d:	0ead043b09e50cd0c40080171562232f 	{ l32r	a2, 1ec (199a0000 <_end+0x19986f04>); nop; ae_sat48s	aed2, aed2; nop }
    1d4d:	0ead057b08c40cd0c50081380001042f 	{ ae_lt64	b0, aed2, aed0; nop; nop; nop }
    1d5d:	070076                                    	bf	b0, 1d68 <Xfrac_num_pd_td32+0x178>
    1d60:	000b46                                    	j	1d91 <Xfrac_num_pd_td32+0x1a1>

00001d63 <Xfrac_num_pd_td32+0x173>:
    1d63:	052d                                    	mov.n	a2, a5
    1d65:	000a06                                    	j	1d91 <Xfrac_num_pd_td32+0x1a1>

00001d68 <Xfrac_num_pd_td32+0x178>:
    1d68:	0ead043b09e50cd0c400800f0561222f 	{ l32r	a2, 1f0 (33330000 <_end+0x33316f04>); nop; ae_sat48s	aed1, aed1; nop }
    1d78:	0ead057b08c40cd0c50081380001041f 	{ ae_lt64	b0, aed1, aed0; nop; nop; nop }
    1d88:	020076                                    	bf	b0, 1d8e <Xfrac_num_pd_td32+0x19e>
    1d8b:	000086                                    	j	1d91 <Xfrac_num_pd_td32+0x1a1>

00001d8e <Xfrac_num_pd_td32+0x19e>:
    1d8e:	f91921                                    	l32r	a2, 1f4 (3d710000 <_end+0x3d6f6f04>)
    1d91:	d43a                                    	add.n	a13, a4, a3
    1d93:	4129                                    	s32i.n	a2, a1, 16
    1d95:	2006ad4000c4641e                  	{ ae_l32m.i	aed0, a1, 16; slli	a2, a13, 16 }
    1d9d:	0e6d057b09fc0c780700013d0c01112f 	{ s32i	a2, a1, 20; nop; nop; ae_srai64	aed0, aed0, 15 }
    1dad:	220720c008c5751e                  	{ ae_l32m.i	aed1, a1, 20; nop }
    1db5:	0ead257b0d040cd0c58081380401c01f 	{ ae_add64	aed0, aed1, aed0; nop; nop; nop }
    1dc5:	0ead217b0d440cd0c50061380c01015f 	{ nop; nop; nop; ae_roundsq32f48sym	aed0, aed0 }
    1dd5:	220760c000c5b41e                  	{ ae_s32m.i	aed0, a1, 16; nop }
    1ddd:	4128                                    	l32i.n	a2, a1, 16
    1ddf:	f01d                                    	retw.n

00001de1 <Xfrac_num_pd_td32+0x1f1>:
    1de1:	000000                                        ...

00001de4 <Pitch_by_Corel>:
    1de4:	010136                                    	entry	a1, 128
    1de7:	08a582                                    	movi	a8, 0x508
    1dea:	18a552                                    	movi	a5, 0x518
    1ded:	838a                                    	add.n	a8, a3, a8
    1def:	735a                                    	add.n	a7, a3, a5
    1df1:	05d3d2                                    	addmi	a13, a3, 0x500
    1df4:	440c                                    	movi.n	a4, 4
    1df6:	f3f680                                    	wur.ae_cbegin0	a8
    1df9:	f3f770                                    	wur.ae_cend0	a7
    1dfc:	0df8                                    	l32i.n	a15, a13, 0
    1dfe:	aca062                                    	movi	a6, 172
    1e01:	536a                                    	add.n	a5, a3, a6
    1e03:	f8fde1                                    	l32r	a14, 1f8 (4ccccd00 <_end+0x4ccb3c04>)
    1e06:	116132                                    	s32i	a3, a1, 68
    1e09:	0b0c                                    	movi.n	a11, 0
    1e0b:	34050f4004800f7e                  	{ l32i	a7, a15, 0; ae_l32m.xc	aed0, a15, a4 }
    1e13:	34050f4004800f8e                  	{ l32i	a8, a15, 0; ae_l32m.xc	aed0, a15, a4 }
    1e1b:	34050f4004800f9e                  	{ l32i	a9, a15, 0; ae_l32m.xc	aed0, a15, a4 }
    1e23:	34050f4004800fae                  	{ l32i	a10, a15, 0; ae_l32m.xc	aed0, a15, a4 }
    1e2b:	1d04204000c084fe                  	{ ae_l32m.xc	aed0, a15, a4; movi	a12, 16 }
    1e33:	0df9                                    	s32i.n	a15, a13, 0
    1e35:	0c0760470461e5fe                  	{ addi	a15, a5, -4; ae_movi	aed1, 0 }
    1e3d:	040c                                    	movi.n	a4, 0
    1e3f:	30076e401460623e                  	{ addi	a3, a2, 98; ae_movda32	aed0, a14 }
    1e47:	50c262                                    	addi	a6, a2, 80
    1e4a:	0d0c                                    	movi.n	a13, 0
    1e4c:	050c                                    	movi.n	a5, 0
    1e4e:	e1b9                                    	s32i.n	a11, a1, 56
    1e50:	1ea0b2                                    	movi	a11, 30

00001e53 <Pitch_by_Corel+0x6f>:
    1e53:	03ed                                    	mov.n	a14, a3
    1e55:	202660                                    	or	a2, a6, a6
    1e58:	11045e4100a23b0e                  	{ loop	a11, 1e80 <Pitch_by_Corel+0x9c>; ae_l16m.iu	aed2, a14, 2 }
    1e60:	230760c01c85712e                  	{ ae_l16m.iu	aed3, a2, 2; nop }
    1e68:	1e82290c284321ee                  	{ ae_l16m.iu	aed2, a14, 2; nop; ae_mulaf32s.hh	aed1, aed2, aed3 }
    1e70:	0ead3d7b0d5c0cc8c50421380c01015f 	{ nop; nop; nop; ae_satq56s	aed1, aed1 }

00001e80 <Pitch_by_Corel+0x9c>:
    1e80:	0e6ce1791d3b8068468021381801807f 	{ ae_l32m.i	aed2, a7, 0; ae_l32m.i	aed3, a8, 0; nop; ae_srai64	aed1, aed1, 5 }
    1e90:	0eace179fd2ba0d0c484413a18018c9f 	{ ae_l32m.i	aed30, a9, 0; ae_l32m.i	aed31, a10, 0; nop; ae_roundsq32f48asym	aed1, aed1 }
    1ea0:	0ea4e407f1025ed0c48081100da27c1f 	{ ae_trunca32x2f64s	aed1, aed1, aed1, a12; addi	a14, a5, -2; ae_addsq56s	aed2, aed1, aed2; nop }
    1eb0:	0e24e007f462660c022b42180da2055f 	{ addi	a5, a5, 1; addi	a6, a6, -2; ae_addsq56s	aed2, aed2, aed3; ae_mulf32r.ll	aed1, aed1, aed0 }
    1ec0:	0ead057b08e40cd0c480813f1001c22f 	{ ae_addsq56s	aed2, aed2, aed30; nop; nop; nop }
    1ed0:	0ead017b08ec0cd0c484413f1801c22f 	{ ae_addsq56s	aed2, aed2, aed31; nop; nop; ae_roundsq32f48asym	aed1, aed1 }
    1ee0:	0ead257b09040cd0c58081380c01922f 	{ ae_slaisq56s	aed2, aed2, 6; nop; nop; nop }
    1ef0:	0ead217b0d540cd0c50841380c01015f 	{ nop; nop; nop; ae_roundsq32f48asym	aed2, aed2 }
    1f00:	230760c010c5b1fe                  	{ ae_s32m.iu	aed2, a15, 4; nop }
    1f08:	0f28                                    	l32i.n	a2, a15, 0
    1f0a:	9eed                                    	ae_zext16	a14, a14
    1f0c:	5322d0                                    	max	a2, a2, a13
    1f0f:	0f29                                    	s32i.n	a2, a15, 0
    1f11:	72b420                                    	salt	a11, a4, a2
    1f14:	2a06e4c008d8b07e                  	{ ae_s32m.i	aed1, a7, 0; moveqz	a2, a4, a11 }
    1f1c:	2a04264008c0708e                  	{ ae_l32m.i	aed1, a8, 0; movi	a11, 38 }
    1f24:	3a069e4008525c1e                  	{ ae_trunca32x2f64s	aed1, aed1, aed1, a12; saltu	a11, a14, a11 }
    1f2c:	22832708242042be                  	{ movnez	a4, a2, a11; nop; ae_mulf32r.ll	aed1, aed1, aed0 }
    1f34:	0eace1701468aed0c40441380401177f 	{ addi	a7, a7, 4; movi	a14, 42; nop; ae_roundsq32f48asym	aed1, aed1 }
    1f44:	0802e84008c1a08e                  	{ ae_s32m.i	aed1, a8, 0; addi	a8, a8, 4 }
    1f4c:	220720c008c5709e                  	{ ae_l32m.i	aed1, a9, 0; nop }
    1f54:	220700c008455c1e                  	{ ae_trunca32x2f64s	aed1, aed1, aed1, a12; nop }
    1f5c:	2282270a20201ebe                  	{ movi	a11, 30; nop; ae_mulf32r.ll	aed1, aed1, aed0 }
    1f64:	0ead217b0d4c0cd0c50441380c01015f 	{ nop; nop; nop; ae_roundsq32f48asym	aed1, aed1 }
    1f74:	0802e94008c1b09e                  	{ ae_s32m.i	aed1, a9, 0; addi	a9, a9, 4 }
    1f7c:	220720c008c570ae                  	{ ae_l32m.i	aed1, a10, 0; nop }
    1f84:	220700c008455c1e                  	{ ae_trunca32x2f64s	aed1, aed1, aed1, a12; nop }
    1f8c:	2283470b3420b13e                  	{ nop; nop; ae_mulf32r.ll	aed1, aed1, aed0 }
    1f94:	0ead217b0d4c0cd0c50441380c01015f 	{ nop; nop; nop; ae_roundsq32f48asym	aed1, aed1 }
    1fa4:	0a02ea4008c1a0ae                  	{ ae_s32m.i	aed1, a10, 0; addi	a10, a10, 4 }
    1fac:	0d07401e1fc105ee                  	{ bne.w15	a5, a14, 1e53 <Pitch_by_Corel+0x6f>; ae_movi	aed1, 0 }
    1fb4:	112192                                    	l32i	a9, a1, 68
    1fb7:	54a152                                    	movi	a5, 0x154
    1fba:	38c122                                    	addi	a2, a1, 56
    1fbd:	e149                                    	s32i.n	a4, a1, 56
    1fbf:	1604204008c0602e                  	{ ae_l32m.i	aed1, a2, 0; movi	a6, 16 }
    1fc7:	220720c000c5b95e                  	{ ae_l32m.xu	aed0, a5, a9; nop }
    1fcf:	0ea5043b09e50cd0c40081061501833f 	{ l32r	a3, 1fc (2ccccccd <_end+0x2ccb3bd1>); nop; ae_subsq56s	aed1, aed1, aed0; nop }
    1fdf:	0eacc42821e393d0c48080090161238f 	{ ae_movda32	aed2, a3; addmi	a3, a9, 0x400; ae_sat48s	aed1, aed1; nop }
    1fef:	2e038340084f461e                  	{ ae_trunca32x2f64s	aed1, aed1, aed1, a6; l32i	a14, a3, 248 }
    1ff7:	0e9ce630152088d0c4008b000022b87f 	{ movi	a7, 0x158; movi	a8, 40; ae_mulaf32ra.hh	aed0, aed1, aed2; nop }
    2007:	0ead243b0d250cd0c50080070960797f 	{ add	a7, a9, a7; nop; ae_sat48s	aed0, aed0; nop }
    2017:	2403794000c2b05e                  	{ ae_s32m.i	aed0, a5, 0; l16ui	a5, a9, 20 }
    201f:	5529f2                                    	l32i	a15, a9, 0x154
    2022:	436ef0                                    	min	a6, a14, a15
    2025:	3e6362                                    	s32i	a6, a3, 248
    2028:	0275f6                                    	bgeui	a5, 7, 202e <Pitch_by_Corel+0x24a>
    202b:	002446                                    	j	20c0 <Pitch_by_Corel+0x2dc>
    202e:	d169                                    	s32i.n	a6, a1, 52
    2030:	f8a452                                    	movi	a5, 0x4f8
    2033:	068876                                    	loop	a8, 203d <Pitch_by_Corel+0x259>
    2036:	0788                                    	l32i.n	a8, a7, 0
    2038:	774b                                    	addi.n	a7, a7, 4
    203a:	436860                                    	min	a6, a8, a6
    203d:	d169                                    	s32i.n	a6, a1, 52
    203f:	50a262                                    	movi	a6, 0x250
    2042:	080566c50461317e                  	{ addi	a7, a1, 52; ae_l32m.xu	aed1, a6, a9 }
    204a:	1e04284000c5707e                  	{ ae_l32m.i	aed0, a7, 0; movi	a15, 0x158 }
    2052:	0ea4c430f9e18bd0c40081061501638f 	{ l32r	a8, 200 (6ccccccd <_end+0x6ccb3bd1>); movi	a11, 0x1f8; ae_subsq56s	aed1, aed1, aed0; nop }
    2062:	0ead442639e39fd0c48080090161288f 	{ ae_movda32	aed2, a8; add	a7, a9, a15; ae_sat48s	aed1, aed1; nop }
    2072:	0a1c                                    	movi.n	a10, 16
    2074:	89ba                                    	add.n	a8, a9, a11
    2076:	1c02994008414a1e                  	{ ae_trunca32x2f64s	aed1, aed1, aed1, a10; addmi	a12, a9, 0x500 }
    207e:	f3f670                                    	wur.ae_cbegin0	a7
    2081:	f3f780                                    	wur.ae_cend0	a8
    2084:	0e9cc639f9e695d0c5008b000c220cdf 	{ l32i	a13, a12, 4; ae_l32m.x	aed31, a9, a5; ae_mulaf32ra.hh	aed0, aed1, aed2; nop }
    2094:	ff7c                                    	movi.n	a15, -1
    2096:	0ead243b0d240cd0c4008000096000ef 	{ movi	a14, 4; nop; ae_sat48s	aed0, aed0; nop }
    20a6:	2e06f1c000d5b06e                  	{ ae_s32m.i	aed0, a6, 0; srli	a6, a15, 1 }
    20ae:	230760c718c5dede                  	{ ae_s32m.xc	aed31, a13, a14; nop }
    20b6:	3e6362                                    	s32i	a6, a3, 248
    20b9:	030c                                    	movi.n	a3, 0
    20bb:	1cd9                                    	s32i.n	a13, a12, 4
    20bd:	000046                                    	j	20c2 <Pitch_by_Corel+0x2de>

000020c0 <Pitch_by_Corel+0x2dc>:
    20c0:	351b                                    	addi.n	a3, a5, 1
    20c2:	f85051                                    	l32r	a5, 204 (5999999a <_end+0x5998089e>)
    20c5:	300705450482897e                  	{ l32i	a7, a9, 0x250; ae_movda32	aed2, a5 }
    20cd:	1504444000e917ee                  	{ ae_movda32	aed0, a7; movi	a5, 0x254 }
    20d5:	1c07414008e0006e                  	{ ae_mov	aed1, aed0; ae_mov	aed0, aed2 }
    20dd:	0a5932                                    	s16i	a3, a9, 20
    20e0:	0e9ce63a052359d0c5008e140801031f 	{ ae_s64.i	aed0, a1, 8; ae_l32m.xu	aed0, a5, a9; ae_mulf32r.ll	aed2, aed0, aed1; nop }
    20f0:	180c                                    	movi.n	a8, 1
    20f2:	f84531                                    	l32r	a3, 208 (73333333 <_end+0x7331a237>)
    20f5:	0eacc57128c00ad0c50081381001040f 	{ ae_lt64	b0, aed0, aed2; movi	a10, 0x250; nop; nop }
    2105:	f84161                                    	l32r	a6, 20c (70a3d70a <_end+0x70a2460e>)
    2108:	01b840                                    	slli	a11, a8, 28
    210b:	310726421882014e                  	{ s32i	a4, a1, 44; ae_movda32	aed2, a6 }
    2113:	671076                                    	bt	b0, 217e <Pitch_by_Corel+0x39a>
    2116:	2282270a202210ee                  	{ movi	a14, 16; nop; ae_mulf32r.ll	aed1, aed1, aed2 }
    211e:	f83c31                                    	l32r	a3, 210 (7e147ae1 <_end+0x7e12e9e5>)
    2121:	40c1f2                                    	addi	a15, a1, 64
    2124:	0ead456b10c0b4d0c50081380801040f 	{ ae_lt64	b0, aed0, aed1; ae_movda32	aed2, a11; nop; nop }
    2134:	020076                                    	bf	b0, 213a <Pitch_by_Corel+0x356>
    2137:	0010c6                                    	j	217e <Pitch_by_Corel+0x39a>

0000213a <Pitch_by_Corel+0x356>:
    213a:	220720c008c59a9e                  	{ ae_l32m.x	aed1, a9, a10; nop }
    2142:	220700c00845de1e                  	{ ae_trunca32x2f64s	aed3, aed1, aed1, a14; nop }
    214a:	0e9d063b09e50cd0c4008b0e0462313f 	{ l32r	a3, 210 (7e147ae1 <_end+0x7e12e9e5>); nop; ae_mulaf32ra.hh	aed1, aed3, aed2; nop }
    215a:	0ead243b0d440cd0c50080080d61015f 	{ nop; nop; ae_sat48s	aed1, aed1; nop }
    216a:	3007634008c1a0fe                  	{ ae_s32m.i	aed1, a15, 0; ae_movda32	aed1, a3 }
    2172:	102172                                    	l32i	a7, a1, 64
    2175:	022747                                    	blt	a7, a4, 217b <Pitch_by_Corel+0x397>
    2178:	013886                                    	j	265e <Pitch_by_Corel+0x87a>
    217b:	f82631                                    	l32r	a3, 214 (7fbe76c9 <_end+0x7fbce5cd>)
    217e:	310723421881017e                  	{ s32i	a7, a1, 44; ae_movda32	aed1, a3 }
    2186:	2cc132                                    	addi	a3, a1, 44
    2189:	0d1c                                    	movi.n	a13, 16
    218b:	38042f4010c3603e                  	{ ae_l32m.i	aed2, a3, 0; movi	a8, 255 }
    2193:	0ea4e429fd2288d0c4008010010001ef 	{ movi	a14, 1; addmi	a8, a8, 0x3f00; ae_subsq56s	aed0, aed0, aed2; nop }
    21a3:	0ead442599e6e2d0c50080050d60517f 	{ s32i	a7, a1, 84; slli	a3, a14, 14; ae_sat48s	aed0, aed0; nop }
    21b3:	220700c000451d0e                  	{ ae_trunca32x2f64s	aed0, aed0, aed0, a13; nop }
    21bb:	0e9d063b09e50cd0c4808b110001130f 	{ ae_cvt48a32	aed1, a3; nop; ae_mulaf32ra.hh	aed2, aed0, aed1; nop }
    21cb:	0ead243b0d440cd0c50080100d60015f 	{ nop; nop; ae_sat48s	aed0, aed2; nop }
    21db:	0ead217b0d440cd0c57c61380c01015f 	{ nop; nop; nop; ae_roundsq32f48sym	aed31, aed0 }
    21eb:	220760c718c5b05e                  	{ ae_s32m.i	aed31, a5, 0; nop }
    21f3:	05f8                                    	l32i.n	a15, a5, 0
    21f5:	0128f7                                    	blt	a8, a15, 21fa <Pitch_by_Corel+0x416>
    21f8:	0539                                    	s32i.n	a3, a5, 0
    21fa:	0eacc17239e93730c200013d0401cc3f 	{ l32r	a3, fc (190f0 <p_ecnr_mem>); movi	a7, 0x473; nop; ae_max64	aed0, aed1, aed0 }
    220a:	1177b0                                    	slli	a7, a7, 5
    220d:	04bd                                    	mov.n	a11, a4
    220f:	0403834000e09b1e                  	{ ae_s64.i	aed0, a1, 16; l32i	a5, a3, 0 }
    2217:	a57a                                    	add.n	a10, a5, a7
    2219:	f7ff51                                    	l32r	a5, 218 (14fc <voiced_decision>)
    221c:	0005e0                                    	callx8	a5
    221f:	0358                                    	l32i.n	a5, a3, 0
    2221:	0b0c                                    	movi.n	a11, 0
    2223:	4c1c                                    	movi.n	a12, 20
    2225:	32d552                                    	addmi	a5, a5, 0x3200
    2228:	ff25a2                                    	l32i	a10, a5, 0x3fc
    222b:	f7b751                                    	l32r	a5, 108 (14b74 <xt_memset>)
    222e:	0005e0                                    	callx8	a5
    2231:	0338                                    	l32i.n	a3, a3, 0
    2233:	1121d2                                    	l32i	a13, a1, 68
    2236:	f8a152                                    	movi	a5, 0x1f8
    2239:	a82c                                    	movi.n	a8, 42
    223b:	32d332                                    	addmi	a3, a3, 0x3200
    223e:	ff2372                                    	l32i	a7, a3, 0x3fc
    2241:	3d5a                                    	add.n	a3, a13, a5
    2243:	28c752                                    	addi	a5, a7, 40
    2246:	078876                                    	loop	a8, 2251 <Pitch_by_Corel+0x46d>
    2249:	238d                                    	ae_l16si.n	a8, a3, 0
    224b:	332b                                    	addi.n	a3, a3, 2
    224d:	658d                                    	ae_s16i.n	a8, a5, 0
    224f:	552b                                    	addi.n	a5, a5, 2

00002251 <Pitch_by_Corel+0x46d>:
    2251:	310764471c00a2ee                  	{ l32r	a14, 21c (3999999a <_end+0x3998089e>); ae_movda32	aed0, a4 }
    2259:	30070e4404830d8e                  	{ l32i	a8, a13, 64; ae_movda32	aed3, a14 }
    2261:	f7e951                                    	l32r	a5, 208 (73333333 <_end+0x7331a237>)
    2264:	aca032                                    	movi	a3, 172
    2267:	3f044c4008e716ee                  	{ ae_movda32	aed1, a6; movi	a15, 0x1fc }
    226f:	2702c74010ea05ee                  	{ ae_movda32	aed2, a5; addi	a6, a7, 42 }
    2277:	290c                                    	movi.n	a9, 2
    2279:	8a2c                                    	movi.n	a10, 40
    227b:	5c0c                                    	movi.n	a12, 5
    227d:	0b1c                                    	movi.n	a11, 16
    227f:	228207182403418e                  	{ s32i	a8, a1, 80; nop; ae_mulf32r.ll	aed3, aed0, aed3 }
    2287:	040c                                    	movi.n	a4, 0
    2289:	ed3a                                    	add.n	a14, a13, a3
    228b:	6d89                                    	s32i.n	a8, a13, 24
    228d:	5dfa                                    	add.n	a5, a13, a15
    228f:	0efd                                    	mov.n	a15, a14
    2291:	220581400069082e                  	{ j	22bd <Pitch_by_Corel+0x4d9>; ae_l64.i	aed9, a1, 16 }

00002299 <Pitch_by_Corel+0x4b5>:
    2299:	050176                                    	bf	b1, 22a2 <Pitch_by_Corel+0x4be>
    229c:	fec332                                    	addi	a3, a3, -2
    229f:	538f30                                    	max	a8, a15, a3
    22a2:	883d                                    	ae_sext16	a3, a8
    22a4:	4f1c                                    	movi.n	a15, 20
    22a6:	441b                                    	addi.n	a4, a4, 1
    22a8:	43f3f0                                    	min	a15, a3, a15
    22ab:	65fd                                    	ae_s16i.n	a15, a5, 0
    22ad:	991b                                    	addi.n	a9, a9, 1
    22af:	ee4b                                    	addi.n	a14, a14, 4
    22b1:	552b                                    	addi.n	a5, a5, 2
    22b3:	0efd                                    	mov.n	a15, a14
    22b5:	662b                                    	addi.n	a6, a6, 2
    22b7:	0299a7                                    	bne	a9, a10, 22bd <Pitch_by_Corel+0x4d9>
    22ba:	004086                                    	j	23c0 <Pitch_by_Corel+0x5dc>
    22bd:	080c                                    	movi.n	a8, 0
    22bf:	453d                                    	ae_l16ui.n	a3, a5, 0
    22c1:	068c76                                    	loop	a12, 22cb <Pitch_by_Corel+0x4e7>
    22c4:	0fd8                                    	l32i.n	a13, a15, 0
    22c6:	ff4b                                    	addi.n	a15, a15, 4
    22c8:	538d80                                    	max	a8, a13, a8

000022cb <Pitch_by_Corel+0x4e7>:
    22cb:	1121d2                                    	l32i	a13, a1, 68
    22ce:	0e046041048070de                  	{ ae_l16m.i	aed4, a13, 0; movi	a15, 0 }
    22d6:	080022c100c562ee                  	{ ae_l32m.i	aed4, a14, 8; ae_sel16i	aed5, aed4, aed4, 1 }
    22de:	0e9d269b09240cd0c5808f2a0d25834f 	{ ae_srai64	aed6, aed4, 3; nop; ae_mulf48q32sp16u.l	aed5, aed9, aed5; nop }
    22ee:	0ead057b08c40cd0c50081391001045f 	{ ae_lt64	b0, aed5, aed6; nop; nop; nop }
    22fe:	a90076                                    	bf	b0, 22ab <Pitch_by_Corel+0x4c7>
    2301:	2ed8                                    	l32i.n	a13, a14, 8
    2303:	a49d87                                    	bne	a13, a8, 22ab <Pitch_by_Corel+0x4c7>
    2306:	56dd                                    	ae_l16ui.n	a13, a6, 2
    2308:	038d                                    	mov.n	a8, a3
    230a:	0ddc                                    	bnez.n	a13, 231e <Pitch_by_Corel+0x53a>
    230c:	268d                                    	ae_l16si.n	a8, a6, 0
    230e:	0d0c                                    	movi.n	a13, 0
    2310:	0a18e6                                    	bgei	a8, 1, 231e <Pitch_by_Corel+0x53a>
    2313:	029682                                    	l16si	a8, a6, 4
    2316:	72dd80                                    	salt	a13, a13, a8
    2319:	9338d0                                    	movnez	a3, a8, a13
    231c:	038d                                    	mov.n	a8, a3

0000231e <Pitch_by_Corel+0x53a>:
    231e:	112132                                    	l32i	a3, a1, 68
    2321:	000562410c86623e                  	{ ae_l16m.i	aed5, a3, 4; ae_l32m.i	aed6, a2, 0 }
    2329:	0e9507bb08c40cd0c5009d2900a5243f 	{ ae_lt64	b2, aed3, aed4; nop; ae_sel16i.n	aed5, aed5, aed5, 1; nop }
    2339:	2283543b34c5b13e                  	{ nop; nop; ae_mulf48q32sp16u.l	aed7, aed6, aed5 }
    2341:	943d                                    	ae_zext16	a3, a4
    2343:	0e9d468698c237d0c5008f3100e5147f 	{ ae_lt64	b1, aed7, aed4; addx2	a3, a3, a7; ae_mulf48q32sp16u.l	aed6, aed7, aed5; nop }
    2353:	0c04004114405b6e                  	{ ae_trunca32x2f64s	aed5, aed6, aed6, a11; movi	a13, 0 }
    235b:	2283474334a1b13e                  	{ nop; nop; ae_mulf32r.ll	aed8, aed5, aed1 }
    2363:	0e9d063b08c40cd0c5008e2900a2048f 	{ ae_lt64	b0, aed8, aed4; nop; ae_mulf32r.ll	aed5, aed5, aed2; nop }
    2373:	0b0076                                    	bf	b0, 2382 <Pitch_by_Corel+0x59e>
    2376:	639d                                    	ae_s16i.n	a9, a3, 0
    2378:	0f0c                                    	movi.n	a15, 0
    237a:	150176                                    	bf	b1, 2393 <Pitch_by_Corel+0x5af>
    237d:	882b                                    	addi.n	a8, a8, 2
    237f:	ffc7c6                                    	j	22a2 <Pitch_by_Corel+0x4be>

00002382 <Pitch_by_Corel+0x59e>:
    2382:	021276                                    	bt	b2, 2388 <Pitch_by_Corel+0x5a4>
    2385:	ffc886                                    	j	22ab <Pitch_by_Corel+0x4c7>
    2388:	883d                                    	ae_sext16	a3, a8
    238a:	fbc332                                    	addi	a3, a3, -5
    238d:	53fd30                                    	max	a15, a13, a3
    2390:	ffc5c6                                    	j	22ab <Pitch_by_Corel+0x4c7>

00002393 <Pitch_by_Corel+0x5af>:
    2393:	0ead057b08c40cd0c50081390001046f 	{ ae_lt64	b0, aed6, aed4; nop; nop; nop }
    23a3:	0ead057b08c40cd0c50081390801144f 	{ ae_lt64	b1, aed4, aed5; nop; nop; nop }
    23b3:	883d                                    	ae_sext16	a3, a8
    23b5:	021076                                    	bt	b0, 23bb <Pitch_by_Corel+0x5d7>
    23b8:	ffb746                                    	j	2299 <Pitch_by_Corel+0x4b5>
    23bb:	881b                                    	addi.n	a8, a8, 1
    23bd:	ffb846                                    	j	22a2 <Pitch_by_Corel+0x4be>

000023c0 <Pitch_by_Corel+0x5dc>:
    23c0:	1121c2                                    	l32i	a12, a1, 68
    23c3:	051c                                    	movi.n	a5, 16
    23c5:	f79631                                    	l32r	a3, 220 (5d70a3d7 <_end+0x5d6f12db>)
    23c8:	f87c                                    	movi.n	a8, -1
    23ca:	0b02c14018ef13ee                  	{ ae_movda32	aed3, a3; addi	a11, a1, 60 }
    23d2:	0e02e1400c9770ce                  	{ ae_l16m.i	aed1, a12, 0; addi	a15, a1, 92 }
    23da:	020060c0148171ce                  	{ ae_l16m.i	aed2, a12, 2; ae_sel16i	aed1, aed1, aed1, 1 }
    23e2:	228114083121422e                  	{ ae_sel16i	aed2, aed2, aed2, 1; nop; ae_mulf48q32sp16u.l	aed1, aed9, aed1 }
    23ea:	228374083022003e                  	{ ae_mov	aed2, aed3; nop; ae_mulf48q32sp16u.l	aed1, aed1, aed2 }
    23f2:	080270c00c5ac51e                  	{ ae_trunca32x2f64s	aed31, aed1, aed1, a5; extui	a8, a8, 0, 16 }
    23fa:	2282c71723e210be                  	{ ae_s32m.i	aed1, a11, 0; nop; ae_mulf32r.ll	aed2, aed31, aed2 }
    2402:	0ead217b0c740cd0c50841390c012c3f 	{ l16ui	a3, a12, 18; nop; nop; ae_roundsq32f48asym	aed2, aed2 }
    2412:	220760c010c5b0fe                  	{ ae_s32m.i	aed2, a15, 0; nop }
    241a:	028847                                    	bany	a8, a4, 2420 <Pitch_by_Corel+0x63c>
    241d:	006706                                    	j	25bd <Pitch_by_Corel+0x7d9>
    2420:	2206b34018c8702e                  	{ ae_l32m.i	aed3, a2, 0; or	a2, a3, a3 }
    2428:	0ead257b09040cd0c580813a0c01d03f 	{ ae_srai64	aed3, aed3, 4; nop; nop; nop }
    2438:	0ead057b08c40cd0c40081381c01041f 	{ ae_le64	b0, aed1, aed3; nop; nop; nop }
    2448:	0ead057b08c40cd0c40081381c01142f 	{ ae_le64	b1, aed2, aed3; nop; nop; nop }
    2458:	0b1076                                    	bt	b0, 2467 <Pitch_by_Corel+0x683>
    245b:	021176                                    	bt	b1, 2461 <Pitch_by_Corel+0x67d>
    245e:	005786                                    	j	25c0 <Pitch_by_Corel+0x7dc>
    2461:	0222f6                                    	bgeui	a2, 2, 2467 <Pitch_by_Corel+0x683>
    2464:	005606                                    	j	25c0 <Pitch_by_Corel+0x7dc>
    2467:	2105a144108211be                  	{ s32i	a11, a1, 72; ae_l64.i	aed2, a1, 8 }
    246f:	228067063c026dfe                  	{ l32r	a15, 224 (66666666 <_end+0x6664d56a>); nop; ae_mulf32r.ll	aed0, aed0, aed2 }
    2477:	04dc22                                    	addmi	a2, a12, 0x400
    247a:	c1a8                                    	l32i.n	a10, a1, 48
    247c:	f1e8                                    	l32i.n	a14, a1, 60
    247e:	30070f450c8101be                  	{ l32i	a11, a1, 84; ae_movda32	aed1, a15 }
    2486:	0704004000e0831e                  	{ ae_s64.i	aed0, a1, 32; movi	a6, 0 }
    248e:	1d072045108011ee                  	{ s32i	a14, a1, 88; ae_mov	aed0, aed1 }
    2496:	94dd                                    	ae_zext16	a13, a4
    2498:	136122                                    	s32i	a2, a1, 76
    249b:	2e040c4000e28f1e                  	{ ae_s64.i	aed0, a1, 24; movi	a14, 172 }
    24a3:	272d                                    	ae_l16si.n	a2, a7, 0
    24a5:	240581441ce122ce                  	{ addx2	a3, a2, a12; ae_l64.i	aed1, a1, 32 }
    24ad:	a042c0                                    	addx4	a4, a2, a12
    24b0:	fc1332                                    	l16ui	a3, a3, 0x1f8
    24b3:	92fd                                    	ae_zext16	a15, a2
    24b5:	0d5d                                    	mov.n	a5, a13
    24b7:	0263f6                                    	bgeui	a3, 6, 24bd <Pitch_by_Corel+0x6d9>
    24ba:	003646                                    	j	2597 <Pitch_by_Corel+0x7b3>
    24bd:	220720c000c5be4e                  	{ ae_l32m.xu	aed0, a4, a14; nop }
    24c5:	0ead057b08c40cd0c50081380001041f 	{ ae_lt64	b0, aed1, aed0; nop; nop; nop }
    24d5:	021076                                    	bt	b0, 24db <Pitch_by_Corel+0x6f7>
    24d8:	002ec6                                    	j	2597 <Pitch_by_Corel+0x7b3>
    24db:	4139                                    	s32i.n	a3, a1, 16
    24dd:	9c0c                                    	movi.n	a12, 9
    24df:	f73431                                    	l32r	a3, 1b0 (1bf0 <Xfrac_num_pd_td32>)
    24e2:	04ad                                    	mov.n	a10, a4
    24e4:	02bd                                    	mov.n	a11, a2
    24e6:	21f9                                    	s32i.n	a15, a1, 8
    24e8:	0003e0                                    	callx8	a3
    24eb:	1421b2                                    	l32i	a11, a1, 80
    24ee:	bf0c                                    	movi.n	a15, 11
    24f0:	f74e81                                    	l32r	a8, 228 (14001 <TX_ECNR_PARA_init+0xfd>)
    24f3:	132192                                    	l32i	a9, a1, 76
    24f6:	ad0c                                    	movi.n	a13, 10
    24f8:	c03ba0                                    	sub	a3, a11, a10
    24fb:	0cfb16                                    	beqz	a11, 25ce <Pitch_by_Corel+0x7ea>
    24fe:	1121c2                                    	l32i	a12, a1, 68
    2501:	02a387                                    	bge	a3, a8, 2507 <Pitch_by_Corel+0x723>
    2504:	003186                                    	j	25ce <Pitch_by_Corel+0x7ea>
    2507:	7e1932                                    	l16ui	a3, a9, 252
    250a:	830b                                    	addi.n	a8, a3, -1
    250c:	e31b                                    	addi.n	a14, a3, 1
    250e:	9098c0                                    	addx2	a9, a8, a12
    2511:	fc1992                                    	l16ui	a9, a9, 0x1f8
    2514:	0db9f7                                    	bgeu	a9, a15, 2525 <Pitch_by_Corel+0x741>
    2517:	909ec0                                    	addx2	a9, a14, a12
    251a:	fc1992                                    	l16ui	a9, a9, 0x1f8
    251d:	629d90                                    	saltu	a9, a13, a9
    2520:	933e90                                    	movnez	a3, a14, a9
    2523:	038d                                    	mov.n	a8, a3
    2525:	983d                                    	ae_zext16	a3, a8
    2527:	9083c0                                    	addx2	a8, a3, a12
    252a:	05dd                                    	mov.n	a13, a5
    252c:	fc1882                                    	l16ui	a8, a8, 0x1f8
    252f:	aca0e2                                    	movi	a14, 172
    2532:	4158                                    	l32i.n	a5, a1, 16
    2534:	a033c0                                    	addx4	a3, a3, a12
    2537:	02b8f7                                    	bgeu	a8, a15, 253d <Pitch_by_Corel+0x759>
    253a:	0024c6                                    	j	25d1 <Pitch_by_Corel+0x7ed>
    253d:	2b2392                                    	l32i	a9, a3, 172
    2540:	0448                                    	l32i.n	a4, a4, 0
    2542:	05fd                                    	mov.n	a15, a5
    2544:	02bd                                    	mov.n	a11, a2
    2546:	300704451480015e                  	{ l32i	a5, a1, 88; ae_movda32	aed0, a4 }
    254e:	2205a1041801349e                  	{ blt.w15	a4, a9, 2597 <Pitch_by_Corel+0x7b3>; ae_l64.i	aed1, a1, 24 }
    2556:	219540                                    	srai	a9, a4, 5
    2559:	02bd                                    	mov.n	a11, a2
    255b:	220007072001c95e                  	{ blt.w15	a9, a5, 2597 <Pitch_by_Corel+0x7b3>; nop; ae_mulf32r.ll	aed0, aed0, aed1 }
    2563:	02bd                                    	mov.n	a11, a2
    2565:	026f26                                    	beqi	a15, 6, 256b <Pitch_by_Corel+0x787>
    2568:	003dc6                                    	j	2663 <Pitch_by_Corel+0x87f>
    256b:	02a8f6                                    	bgeui	a8, 12, 2571 <Pitch_by_Corel+0x78d>
    256e:	003c46                                    	j	2663 <Pitch_by_Corel+0x87f>
    2571:	0ead217b0d250cd0c580413a1001fe3f 	{ ae_l32m.x	aed31, a3, a14; nop; nop; ae_roundsq32f48asym	aed0, aed0 }
    2581:	0ead057b08c40cd0c500813f1801040f 	{ ae_lt64	b0, aed0, aed31; nop; nop; nop }
    2591:	021076                                    	bt	b0, 2597 <Pitch_by_Corel+0x7b3>
    2594:	003886                                    	j	267a <Pitch_by_Corel+0x896>
    2597:	661b                                    	addi.n	a6, a6, 1
    2599:	772b                                    	addi.n	a7, a7, 2
    259b:	02b6d7                                    	bgeu	a6, a13, 25a1 <Pitch_by_Corel+0x7bd>
    259e:	ffc046                                    	j	24a3 <Pitch_by_Corel+0x6bf>
    25a1:	477d                                    	ae_l16ui.n	a7, a7, 0
    25a3:	b1b9                                    	s32i.n	a11, a1, 44
    25a5:	f87c                                    	movi.n	a8, -1
    25a7:	1421b2                                    	l32i	a11, a1, 80
    25aa:	c1a9                                    	s32i.n	a10, a1, 48
    25ac:	f48080                                    	extui	a8, a8, 0, 16
    25af:	872d                                    	ae_sext16	a2, a7
    25b1:	9022c0                                    	addx2	a2, a2, a12
    25b4:	fc12f2                                    	l16ui	a15, a2, 0x1f8
    25b7:	297ff6                                    	bgeui	a15, 7, 25e4 <Pitch_by_Corel+0x800>
    25ba:	003146                                    	j	2683 <Pitch_by_Corel+0x89f>

000025bd <Pitch_by_Corel+0x7d9>:
    25bd:	091c22                                    	l16ui	a2, a12, 18
    25c0:	04dc42                                    	addmi	a4, a12, 0x400
    25c3:	0cc256                                    	bnez	a2, 2693 <Pitch_by_Corel+0x8af>
    25c6:	030c                                    	movi.n	a3, 0
    25c8:	7e5432                                    	s16i	a3, a4, 252
    25cb:	003106                                    	j	2693 <Pitch_by_Corel+0x8af>

000025ce <Pitch_by_Corel+0x7ea>:
    25ce:	1121c2                                    	l32i	a12, a1, 68
    25d1:	b129                                    	s32i.n	a2, a1, 44
    25d3:	2178                                    	l32i.n	a7, a1, 8
    25d5:	41f8                                    	l32i.n	a15, a1, 16
    25d7:	c1a9                                    	s32i.n	a10, a1, 48
    25d9:	f87c                                    	movi.n	a8, -1
    25db:	f48080                                    	extui	a8, a8, 0, 16
    25de:	027ff6                                    	bgeui	a15, 7, 25e4 <Pitch_by_Corel+0x800>
    25e1:	002786                                    	j	2683 <Pitch_by_Corel+0x89f>
    25e4:	c04ba0                                    	sub	a4, a11, a10
    25e7:	530c                                    	movi.n	a3, 5
    25e9:	091c22                                    	l16ui	a2, a12, 18
    25ec:	113320                                    	slli	a3, a3, 14
    25ef:	604140                                    	abs	a4, a4
    25f2:	025172                                    	s16i	a7, a1, 4
    25f5:	30c152                                    	addi	a5, a1, 48
    25f8:	042347                                    	blt	a3, a4, 2600 <Pitch_by_Corel+0x81c>
    25fb:	221b                                    	addi.n	a2, a2, 1
    25fd:	001506                                    	j	2655 <Pitch_by_Corel+0x871>

00002600 <Pitch_by_Corel+0x81c>:
    2600:	4141a0                                    	srli	a4, a10, 1
    2603:	4632b6                                    	bltui	a2, 3, 264d <Pitch_by_Corel+0x869>
    2606:	c04b40                                    	sub	a4, a11, a4
    2609:	1221b2                                    	l32i	a11, a1, 72
    260c:	604140                                    	abs	a4, a4
    260f:	221b                                    	addi.n	a2, a2, 1
    2611:	382347                                    	blt	a3, a4, 264d <Pitch_by_Corel+0x869>
    2614:	0005254208800c2e                  	{ s16i	a2, a12, 18; ae_l32m.i	aed0, a5, 0 }
    261c:	0ead257b09040cd0c580813a0c01010f 	{ ae_srai64	aed0, aed0, 1; nop; nop; nop }
    262c:	0ead217b0d440cf0c30001380c01015f 	{ nop; nop; nop; ae_roundsp16q48x2sym	aed0, aed0, aed0 }
    263c:	220740c004c5121e                  	{ ae_s16m.l.i	aed0, a1, 4; nop }
    2644:	029132                                    	l16si	a3, a1, 4
    2647:	f7c372                                    	addi	a7, a3, -9
    264a:	001286                                    	j	2698 <Pitch_by_Corel+0x8b4>

0000264d <Pitch_by_Corel+0x869>:
    264d:	132132                                    	l32i	a3, a1, 76
    2650:	020c                                    	movi.n	a2, 0
    2652:	7e5322                                    	s16i	a2, a3, 252
    2655:	095c22                                    	s16i	a2, a12, 18
    2658:	1221b2                                    	l32i	a11, a1, 72
    265b:	000f06                                    	j	269b <Pitch_by_Corel+0x8b7>

0000265e <Pitch_by_Corel+0x87a>:
    265e:	047d                                    	mov.n	a7, a4
    2660:	fec886                                    	j	2186 <Pitch_by_Corel+0x3a2>

00002663 <Pitch_by_Corel+0x87f>:
    2663:	f87c                                    	movi.n	a8, -1
    2665:	1421b2                                    	l32i	a11, a1, 80
    2668:	b129                                    	s32i.n	a2, a1, 44
    266a:	2178                                    	l32i.n	a7, a1, 8
    266c:	f48080                                    	extui	a8, a8, 0, 16
    266f:	c1a9                                    	s32i.n	a10, a1, 48
    2671:	027fb6                                    	bltui	a15, 7, 2677 <Pitch_by_Corel+0x893>
    2674:	ffdb06                                    	j	25e4 <Pitch_by_Corel+0x800>
    2677:	000206                                    	j	2683 <Pitch_by_Corel+0x89f>

0000267a <Pitch_by_Corel+0x896>:
    267a:	f87c                                    	movi.n	a8, -1
    267c:	b129                                    	s32i.n	a2, a1, 44
    267e:	f48080                                    	extui	a8, a8, 0, 16
    2681:	c1a9                                    	s32i.n	a10, a1, 48
    2683:	091c22                                    	l16ui	a2, a12, 18
    2686:	1221b2                                    	l32i	a11, a1, 72
    2689:	132132                                    	l32i	a3, a1, 76
    268c:	040c                                    	movi.n	a4, 0
    268e:	12cc                                    	bnez.n	a2, 2693 <Pitch_by_Corel+0x8af>
    2690:	7e5342                                    	s16i	a4, a3, 252
    2693:	070c                                    	movi.n	a7, 0
    2695:	095c72                                    	s16i	a7, a12, 18
    2698:	025172                                    	s16i	a7, a1, 4
    269b:	04dc32                                    	addmi	a3, a12, 0x400
    269e:	020c                                    	movi.n	a2, 0
    26a0:	7e1342                                    	l16ui	a4, a3, 252
    26a3:	0a0c                                    	movi.n	a10, 0
    26a5:	f8a1f2                                    	movi	a15, 0x1f8
    26a8:	b92c                                    	movi.n	a9, 43
    26aa:	07dd                                    	mov.n	a13, a7
    26ac:	060c                                    	movi.n	a6, 0
    26ae:	050c                                    	movi.n	a5, 0
    26b0:	087456                                    	bnez	a4, 273b <Pitch_by_Corel+0x957>
    26b3:	7cfa                                    	add.n	a7, a12, a15
    26b5:	040c                                    	movi.n	a4, 0
    26b7:	6c59                                    	s32i.n	a5, a12, 24
    26b9:	0e8976                                    	loop	a9, 26cb <Pitch_by_Corel+0x8e7>
    26bc:	478d                                    	ae_l16ui.n	a8, a7, 0
    26be:	772b                                    	addi.n	a7, a7, 2
    26c0:	629680                                    	saltu	a9, a6, a8
    26c3:	736680                                    	maxu	a6, a6, a8
    26c6:	934590                                    	movnez	a4, a5, a9
    26c9:	551b                                    	addi.n	a5, a5, 1

000026cb <Pitch_by_Corel+0x8e7>:
    26cb:	f87c                                    	movi.n	a8, -1
    26cd:	0a0c                                    	movi.n	a10, 0
    26cf:	0d7d                                    	mov.n	a7, a13
    26d1:	f48080                                    	extui	a8, a8, 0, 16
    26d4:	051c                                    	movi.n	a5, 16
    26d6:	6146b6                                    	bltui	a6, 4, 273b <Pitch_by_Corel+0x957>
    26d9:	220720c000c570be                  	{ ae_l32m.i	aed0, a11, 0; nop }
    26e1:	f6d261                                    	l32r	a6, 22c (ccccccd <_end+0xccb3bd1>)
    26e4:	84bd                                    	ae_sext16	a11, a4
    26e6:	300706400041850e                  	{ ae_trunca32x2f64s	aed2, aed0, aed0, a5; ae_movda32	aed1, a6 }
    26ee:	0e9d66262d24bcd0c4008b000841544f 	{ movi	a4, 172; addx4	a5, a11, a12; ae_mulaf32ra.hh	aed0, aed2, aed1; nop }
    26fe:	220720c718c5945e                  	{ ae_l32m.x	aed31, a5, a4; nop }
    2706:	0ead243b09050cd0c58080020d6050ff 	{ ae_srai64	aed1, aed31, 4; nop; ae_sat48s	aed0, aed0; nop }
    2716:	0ead057b08c40cd0c50081380801040f 	{ ae_lt64	b0, aed0, aed1; nop; nop; nop }
    2726:	110076                                    	bf	b0, 273b <Pitch_by_Corel+0x957>
    2729:	a54a                                    	add.n	a10, a5, a4
    272b:	f6a141                                    	l32r	a4, 1b0 (1bf0 <Xfrac_num_pd_td32>)
    272e:	9c0c                                    	movi.n	a12, 9
    2730:	0004e0                                    	callx8	a4
    2733:	1121c2                                    	l32i	a12, a1, 68
    2736:	f87c                                    	movi.n	a8, -1
    2738:	f48080                                    	extui	a8, a8, 0, 16

0000273b <Pitch_by_Corel+0x957>:
    273b:	7ca9                                    	s32i.n	a10, a12, 28
    273d:	aca042                                    	movi	a4, 172
    2740:	7e5372                                    	s16i	a7, a3, 252
    2743:	130877                                    	bnone	a8, a7, 275a <Pitch_by_Corel+0x976>
    2746:	97bd                                    	ae_zext16	a11, a7
    2748:	f69a21                                    	l32r	a2, 1b0 (1bf0 <Xfrac_num_pd_td32>)
    274b:	a03bc0                                    	addx4	a3, a11, a12
    274e:	a34a                                    	add.n	a10, a3, a4
    2750:	9c0c                                    	movi.n	a12, 9
    2752:	0002e0                                    	callx8	a2
    2755:	1121c2                                    	l32i	a12, a1, 68
    2758:	0a2d                                    	mov.n	a2, a10
    275a:	106c22                                    	s32i	a2, a12, 64
    275d:	f01d                                    	retw.n

0000275f <Pitch_by_Corel+0x97b>:
	...

00002760 <PD_TD_prcs>:
    2760:	004136                                    	entry	a1, 32
    2763:	f66651                                    	l32r	a5, fc (190f0 <p_ecnr_mem>)
    2766:	2c3c                                    	movi.n	a12, 50
    2768:	f6b241                                    	l32r	a4, 230 (8ea4 <Voice_SWB_TX_Common_Prcs+0x1050>)
    276b:	0528                                    	l32i.n	a2, a5, 0
    276d:	36d232                                    	addmi	a3, a2, 0x3600
    2770:	b24a                                    	add.n	a11, a2, a4
    2772:	0368                                    	l32i.n	a6, a3, 0
    2774:	f66731                                    	l32r	a3, 110 (14b88 <xt_memcpy>)
    2777:	9cc622                                    	addi	a2, a6, -100
    277a:	02ad                                    	mov.n	a10, a2
    277c:	0003e0                                    	callx8	a3
    277f:	0578                                    	l32i.n	a7, a5, 0
    2781:	73a432                                    	movi	a3, 0x473
    2784:	f6ac41                                    	l32r	a4, 234 (1de4 <Pitch_by_Corel>)
    2787:	1133b0                                    	slli	a3, a3, 5
    278a:	02ad                                    	mov.n	a10, a2
    278c:	b73a                                    	add.n	a11, a7, a3
    278e:	0004e0                                    	callx8	a4
    2791:	0528                                    	l32i.n	a2, a5, 0
    2793:	049d                                    	mov.n	a9, a4
    2795:	f6a841                                    	l32r	a4, 238 (8e78 <Voice_SWB_TX_Common_Prcs+0x1024>)
    2798:	d8c6a2                                    	addi	a10, a6, -40
    279b:	f6a871                                    	l32r	a7, 23c (190e8 <frac_last_pitch_index>)
    279e:	b23a                                    	add.n	a11, a2, a3
    27a0:	824a                                    	add.n	a8, a2, a4
    27a2:	08f8                                    	l32i.n	a15, a8, 0
    27a4:	07f9                                    	s32i.n	a15, a7, 0
    27a6:	0009e0                                    	callx8	a9
    27a9:	0528                                    	l32i.n	a2, a5, 0
    27ab:	14c6b2                                    	addi	a11, a6, 20
    27ae:	f6a0f1                                    	l32r	a15, 230 (8ea4 <Voice_SWB_TX_Common_Prcs+0x1050>)
    27b1:	2c3c                                    	movi.n	a12, 50
    27b3:	324a                                    	add.n	a3, a2, a4
    27b5:	a2fa                                    	add.n	a10, a2, a15
    27b7:	f65621                                    	l32r	a2, 110 (14b88 <xt_memcpy>)
    27ba:	0338                                    	l32i.n	a3, a3, 0
    27bc:	1739                                    	s32i.n	a3, a7, 4
    27be:	0002e0                                    	callx8	a2
    27c1:	f01d                                    	retw.n

000027c3 <PD_TD_prcs+0x63>:
	...

000027c4 <pitch_by_harmonic>:
    27c4:	00e136                                    	entry	a1, 112
    27c7:	f64dc1                                    	l32r	a12, fc (190f0 <p_ecnr_mem>)
    27ca:	73a4d2                                    	movi	a13, 0x473
    27cd:	116132                                    	s32i	a3, a1, 68
    27d0:	113db0                                    	slli	a3, a13, 5
    27d3:	0f0c                                    	movi.n	a15, 0
    27d5:	c149                                    	s32i.n	a4, a1, 48
    27d7:	0c78                                    	l32i.n	a7, a12, 0
    27d9:	1652f2                                    	s16i	a15, a2, 44
    27dc:	fb7c                                    	movi.n	a11, -1
    27de:	f69891                                    	l32r	a9, 240 (8e8c <Voice_SWB_TX_Common_Prcs+0x1038>)
    27e1:	01bb10                                    	slli	a11, a11, 31
    27e4:	f69861                                    	l32r	a6, 244 (8e88 <Voice_SWB_TX_Common_Prcs+0x1034>)
    27e7:	e73a                                    	add.n	a14, a7, a3
    27e9:	0a0c                                    	movi.n	a10, 0
    27eb:	6e48                                    	l32i.n	a4, a14, 24
    27ed:	a1e9                                    	s32i.n	a14, a1, 40
    27ef:	f69a81                                    	l32r	a8, 258 (8e7c <Voice_SWB_TX_Common_Prcs+0x1028>)
    27f2:	093d                                    	mov.n	a3, a9
    27f4:	0d0c                                    	movi.n	a13, 0
    27f6:	11c420                                    	slli	a12, a4, 14
    27f9:	0b4416                                    	beqz	a4, 28b1 <pitch_by_harmonic+0xed>
    27fc:	106122                                    	s32i	a2, a1, 64
    27ff:	d5d240                                    	extui	a13, a4, 18, 14
    2802:	f69121                                    	l32r	a2, 248 (14bd0 <__udivdi3>)
    2805:	540c                                    	movi.n	a4, 5
    2807:	0002e0                                    	callx8	a2
    280a:	f73a                                    	add.n	a15, a7, a3
    280c:	276a                                    	add.n	a2, a7, a6
    280e:	6f4d                                    	ae_s16i.n	a4, a15, 0
    2810:	0228                                    	l32i.n	a2, a2, 0
    2812:	a148                                    	l32i.n	a4, a1, 40
    2814:	51a9                                    	s32i.n	a10, a1, 20
    2816:	f68fd1                                    	l32r	a13, 254 (8e84 <Voice_SWB_TX_Common_Prcs+0x1030>)
    2819:	180c                                    	movi.n	a8, 1
    281b:	1da1e2                                    	movi	a14, 0x11d
    281e:	0212e6                                    	bgei	a2, 1, 2824 <pitch_by_harmonic+0x60>
    2821:	007606                                    	j	29fd <pitch_by_harmonic+0x239>
    2824:	f68a41                                    	l32r	a4, 24c (aaaaaab <_end+0xaa919af>)
    2827:	0f1c                                    	movi.n	a15, 16
    2829:	2605274000c1651e                  	{ ae_l32m.i	aed0, a1, 20; ae_l32m.x	aed1, a7, a6 }
    2831:	0ea5642b110044d0c48080080d007f1f 	{ ae_trunca32x2f64s	aed1, aed1, aed1, a15; ae_movda32	aed2, a4; ae_subsq56s	aed0, aed0, aed1; nop }
    2841:	0e2cc03019f1440c022b400405608f3f 	{ l32r	a3, 250 (8e90 <Voice_SWB_TX_Common_Prcs+0x103c>); movi	a4, 52; ae_sat48s	aed0, aed0; ae_mulf32r.ll	aed1, aed1, aed2 }
    2851:	0ead446659e22ad0c500800016e0218f 	{ l32i	a8, a1, 40; add	a11, a2, a10; ae_abssq56s	aed0, aed0; nop }
    2861:	0eacc56850c419d0c50081380001041f 	{ ae_lt64	b0, aed1, aed0; l32i	a9, a1, 40; nop; nop }
    2871:	f678e1                                    	l32r	a14, 254 (8e84 <Voice_SWB_TX_Common_Prcs+0x1030>)
    2874:	373a                                    	add.n	a3, a7, a3
    2876:	2c0c                                    	movi.n	a12, 2
    2878:	1da1f2                                    	movi	a15, 0x11d
    287b:	021076                                    	bt	b0, 2881 <pitch_by_harmonic+0xbd>
    287e:	0065c6                                    	j	2a19 <pitch_by_harmonic+0x255>
    2881:	233d                                    	ae_l16si.n	a3, a3, 0
    2883:	175842                                    	s16i	a4, a8, 46
    2886:	0333a6                                    	blti	a3, 3, 288d <pitch_by_harmonic+0xc9>
    2889:	02ad                                    	mov.n	a10, a2
    288b:	5129                                    	s32i.n	a2, a1, 20

0000288d <pitch_by_harmonic+0xc9>:
    288d:	a148                                    	l32i.n	a4, a1, 40
    288f:	120c                                    	movi.n	a2, 1
    2891:	f67031                                    	l32r	a3, 254 (8e84 <Voice_SWB_TX_Common_Prcs+0x1030>)
    2894:	1da1e2                                    	movi	a14, 0x11d
    2897:	21faa0                                    	srai	a15, a10, 10
    289a:	1b5422                                    	s16i	a2, a4, 54
    289d:	112e90                                    	slli	a2, a14, 7
    28a0:	272a                                    	add.n	a2, a7, a2
    28a2:	373a                                    	add.n	a3, a7, a3
    28a4:	02a9                                    	s32i.n	a10, a2, 0
    28a6:	03f9                                    	s32i.n	a15, a3, 0
    28a8:	021aa6                                    	blti	a10, 1, 28ae <pitch_by_harmonic+0xea>
    28ab:	006246                                    	j	2a38 <pitch_by_harmonic+0x274>
    28ae:	01f586                                    	j	3088 <pitch_by_harmonic+0x8c4>

000028b1 <pitch_by_harmonic+0xed>:
    28b1:	378a                                    	add.n	a3, a7, a8
    28b3:	fb7c                                    	movi.n	a11, -1
    28b5:	0338                                    	l32i.n	a3, a3, 0
    28b7:	01bb10                                    	slli	a11, a11, 31
    28ba:	1da142                                    	movi	a4, 0x11d
    28bd:	0a0c                                    	movi.n	a10, 0
    28bf:	118490                                    	slli	a8, a4, 7
    28c2:	11c320                                    	slli	a12, a3, 14
    28c5:	7bb316                                    	beqz	a3, 3084 <pitch_by_harmonic+0x8c0>
    28c8:	106122                                    	s32i	a2, a1, 64
    28cb:	d5d230                                    	extui	a13, a3, 18, 14
    28ce:	f65e21                                    	l32r	a2, 248 (14bd0 <__udivdi3>)
    28d1:	093d                                    	mov.n	a3, a9
    28d3:	0002e0                                    	callx8	a2
    28d6:	51a9                                    	s32i.n	a10, a1, 20
    28d8:	2605274000c2651e                  	{ ae_l32m.i	aed0, a1, 20; ae_l32m.x	aed2, a7, a6 }
    28e0:	0e6d6167a53e334846000138000101ff 	{ movi	a15, 1; or	a4, a3, a3; nop; ae_srai64	aed1, aed0, 1 }
    28f0:	0e64e030053818494600411005033f7f 	{ slli	a3, a15, 25; movi	a8, 1; ae_subsq56s	aed3, aed1, aed2; ae_srai64	aed5, aed2, 1 }
    2900:	0ead442519e788d0c48080190163430f 	{ ae_cvt48a32	aed4, a3; slli	a3, a8, 24; ae_sat48s	aed3, aed3; nop }
    2910:	0eacc460a1e312d0c480801906e3f30f 	{ ae_cvt48a32	aed31, a3; addi	a2, a1, 20; ae_abssq56s	aed3, aed3; nop }
    2920:	0ead057b08c40cd0c50081390001043f 	{ ae_lt64	b0, aed3, aed4; nop; nop; nop }
    2930:	521076                                    	bt	b0, 2986 <pitch_by_harmonic+0x1c2>
    2933:	0ead057b08e40cd0c58081390c01610f 	{ ae_subsq56s	aed1, aed0, aed5; nop; nop; nop }
    2943:	0ead243b0d440cd0c50080080d61015f 	{ nop; nop; ae_sat48s	aed1, aed1; nop }
    2953:	0ead057b09e40cd0c58081380801013f 	{ ae_abssq56s	aed1, aed1; nop; nop; nop }
    2963:	0ead057b08c40cd0c500813f1801041f 	{ ae_lt64	b0, aed1, aed31; nop; nop; nop }
    2973:	170076                                    	bf	b0, 298e <pitch_by_harmonic+0x1ca>
    2976:	0ead257b09040cd0c58081380c01410f 	{ ae_slaisq56s	aed1, aed0, 1; nop; nop; nop }
    2986:	220760c008c5b02e                  	{ ae_s32m.i	aed1, a2, 0; nop }
    298e:	51a8                                    	l32i.n	a10, a1, 20
    2990:	720c                                    	movi.n	a2, 7
    2992:	31072a4410a0020e                  	{ slli	a2, a2, 16; ae_movda32	aed0, a10 }
    299a:	0302c14008e412ee                  	{ ae_movda32	aed1, a2; addi	a3, a1, 16 }
    29a2:	2280670638012cee                  	{ l32r	a14, 254 (8e84 <Voice_SWB_TX_Common_Prcs+0x1030>); nop; ae_mulf32r.ll	aed0, aed0, aed1 }
    29aa:	474a                                    	add.n	a4, a7, a4
    29ac:	a1d8                                    	l32i.n	a13, a1, 40
    29ae:	1b0c                                    	movi.n	a11, 1
    29b0:	0e6d61664530aa6806000138000111ff 	{ movi	a15, 9; srai	a8, a10, 10; nop; ae_slaisq56s	aed0, aed0, 5 }
    29c0:	0eace1708d21dcf0c300013f080127ef 	{ add	a2, a7, a14; movi	a12, 0x11d; nop; ae_roundsp16q48x2sym	aed0, aed0, aed0 }
    29d0:	2e04434004c0003e                  	{ ae_s16m.l.i	aed0, a3, 0; movi	a14, 35 }
    29d8:	089192                                    	l16si	a9, a1, 16
    29db:	64fd                                    	ae_s16i.n	a15, a4, 0
    29dd:	114c90                                    	slli	a4, a12, 7
    29e0:	0289                                    	s32i.n	a8, a2, 0
    29e2:	df2c                                    	movi.n	a15, 45
    29e4:	474a                                    	add.n	a4, a7, a4
    29e6:	5329e0                                    	max	a2, a9, a14
    29e9:	1b5db2                                    	s16i	a11, a13, 54
    29ec:	4322f0                                    	min	a2, a2, a15
    29ef:	04a9                                    	s32i.n	a10, a4, 0
    29f1:	085122                                    	s16i	a2, a1, 16
    29f4:	175d22                                    	s16i	a2, a13, 46
    29f7:	3d1ae6                                    	bgei	a10, 1, 2a38 <pitch_by_harmonic+0x274>
    29fa:	01a286                                    	j	3088 <pitch_by_harmonic+0x8c4>

000029fd <pitch_by_harmonic+0x239>:
    29fd:	e23c                                    	movi.n	a2, 62
    29ff:	21faa0                                    	srai	a15, a10, 10
    2a02:	113e90                                    	slli	a3, a14, 7
    2a05:	1b5482                                    	s16i	a8, a4, 54
    2a08:	175422                                    	s16i	a2, a4, 46
    2a0b:	373a                                    	add.n	a3, a7, a3
    2a0d:	27da                                    	add.n	a2, a7, a13
    2a0f:	03a9                                    	s32i.n	a10, a3, 0
    2a11:	02f9                                    	s32i.n	a15, a2, 0
    2a13:	211ae6                                    	bgei	a10, 1, 2a38 <pitch_by_harmonic+0x274>
    2a16:	019b86                                    	j	3088 <pitch_by_harmonic+0x8c4>

00002a19 <pitch_by_harmonic+0x255>:
    2a19:	e33c                                    	movi.n	a3, 62
    2a1b:	1b59c2                                    	s16i	a12, a9, 54
    2a1e:	212ab0                                    	srai	a2, a11, 10
    2a21:	114f90                                    	slli	a4, a15, 7
    2a24:	175932                                    	s16i	a3, a9, 46
    2a27:	37ea                                    	add.n	a3, a7, a14
    2a29:	11a270                                    	slli	a10, a2, 9
    2a2c:	474a                                    	add.n	a4, a7, a4
    2a2e:	0329                                    	s32i.n	a2, a3, 0
    2a30:	04a9                                    	s32i.n	a10, a4, 0
    2a32:	021ae6                                    	bgei	a10, 1, 2a38 <pitch_by_harmonic+0x274>
    2a35:	0193c6                                    	j	3088 <pitch_by_harmonic+0x8c4>
    2a38:	c198                                    	l32i.n	a9, a1, 48
    2a3a:	112142                                    	l32i	a4, a1, 68
    2a3d:	1da132                                    	movi	a3, 0x11d
    2a40:	04a122                                    	movi	a2, 0x104
    2a43:	113390                                    	slli	a3, a3, 7
    2a46:	84a182                                    	movi	a8, 0x184
    2a49:	a0a490                                    	addx4	a10, a4, a9
    2a4c:	373a                                    	add.n	a3, a7, a3
    2a4e:	b179                                    	s32i.n	a7, a1, 44
    2a50:	1174e0                                    	slli	a7, a4, 2
    2a53:	2a2a                                    	add.n	a2, a10, a2
    2a55:	f60141                                    	l32r	a4, 25c (c6c <Log2_norm>)
    2a58:	e139                                    	s32i.n	a3, a1, 56
    2a5a:	fa8a                                    	add.n	a15, a10, a8
    2a5c:	093d                                    	mov.n	a3, a9
    2a5e:	164c                                    	movi.n	a6, 65
    2a60:	d129                                    	s32i.n	a2, a1, 52
    2a62:	1361a2                                    	s32i	a10, a1, 76
    2a65:	f1f9                                    	s32i.n	a15, a1, 60
    2a67:	1388                                    	l32i.n	a8, a3, 4
    2a69:	237a                                    	add.n	a2, a3, a7
    2a6b:	334b                                    	addi.n	a3, a3, 4
    2a6d:	40e890                                    	nsa	a9, a8
    2a70:	401900                                    	ssl	a9
    2a73:	c0b590                                    	sub	a11, a5, a9
    2a76:	a1a800                                    	sll	a10, a8
    2a79:	660b                                    	addi.n	a6, a6, -1
    2a7b:	0004e0                                    	callx8	a4
    2a7e:	02a9                                    	s32i.n	a10, a2, 0
    2a80:	fe3656                                    	bnez	a6, 2a67 <pitch_by_harmonic+0x2a3>
    2a83:	b148                                    	l32i.n	a4, a1, 44
    2a85:	080c                                    	movi.n	a8, 0
    2a87:	a168                                    	l32i.n	a6, a1, 40
    2a89:	f5ed21                                    	l32r	a2, 240 (8e8c <Voice_SWB_TX_Common_Prcs+0x1038>)
    2a8c:	f5f5e1                                    	l32r	a14, 260 (8e98 <Voice_SWB_TX_Common_Prcs+0x1044>)
    2a8f:	179632                                    	l16si	a3, a6, 46
    2a92:	1d5682                                    	s16i	a8, a6, 58
    2a95:	242a                                    	add.n	a2, a4, a2
    2a97:	090c                                    	movi.n	a9, 0
    2a99:	225d                                    	ae_l16si.n	a5, a2, 0
    2a9b:	44ea                                    	add.n	a4, a4, a14
    2a9d:	126142                                    	s32i	a4, a1, 72
    2aa0:	5c0c                                    	movi.n	a12, 5
    2aa2:	1121e2                                    	l32i	a14, a1, 68
    2aa5:	648d                                    	ae_s16i.n	a8, a4, 0
    2aa7:	c0f350                                    	sub	a15, a3, a5
    2aaa:	132122                                    	l32i	a2, a1, 76
    2aad:	8f3d                                    	ae_sext16	a3, a15
    2aaf:	c148                                    	l32i.n	a4, a1, 48
    2ab1:	0213e6                                    	bgei	a3, 1, 2ab7 <pitch_by_harmonic+0x2f3>
    2ab4:	016e86                                    	j	3072 <pitch_by_harmonic+0x8ae>
    2ab7:	936d                                    	ae_zext16	a6, a3
    2ab9:	3e5a                                    	add.n	a3, a14, a5
    2abb:	a02520                                    	addx4	a2, a5, a2
    2abe:	a04340                                    	addx4	a4, a3, a4
    2ac1:	070c                                    	movi.n	a7, 0
    2ac3:	c199                                    	s32i.n	a9, a1, 48
    2ac5:	fcc232                                    	addi	a3, a2, -4
    2ac8:	f4c442                                    	addi	a4, a4, -12
    2acb:	001146                                    	j	2b14 <pitch_by_harmonic+0x350>

00002ace <pitch_by_harmonic+0x30a>:
    2ace:	a1b8                                    	l32i.n	a11, a1, 40
    2ad0:	5328a0                                    	max	a2, a8, a10
    2ad3:	f0c3a2                                    	addi	a10, a3, -16
    2ad6:	2f9927                                    	bne	a9, a2, 2b09 <pitch_by_harmonic+0x345>
    2ad9:	6b28                                    	l32i.n	a2, a11, 24
    2adb:	05bd                                    	mov.n	a11, a5
    2add:	82ac                                    	beqz.n	a2, 2b09 <pitch_by_harmonic+0x345>
    2adf:	4388                                    	l32i.n	a8, a3, 16
    2ae1:	0a28                                    	l32i.n	a2, a10, 0
    2ae3:	03ad                                    	mov.n	a10, a3
    2ae5:	432280                                    	min	a2, a2, a8
    2ae8:	1da297                                    	bge	a2, a9, 2b09 <pitch_by_harmonic+0x345>
    2aeb:	f5b121                                    	l32r	a2, 1b0 (1bf0 <Xfrac_num_pd_td32>)
    2aee:	1c0c                                    	movi.n	a12, 1
    2af0:	0002e0                                    	callx8	a2
    2af3:	c198                                    	l32i.n	a9, a1, 48
    2af5:	1221f2                                    	l32i	a15, a1, 72
    2af8:	f188                                    	l32i.n	a8, a1, 60
    2afa:	5c0c                                    	movi.n	a12, 5
    2afc:	892d                                    	ae_sext16	a2, a9
    2afe:	991b                                    	addi.n	a9, a9, 1
    2b00:	a02280                                    	addx4	a2, a2, a8
    2b03:	c199                                    	s32i.n	a9, a1, 48
    2b05:	6f9d                                    	ae_s16i.n	a9, a15, 0
    2b07:	02a9                                    	s32i.n	a10, a2, 0
    2b09:	660b                                    	addi.n	a6, a6, -1
    2b0b:	334b                                    	addi.n	a3, a3, 4
    2b0d:	444b                                    	addi.n	a4, a4, 4
    2b0f:	551b                                    	addi.n	a5, a5, 1
    2b11:	081616                                    	beqz	a6, 2b96 <pitch_by_harmonic+0x3d2>
    2b14:	f4c322                                    	addi	a2, a3, -12
    2b17:	944b                                    	addi.n	a9, a4, 4
    2b19:	0288                                    	l32i.n	a8, a2, 0
    2b1b:	04ad                                    	mov.n	a10, a4
    2b1d:	068c76                                    	loop	a12, 2b27 <pitch_by_harmonic+0x363>
    2b20:	0a28                                    	l32i.n	a2, a10, 0
    2b22:	aa4b                                    	addi.n	a10, a10, 4
    2b24:	538820                                    	max	a8, a8, a2

00002b27 <pitch_by_harmonic+0x363>:
    2b27:	f8c322                                    	addi	a2, a3, -8
    2b2a:	02b8                                    	l32i.n	a11, a2, 0
    2b2c:	0bad                                    	mov.n	a10, a11
    2b2e:	068c76                                    	loop	a12, 2b38 <pitch_by_harmonic+0x374>
    2b31:	0928                                    	l32i.n	a2, a9, 0
    2b33:	994b                                    	addi.n	a9, a9, 4
    2b35:	53aa20                                    	max	a10, a10, a2
    2b38:	0398                                    	l32i.n	a9, a3, 0
    2b3a:	021987                                    	beq	a9, a8, 2b40 <pitch_by_harmonic+0x37c>
    2b3d:	8d99a7                                    	bne	a9, a10, 2ace <pitch_by_harmonic+0x30a>

00002b40 <pitch_by_harmonic+0x37c>:
    2b40:	520c                                    	movi.n	a2, 5
    2b42:	fcc3d2                                    	addi	a13, a3, -4
    2b45:	012280                                    	slli	a2, a2, 24
    2b48:	3e0c                                    	movi.n	a14, 3
    2b4a:	2b2a                                    	add.n	a2, a11, a2
    2b4c:	01be60                                    	slli	a11, a14, 26
    2b4f:	092297                                    	blt	a2, a9, 2b5c <pitch_by_harmonic+0x398>
    2b52:	0d28                                    	l32i.n	a2, a13, 0
    2b54:	22ba                                    	add.n	a2, a2, a11
    2b56:	022297                                    	blt	a2, a9, 2b5c <pitch_by_harmonic+0x398>
    2b59:	ffdc46                                    	j	2ace <pitch_by_harmonic+0x30a>
    2b5c:	2328                                    	l32i.n	a2, a3, 8
    2b5e:	5b0c                                    	movi.n	a11, 5
    2b60:	3d0c                                    	movi.n	a13, 3
    2b62:	01bb80                                    	slli	a11, a11, 24
    2b65:	01ed60                                    	slli	a14, a13, 26
    2b68:	22ba                                    	add.n	a2, a2, a11
    2b6a:	092297                                    	blt	a2, a9, 2b77 <pitch_by_harmonic+0x3b3>
    2b6d:	1328                                    	l32i.n	a2, a3, 4
    2b6f:	22ea                                    	add.n	a2, a2, a14
    2b71:	022297                                    	blt	a2, a9, 2b77 <pitch_by_harmonic+0x3b3>
    2b74:	ffd586                                    	j	2ace <pitch_by_harmonic+0x30a>
    2b77:	f58e21                                    	l32r	a2, 1b0 (1bf0 <Xfrac_num_pd_td32>)
    2b7a:	1c0c                                    	movi.n	a12, 1
    2b7c:	03ad                                    	mov.n	a10, a3
    2b7e:	05bd                                    	mov.n	a11, a5
    2b80:	0002e0                                    	callx8	a2
    2b83:	d188                                    	l32i.n	a8, a1, 52
    2b85:	5c0c                                    	movi.n	a12, 5
    2b87:	a1f8                                    	l32i.n	a15, a1, 40
    2b89:	872d                                    	ae_sext16	a2, a7
    2b8b:	771b                                    	addi.n	a7, a7, 1
    2b8d:	a02280                                    	addx4	a2, a2, a8
    2b90:	1d5f72                                    	s16i	a7, a15, 58
    2b93:	ffdc06                                    	j	2b07 <pitch_by_harmonic+0x343>

00002b96 <pitch_by_harmonic+0x3d2>:
    2b96:	872d                                    	ae_sext16	a2, a7
    2b98:	080c                                    	movi.n	a8, 0
    2b9a:	0212e6                                    	bgei	a2, 1, 2ba0 <pitch_by_harmonic+0x3dc>
    2b9d:	013446                                    	j	3072 <pitch_by_harmonic+0x8ae>
    2ba0:	f5b3a1                                    	l32r	a10, 26c (99999a <_end+0x98089e>)
    2ba3:	140c                                    	movi.n	a4, 1
    2ba5:	20076a461402af2e                  	{ l32r	a2, 264 (8e9c <Voice_SWB_TX_Common_Prcs+0x1048>); ae_cvt48a32	aed2, a10 }
    2bad:	a1a8                                    	l32i.n	a10, a1, 40
    2baf:	1d0c                                    	movi.n	a13, 1
    2bb1:	b1f8                                    	l32i.n	a15, a1, 44
    2bb3:	014480                                    	slli	a4, a4, 24
    2bb6:	f5a7b1                                    	l32r	a11, 254 (8e84 <Voice_SWB_TX_Common_Prcs+0x1030>)
    2bb9:	030c                                    	movi.n	a3, 0
    2bbb:	f5ab61                                    	l32r	a6, 268 (cccccd <_end+0xcb3bd1>)
    2bbe:	20c152                                    	addi	a5, a1, 32
    2bc1:	f5abc1                                    	l32r	a12, 270 (435e50d8 <_end+0x435cbfdc>)
    2bc4:	81cb                                    	addi.n	a8, a1, 12
    2bc6:	1f5ad2                                    	s16i	a13, a10, 62
    2bc9:	977d                                    	ae_zext16	a7, a7
    2bcb:	2007044214e02f2e                  	{ add	a10, a15, a2; ae_cvt48a32	aed0, a4 }
    2bd3:	20074640008100ee                  	{ movi	a14, 0; ae_cvt48a32	aed1, a6 }
    2bdb:	190c                                    	movi.n	a9, 1
    2bdd:	ffba                                    	add.n	a15, a15, a11
    2bdf:	6a3d                                    	ae_s16i.n	a3, a10, 0
    2be1:	31072c4318e3647e                  	{ nop; ae_movda32	aed3, a12 }
    2be9:	178776                                    	loop	a7, 2c04 <pitch_by_harmonic+0x440>
    2bec:	030170                                    	rsr.lend	a7
    2bef:	130070                                    	wsr.lbeg	a7
    2bf2:	f5a471                                    	l32r	a7, 284 (2f75 <pitch_by_harmonic+0x7b1>)
    2bf5:	0020f0                                    	nop
    2bf8:	130170                                    	wsr.lend	a7
    2bfb:	002000                                    	isync
    2bfe:	030270                                    	rsr.lcount	a7
    2c01:	01c772                                    	addi	a7, a7, 1
    2c04:	070c                                    	movi.n	a7, 0
    2c06:	229e16                                    	beqz	a14, 2e33 <pitch_by_harmonic+0x66f>
    2c09:	d128                                    	l32i.n	a2, a1, 52
    2c0b:	1da1d2                                    	movi	a13, 0x11d
    2c0e:	0402a14100c6602e                  	{ ae_l32m.i	aed4, a2, 0; addi	a4, a1, 24 }
    2c16:	0a04214108c07f2e                  	{ ae_l32m.i	aed5, a2, -4; movi	a11, 1 }
    2c1e:	0ead057b08e40cd0c58081390c01704f 	{ ae_subsq56s	aed4, aed4, aed5; nop; nop; nop }
    2c2e:	0eace56871241bd0c580813b14011b4f 	{ ae_srlaq56	aed4, aed4, a11; l32i	a11, a1, 56; nop; nop }
    2c3e:	0e6ce560e5331652078081390001161f 	{ ae_s32m.i	aed4, a1, 24; addi	a6, a1, 28; nop; ae_slaisq56s	aed8, aed4, 10 }
    2c4e:	6178                                    	l32i.n	a7, a1, 24
    2c50:	0bc8                                    	l32i.n	a12, a11, 0
    2c52:	21ccc0                                    	srai	a12, a12, 12
    2c55:	d227c0                                    	quos	a2, a7, a12
    2c58:	b178                                    	l32i.n	a7, a1, 44
    2c5a:	7129                                    	s32i.n	a2, a1, 28
    2c5c:	2806ad4718c4771e                  	{ ae_l32m.i	aed31, a1, 28; slli	a2, a13, 7 }
    2c64:	0eace56041231dd0c58081380c0173ff 	{ ae_slaisq56s	aed5, aed31, 15; addi	a13, a1, 8; nop; nop }
    2c74:	0ead257b0d2d0cf0c398a1381001467f 	{ ae_l32m.x	aed5, a7, a2; nop; nop; ae_roundsp16q48x2sym	aed6, aed5, aed5 }
    2c84:	0c0003c30c87012e                  	{ l32i	a2, a1, 52; ae_sel16i	aed7, aed6, aed6, 1 }
    2c8c:	2482af3f28a7641e                  	{ ae_s16m.l.i	aed6, a1, 8; nop; ae_mulq32sp16s.l	aed7, aed5, aed7 }
    2c94:	0ead257b09240cd0c58081380c01f37f 	{ ae_slaisq56s	aed7, aed7, 15; nop; nop; nop }
    2ca4:	0ead057b08e40cd0c580813a0401737f 	{ ae_subsq56s	aed7, aed7, aed8; nop; nop; nop }
    2cb4:	220700c11ce5d73e                  	{ ae_abs64	aed7, aed7; nop }
    2cbc:	0ead057b08c40cd0c50081380001047f 	{ ae_lt64	b0, aed7, aed0; nop; nop; nop }
    2ccc:	570076                                    	bf	b0, 2d27 <pitch_by_harmonic+0x563>
    2ccf:	0e6d017b09f50c490600813d0401696f 	{ l32r	a6, 254 (8e84 <Voice_SWB_TX_Common_Prcs+0x1030>); nop; nop; ae_slaisq56s	aed4, aed4, 1 }
    2cdf:	a1c8                                    	l32i.n	a12, a1, 40
    2ce1:	0403214108c1867e                  	{ ae_l32m.x	aed5, a7, a6; l16si	a4, a1, 8 }
    2ce9:	0eacc560d8e4c2d0c48081390001d05f 	{ ae_addsq56s	aed4, aed5, aed4; l16si	a2, a12, 54; nop; nop }
    2cf9:	0ead243b0d440cd0c50080200d64015f 	{ nop; nop; ae_sat48s	aed4, aed4; nop }
    2d09:	220760c100c5d67e                  	{ ae_s32m.x	aed4, a7, a6; nop }
    2d11:	0f68                                    	l32i.n	a6, a15, 0
    2d13:	242a                                    	add.n	a2, a4, a2
    2d15:	827d                                    	ae_sext16	a7, a2
    2d17:	1b5c22                                    	s16i	a2, a12, 54
    2d1a:	d24670                                    	quos	a4, a6, a7
    2d1d:	11d460                                    	slli	a13, a4, 10
    2d20:	170c                                    	movi.n	a7, 1
    2d22:	0bd9                                    	s32i.n	a13, a11, 0
    2d24:	0042c6                                    	j	2e33 <pitch_by_harmonic+0x66f>

00002d27 <pitch_by_harmonic+0x563>:
    2d27:	070c                                    	movi.n	a7, 0
    2d29:	022ef6                                    	bgeui	a14, 2, 2d2f <pitch_by_harmonic+0x56b>
    2d2c:	0040c6                                    	j	2e33 <pitch_by_harmonic+0x66f>
    2d2f:	0604214100c0702e                  	{ ae_l32m.i	aed4, a2, 0; movi	a7, 1 }
    2d37:	220720c110c57e2e                  	{ ae_l32m.i	aed6, a2, -8; nop }
    2d3f:	0ead057b08e40cd0c58081391401704f 	{ ae_subsq56s	aed4, aed4, aed6; nop; nop; nop }
    2d4f:	0eace570012007d0c580813b1401174f 	{ ae_srlaq56	aed4, aed4, a7; movi	a7, 0; nop; nop }
    2d5f:	0e6d257b0d350c57c78081390001044f 	{ ae_s32m.i	aed4, a4, 0; nop; nop; ae_slaisq56s	aed31, aed4, 10 }
    2d6f:	61b8                                    	l32i.n	a11, a1, 24
    2d71:	d22bc0                                    	quos	a2, a11, a12
    2d74:	7129                                    	s32i.n	a2, a1, 28
    2d76:	220720c710c5706e                  	{ ae_l32m.i	aed30, a6, 0; nop }
    2d7e:	0ead257b09250cd0c58081380c01b3ef 	{ ae_slaisq56s	aed6, aed30, 15; nop; nop; nop }
    2d8e:	0ead057b09f40cf0c318c1381c01216f 	{ l32i	a6, a1, 44; nop; nop; ae_roundsp16q48x2sym	aed6, aed6, aed6 }
    2d9e:	0c0043c114c700de                  	{ ae_s16m.l.i	aed6, a13, 0; ae_sel16i	aed7, aed6, aed6, 1 }
    2da6:	24806f2e34a72bbe                  	{ l32r	a11, 254 (8e84 <Voice_SWB_TX_Common_Prcs+0x1030>); nop; ae_mulq32sp16s.l	aed5, aed5, aed7 }
    2dae:	049142                                    	l16si	a4, a1, 8
    2db1:	0e6cc56851f41c794700a138140131df 	{ l32i	a13, a1, 56; l32i	a12, a1, 40; nop; ae_slaisq56s	aed5, aed5, 15 }
    2dc1:	0ead057b08e40cd0c580813f1c01715f 	{ ae_subsq56s	aed5, aed5, aed31; nop; nop; nop }
    2dd1:	220700c10ce5d53e                  	{ ae_abs64	aed5, aed5; nop }
    2dd9:	0ead057b08c40cd0c50081380001045f 	{ ae_lt64	b0, aed5, aed0; nop; nop; nop }
    2de9:	460076                                    	bf	b0, 2e33 <pitch_by_harmonic+0x66f>
    2dec:	0e6ce1792c766b49070081381c016c2f 	{ l16si	a2, a12, 54; ae_l32m.x	aed5, a6, a11; nop; ae_slaisq56s	aed4, aed4, 1 }
    2dfc:	0eacc57000e017d0c48081390001d05f 	{ ae_addsq56s	aed4, aed5, aed4; movi	a7, 1; nop; nop }
    2e0c:	0ead243b0d440cd0c50080200d64015f 	{ nop; nop; ae_sat48s	aed4, aed4; nop }
    2e1c:	2206e44100d0cb6e                  	{ ae_s32m.x	aed4, a6, a11; add	a2, a4, a2 }
    2e24:	0f68                                    	l32i.n	a6, a15, 0
    2e26:	1b5c22                                    	s16i	a2, a12, 54
    2e29:	82bd                                    	ae_sext16	a11, a2
    2e2b:	d246b0                                    	quos	a4, a6, a11
    2e2e:	11c460                                    	slli	a12, a4, 10
    2e31:	0dc9                                    	s32i.n	a12, a13, 0
    2e33:	e128                                    	l32i.n	a2, a1, 56
    2e35:	1da1c2                                    	movi	a12, 0x11d
    2e38:	d148                                    	l32i.n	a4, a1, 52
    2e3a:	11cc90                                    	slli	a12, a12, 7
    2e3d:	b1d8                                    	l32i.n	a13, a1, 44
    2e3f:	0228                                    	l32i.n	a2, a2, 0
    2e41:	0448                                    	l32i.n	a4, a4, 0
    2e43:	9149                                    	s32i.n	a4, a1, 36
    2e45:	212b20                                    	srai	a2, a2, 11
    2e48:	d22420                                    	quos	a2, a4, a2
    2e4b:	8129                                    	s32i.n	a2, a1, 32
    2e4d:	2c052d4100de605e                  	{ ae_l32m.i	aed4, a5, 0; ae_l32m.x	aed30, a13, a12 }
    2e55:	0eace561212216d0c58081380c01334f 	{ ae_slaisq56s	aed4, aed4, 15; addi	a6, a1, 36; nop; nop }
    2e65:	0ead257b0d250cf0c29481381801046f 	{ ae_l32m.i	aed4, a6, 0; nop; nop; ae_roundsp16q48x2sym	aed5, aed4, aed4 }
    2e75:	0e5527bb0c550c4fc7009d281cc5448f 	{ ae_s16m.l.i	aed5, a8, 0; nop; ae_sel16i.n	aed6, aed5, aed5, 1; ae_slaisq56s	aed31, aed4, 9 }
    2e85:	2481ef3023c661ce                  	{ l16ui	a12, a1, 12; nop; ae_mulq32sp16s.l	aed6, aed30, aed6 }
    2e8d:	0ead251b09240cd0c58081200ca2b36f 	{ ae_slaisq56s	aed6, aed6, 15; nop; ae_mov	aed5, aed2; nop }
    2e9d:	0ead057b08e40cd0c580813f1c01726f 	{ ae_subsq56s	aed6, aed6, aed31; nop; nop; nop }
    2ead:	0f1c26                                    	beqi	a12, 1, 2ec0 <pitch_by_harmonic+0x6fc>
    2eb0:	1c07002010057c0e                  	{ beqi.w15	a12, 2, 2ec0 <pitch_by_harmonic+0x6fc>; ae_mov	aed5, aed1 }
    2eb8:	220740c108e5106e                  	{ ae_mov	aed5, aed0; nop }
    2ec0:	1204004114e0c63e                  	{ ae_abs64	aed6, aed6; movi	a2, 16 }
    2ec8:	e79c                                    	beqz.n	a7, 2eea <pitch_by_harmonic+0x726>
    2eca:	220700c11445926e                  	{ ae_trunca32x2f64s	aed6, aed6, aed6, a2; nop }
    2ed2:	2283473334c3b13e                  	{ nop; nop; ae_mulf32r.ll	aed6, aed6, aed3 }
    2eda:	0ead257b0d540cd0c51841380c01015f 	{ nop; nop; nop; ae_roundsq32f48asym	aed6, aed6 }
    2eea:	0eacc56858c417d0c50081390801046f 	{ ae_lt64	b0, aed6, aed5; l32i	a7, a1, 44; nop; nop }
    2efa:	a1d8                                    	l32i.n	a13, a1, 40
    2efc:	f4d6b1                                    	l32r	a11, 254 (8e84 <Voice_SWB_TX_Common_Prcs+0x1030>)
    2eff:	560076                                    	bf	b0, 2f59 <pitch_by_harmonic+0x795>
    2f02:	8c4d                                    	ae_sext16	a4, a12
    2f04:	4024a6                                    	blti	a4, 2, 2f48 <pitch_by_harmonic+0x784>
    2f07:	2a05074618851d2e                  	{ l16si	a2, a13, 54; ae_l32m.x	aed5, a7, a11 }
    2f0f:	0ead057b08e40cd0c48081390001d05f 	{ ae_addsq56s	aed4, aed5, aed4; nop; nop; nop }
    2f1f:	0ead243b0d440cd0c50080200d64015f 	{ nop; nop; ae_sat48s	aed4, aed4; nop }
    2f2f:	2406e24100d0cb7e                  	{ ae_s32m.x	aed4, a7, a11; add	a2, a2, a4 }
    2f37:	0f78                                    	l32i.n	a7, a15, 0
    2f39:	1b5d22                                    	s16i	a2, a13, 54
    2f3c:	82cd                                    	ae_sext16	a12, a2
    2f3e:	e1d8                                    	l32i.n	a13, a1, 56
    2f40:	d277c0                                    	quos	a7, a7, a12
    2f43:	11c760                                    	slli	a12, a7, 10
    2f46:	0dc9                                    	s32i.n	a12, a13, 0
    2f48:	331b                                    	addi.n	a3, a3, 1
    2f4a:	a128                                    	l32i.n	a2, a1, 40
    2f4c:	6a3d                                    	ae_s16i.n	a3, a10, 0
    2f4e:	1b6407                                    	bbci	a4, 0, 2f6d <pitch_by_harmonic+0x7a9>
    2f51:	090c                                    	movi.n	a9, 0
    2f53:	1f5292                                    	s16i	a9, a2, 62
    2f56:	0004c6                                    	j	2f6d <pitch_by_harmonic+0x7a9>

00002f59 <pitch_by_harmonic+0x795>:
    2f59:	c1b8                                    	l32i.n	a11, a1, 48
    2f5b:	1221d2                                    	l32i	a13, a1, 72
    2f5e:	f178                                    	l32i.n	a7, a1, 60
    2f60:	8b2d                                    	ae_sext16	a2, a11
    2f62:	bb1b                                    	addi.n	a11, a11, 1
    2f64:	a02270                                    	addx4	a2, a2, a7
    2f67:	c1b9                                    	s32i.n	a11, a1, 48
    2f69:	6dbd                                    	ae_s16i.n	a11, a13, 0
    2f6b:	0249                                    	s32i.n	a4, a2, 0
    2f6d:	d128                                    	l32i.n	a2, a1, 52
    2f6f:	ee1b                                    	addi.n	a14, a14, 1
    2f71:	224b                                    	addi.n	a2, a2, 4
    2f73:	d129                                    	s32i.n	a2, a1, 52

00002f75 <pitch_by_harmonic+0x7b1>:
    2f75:	c178                                    	l32i.n	a7, a1, 48
    2f77:	102142                                    	l32i	a4, a1, 64
    2f7a:	e1b8                                    	l32i.n	a11, a1, 56
    2f7c:	1da1f2                                    	movi	a15, 0x11d
    2f7f:	f1c8                                    	l32i.n	a12, a1, 60
    2f81:	872d                                    	ae_sext16	a2, a7
    2f83:	165432                                    	s16i	a3, a4, 44
    2f86:	b148                                    	l32i.n	a4, a1, 44
    2f88:	07dd                                    	mov.n	a13, a7
    2f8a:	0212e6                                    	bgei	a2, 1, 2f90 <pitch_by_harmonic+0x7cc>
    2f8d:	002dc6                                    	j	3048 <pitch_by_harmonic+0x884>
    2f90:	0b28                                    	l32i.n	a2, a11, 0
    2f92:	117f90                                    	slli	a7, a15, 7
    2f95:	f4b7e1                                    	l32r	a14, 274 (159999a <_end+0x158089e>)
    2f98:	9dfd                                    	ae_zext16	a15, a13
    2f9a:	20072e4000c1874e                  	{ ae_l32m.x	aed0, a4, a7; ae_cvt48a32	aed1, a14 }
    2fa2:	212b20                                    	srai	a2, a2, 11
    2fa5:	9f8f76                                    	loop	a15, 3048 <pitch_by_harmonic+0x884>
    2fa8:	0c48                                    	l32i.n	a4, a12, 0
    2faa:	9149                                    	s32i.n	a4, a1, 36
    2fac:	220720c100c5706e                  	{ ae_l32m.i	aed4, a6, 0; nop }
    2fb4:	d24420                                    	quos	a4, a4, a2
    2fb7:	0e6d057b09f40c490700813d0401214f 	{ s32i	a4, a1, 32; nop; nop; ae_slaisq56s	aed4, aed4, 9 }
    2fc7:	220720c010c5705e                  	{ ae_l32m.i	aed2, a5, 0; nop }
    2fcf:	0ead257b09040cd0c58081380c01b32f 	{ ae_slaisq56s	aed2, aed2, 15; nop; nop; nop }
    2fdf:	0ead217b0d540cf0c30841380c01015f 	{ nop; nop; nop; ae_roundsp16q48x2sym	aed2, aed2, aed2 }
    2fef:	040041c014c3008e                  	{ ae_s16m.l.i	aed2, a8, 0; ae_sel16i	aed3, aed2, aed2, 1 }
    2ff7:	2481ef1c2003c14e                  	{ l8ui	a4, a1, 12; nop; ae_mulq32sp16s.l	aed3, aed0, aed3 }
    2fff:	0eace568510417d0c58081380c01f33f 	{ ae_slaisq56s	aed3, aed3, 15; l32i	a7, a1, 40; nop; nop }
    300f:	0ead057b08e40cd0c58081390401633f 	{ ae_subsq56s	aed3, aed3, aed4; nop; nop; nop }
    301f:	220700c01ce5d33e                  	{ ae_abs64	aed3, aed3; nop }
    3027:	0ead057b08c40cd0c50081380801043f 	{ ae_lt64	b0, aed3, aed1; nop; nop; nop }
    3037:	0b0076                                    	bf	b0, 3046 <pitch_by_harmonic+0x882>
    303a:	331b                                    	addi.n	a3, a3, 1
    303c:	6a3d                                    	ae_s16i.n	a3, a10, 0
    303e:	046407                                    	bbci	a4, 0, 3046 <pitch_by_harmonic+0x882>
    3041:	090c                                    	movi.n	a9, 0
    3043:	1f5792                                    	s16i	a9, a7, 62

00003046 <pitch_by_harmonic+0x882>:
    3046:	cc4b                                    	addi.n	a12, a12, 4

00003048 <pitch_by_harmonic+0x884>:
    3048:	f27c                                    	movi.n	a2, -1
    304a:	b158                                    	l32i.n	a5, a1, 44
    304c:	f42020                                    	extui	a2, a2, 0, 16
    304f:	f47d61                                    	l32r	a6, 244 (8e88 <Voice_SWB_TX_Common_Prcs+0x1034>)
    3052:	a178                                    	l32i.n	a7, a1, 40
    3054:	4c0297                                    	bnone	a2, a9, 30a4 <pitch_by_harmonic+0x8e0>
    3057:	f48021                                    	l32r	a2, 258 (8e7c <Voice_SWB_TX_Common_Prcs+0x1028>)
    305a:	834d                                    	ae_sext16	a4, a3
    305c:	838d                                    	ae_sext16	a8, a3
    305e:	252a                                    	add.n	a2, a5, a2
    3060:	0228                                    	l32i.n	a2, a2, 0
    3062:	12bc                                    	beqz.n	a2, 3097 <pitch_by_harmonic+0x8d3>
    3064:	020c                                    	movi.n	a2, 0
    3066:	0234a6                                    	blti	a4, 3, 306c <pitch_by_harmonic+0x8a8>
    3069:	002ec6                                    	j	3128 <pitch_by_harmonic+0x964>
    306c:	1f5722                                    	s16i	a2, a7, 62
    306f:	000e46                                    	j	30ac <pitch_by_harmonic+0x8e8>

00003072 <pitch_by_harmonic+0x8ae>:
    3072:	b148                                    	l32i.n	a4, a1, 44
    3074:	f47421                                    	l32r	a2, 244 (8e88 <Voice_SWB_TX_Common_Prcs+0x1034>)
    3077:	f47631                                    	l32r	a3, 250 (8e90 <Voice_SWB_TX_Common_Prcs+0x103c>)
    307a:	242a                                    	add.n	a2, a4, a2
    307c:	f43a                                    	add.n	a15, a4, a3
    307e:	0289                                    	s32i.n	a8, a2, 0
    3080:	6f8d                                    	ae_s16i.n	a8, a15, 0
    3082:	f01d                                    	retw.n

00003084 <pitch_by_harmonic+0x8c0>:
    3084:	278a                                    	add.n	a2, a7, a8
    3086:	02d9                                    	s32i.n	a13, a2, 0
    3088:	f47241                                    	l32r	a4, 250 (8e90 <Voice_SWB_TX_Common_Prcs+0x103c>)
    308b:	276a                                    	add.n	a2, a7, a6
    308d:	030c                                    	movi.n	a3, 0
    308f:	0239                                    	s32i.n	a3, a2, 0
    3091:	f74a                                    	add.n	a15, a7, a4
    3093:	6f3d                                    	ae_s16i.n	a3, a15, 0
    3095:	f01d                                    	retw.n

00003097 <pitch_by_harmonic+0x8d3>:
    3097:	a148                                    	l32i.n	a4, a1, 40
    3099:	0258a6                                    	blti	a8, 5, 309f <pitch_by_harmonic+0x8db>
    309c:	002206                                    	j	3128 <pitch_by_harmonic+0x964>
    309f:	020c                                    	movi.n	a2, 0
    30a1:	1f5422                                    	s16i	a2, a4, 62
    30a4:	832d                                    	ae_sext16	a2, a3
    30a6:	0232a6                                    	blti	a2, 3, 30ac <pitch_by_harmonic+0x8e8>
    30a9:	0037c6                                    	j	318c <pitch_by_harmonic+0x9c8>
    30ac:	932d                                    	ae_zext16	a2, a3
    30ae:	d37c                                    	movi.n	a3, -3
    30b0:	022226                                    	beqi	a2, 2, 30b6 <pitch_by_harmonic+0x8f2>
    30b3:	003886                                    	j	3199 <pitch_by_harmonic+0x9d5>
    30b6:	f46621                                    	l32r	a2, 250 (8e90 <Voice_SWB_TX_Common_Prcs+0x103c>)
    30b9:	013360                                    	slli	a3, a3, 26
    30bc:	f46481                                    	l32r	a8, 24c (aaaaaab <_end+0xaa919af>)
    30bf:	0f1c                                    	movi.n	a15, 16
    30c1:	252a                                    	add.n	a2, a5, a2
    30c3:	341c                                    	movi.n	a4, 19
    30c5:	422d                                    	ae_l16ui.n	a2, a2, 0
    30c7:	3107284100a1048e                  	{ slli	a4, a4, 24; ae_movda32	aed1, a8 }
    30cf:	1da172                                    	movi	a7, 0x11d
    30d2:	0c3216                                    	beqz	a2, 3199 <pitch_by_harmonic+0x9d5>
    30d5:	0b28                                    	l32i.n	a2, a11, 0
    30d7:	119790                                    	slli	a9, a7, 7
    30da:	323a                                    	add.n	a3, a2, a3
    30dc:	02b437                                    	bgeu	a4, a3, 30e2 <pitch_by_harmonic+0x91e>
    30df:	002d86                                    	j	3199 <pitch_by_harmonic+0x9d5>
    30e2:	2805254000c2965e                  	{ ae_l32m.x	aed0, a5, a6; ae_l32m.x	aed2, a5, a9 }
    30ea:	0ea5243b09040cd0c48082000500ff0f 	{ ae_trunca32x2f64s	aed3, aed0, aed0, a15; nop; ae_subsq56s	aed0, aed2, aed0; nop }
    30fa:	2283470b3461b13e                  	{ nop; nop; ae_mulf32r.ll	aed1, aed3, aed1 }
    3102:	0ead017b09ec0cd0c5844138000100af 	{ ae_abs64	aed0, aed0; nop; nop; ae_roundsq32f48asym	aed1, aed1 }
    3112:	0ead057b08c40cd0c50081380001041f 	{ ae_lt64	b0, aed1, aed0; nop; nop; nop }
    3122:	731076                                    	bt	b0, 3199 <pitch_by_harmonic+0x9d5>
    3125:	002186                                    	j	31af <pitch_by_harmonic+0x9eb>

00003128 <pitch_by_harmonic+0x964>:
    3128:	0b28                                    	l32i.n	a2, a11, 0
    312a:	1da172                                    	movi	a7, 0x11d
    312d:	f45231                                    	l32r	a3, 278 (13ffffff <_end+0x13fe6f03>)
    3130:	119790                                    	slli	a9, a7, 7
    3133:	f44741                                    	l32r	a4, 250 (8e90 <Voice_SWB_TX_Common_Prcs+0x103c>)
    3136:	0f1c                                    	movi.n	a15, 16
    3138:	f44581                                    	l32r	a8, 24c (aaaaaab <_end+0xaa919af>)
    313b:	310728001801232e                  	{ blt.w15	a3, a2, 3185 <pitch_by_harmonic+0x9c1>; ae_movda32	aed1, a8 }
    3143:	354a                                    	add.n	a3, a5, a4
    3145:	233d                                    	ae_l16si.n	a3, a3, 0
    3147:	5c33a6                                    	blti	a3, 3, 31a7 <pitch_by_harmonic+0x9e3>
    314a:	2805254000c2965e                  	{ ae_l32m.x	aed0, a5, a6; ae_l32m.x	aed2, a5, a9 }
    3152:	0ea5243b09040cd0c48082000500ff0f 	{ ae_trunca32x2f64s	aed3, aed0, aed0, a15; nop; ae_subsq56s	aed0, aed2, aed0; nop }
    3162:	0e9d063b09e40cd0c5808e08006100af 	{ ae_abs64	aed0, aed0; nop; ae_mulf32r.ll	aed1, aed3, aed1; nop }
    3172:	0ead057b08c40cd0c40081380c01040f 	{ ae_le64	b0, aed0, aed1; nop; nop; nop }
    3182:	210076                                    	bf	b0, 31a7 <pitch_by_harmonic+0x9e3>
    3185:	a138                                    	l32i.n	a3, a1, 40
    3187:	020c                                    	movi.n	a2, 0
    3189:	1f5322                                    	s16i	a2, a3, 62
    318c:	0b28                                    	l32i.n	a2, a11, 0
    318e:	f43b31                                    	l32r	a3, 27c (f570a3d7 <_end+0xf56f12db>)
    3191:	f43b41                                    	l32r	a4, 280 (2428f5c4 <_end+0x242764c8>)
    3194:	323a                                    	add.n	a3, a2, a3
    3196:	153347                                    	bltu	a3, a4, 31af <pitch_by_harmonic+0x9eb>
    3199:	020c                                    	movi.n	a2, 0
    319b:	0b29                                    	s32i.n	a2, a11, 0
    319d:	f42c31                                    	l32r	a3, 250 (8e90 <Voice_SWB_TX_Common_Prcs+0x103c>)
    31a0:	040c                                    	movi.n	a4, 0
    31a2:	353a                                    	add.n	a3, a5, a3
    31a4:	001906                                    	j	320c <pitch_by_harmonic+0xa48>

000031a7 <pitch_by_harmonic+0x9e3>:
    31a7:	1122f0                                    	slli	a2, a2, 1
    31aa:	0b29                                    	s32i.n	a2, a11, 0
    31ac:	ed12a6                                    	blti	a2, 1, 319d <pitch_by_harmonic+0x9d9>
    31af:	f42731                                    	l32r	a3, 24c (aaaaaab <_end+0xaa919af>)
    31b2:	1da142                                    	movi	a4, 0x11d
    31b5:	1e04204000c0965e                  	{ ae_l32m.x	aed0, a5, a6; movi	a15, 16 }
    31bd:	3107234500a1049e                  	{ slli	a4, a4, 7; ae_movda32	aed1, a3 }
    31c5:	240505400042cf0e                  	{ ae_trunca32x2f64s	aed3, aed0, aed0, a15; ae_l32m.x	aed2, a5, a4 }
    31cd:	0e9d023b09f50c90c4000e0c0461283f 	{ l32r	a3, 250 (8e90 <Voice_SWB_TX_Common_Prcs+0x103c>); nop; ae_mulf32r.ll	aed1, aed3, aed1; ae_subsq56s	aed0, aed2, aed0 }
    31dd:	220700c004e5d03e                  	{ ae_abs64	aed0, aed0; nop }
    31e5:	0ead217b0d4c0cd0c50441380c01015f 	{ nop; nop; nop; ae_roundsq32f48asym	aed1, aed1 }
    31f5:	0ead456618c253d0c50081380801040f 	{ ae_lt64	b0, aed0, aed1; add	a3, a5, a3; nop; nop }
    3205:	940076                                    	bf	b0, 319d <pitch_by_harmonic+0x9d9>
    3208:	234d                                    	ae_l16si.n	a4, a3, 0
    320a:	441b                                    	addi.n	a4, a4, 1
    320c:	f56a                                    	add.n	a15, a5, a6
    320e:	634d                                    	ae_s16i.n	a4, a3, 0
    3210:	0f29                                    	s32i.n	a2, a15, 0
    3212:	f01d                                    	retw.n

00003214 <XMAX6>:
    3214:	004136                                    	entry	a1, 32
    3217:	023d                                    	mov.n	a3, a2
    3219:	0228                                    	l32i.n	a2, a2, 0
    321b:	540c                                    	movi.n	a4, 5
    321d:	334b                                    	addi.n	a3, a3, 4
    321f:	068476                                    	loop	a4, 3229 <XMAX6+0x15>
    3222:	0348                                    	l32i.n	a4, a3, 0
    3224:	334b                                    	addi.n	a3, a3, 4
    3226:	532240                                    	max	a2, a2, a4

00003229 <XMAX6+0x15>:
    3229:	f01d                                    	retw.n

0000322b <XMAX6+0x17>:
	...

0000322c <Xfrac_num_pd_td16>:
    322c:	008136                                    	entry	a1, 64
    322f:	010432410880013e                  	{ s32i	a3, a1, 20; ae_l16m.i	aed0, a2, 0 }
    3237:	0e6cf560c52b1520040021380001412f 	{ ae_l16m.i	aed1, a2, 2; addi	a5, a1, 24; nop; ae_cvtq56p32s.h	aed0, aed0 }
    3247:	0e6cf5700d290220440421380001f32f 	{ ae_l16m.i	aed3, a2, -2; movi	a2, 16; nop; ae_cvtq56p32s.h	aed1, aed1 }
    3257:	0e64d43001e91720c40c200d1d01d76f 	{ l32r	a6, 1d4 (5a820000 <_end+0x5a806f04>); movi	a7, 1; ae_subsq56s	aed1, aed0, aed1; ae_cvtq56p32s.h	aed3, aed3 }
    3267:	0ea5642b112064d0c48080180d00321f 	{ ae_trunca32x2f64s	aed4, aed1, aed1, a2; ae_movda32	aed2, a6; ae_subsq56s	aed0, aed0, aed3; nop }
    3277:	2282c7ff2082161e                  	{ ae_s32m.i	aed1, a1, 24; nop; ae_mulf32r.ll	aed31, aed4, aed2 }
    327f:	016740                                    	slli	a6, a7, 28
    3282:	2803e14000c1a71e                  	{ ae_s32m.i	aed0, a1, 28; l32i	a8, a1, 24 }
    328a:	0ead456b08c084d0c500813f1801040f 	{ ae_lt64	b0, aed0, aed31; ae_movda32	aed1, a8; nop; nop }
    329a:	250076                                    	bf	b0, 32c3 <Xfrac_num_pd_td16+0x97>
    329d:	3107664704028e2e                  	{ l32r	a2, 1d8 (c28f0000 <_end+0xc28d6f04>); ae_movda32	aed2, a6 }
    32a5:	2283470b3422b13e                  	{ nop; nop; ae_mulf32r.ll	aed1, aed1, aed2 }
    32ad:	0ead057b08c40cd0c50081380801040f 	{ ae_lt64	b0, aed0, aed1; nop; nop; nop }
    32bd:	380076                                    	bf	b0, 32f9 <Xfrac_num_pd_td16+0xcd>
    32c0:	003d06                                    	j	33b8 <Xfrac_num_pd_td16+0x18c>

000032c3 <Xfrac_num_pd_td16+0x97>:
    32c3:	000505400040420e                  	{ ae_trunca32x2f64s	aed1, aed0, aed0, a2; ae_l32m.i	aed0, a5, 0 }
    32cb:	228227122022016e                  	{ movi	a6, 1; nop; ae_mulf32r.ll	aed2, aed1, aed2 }
    32d3:	0ead456528c662d0c50081380001042f 	{ ae_lt64	b0, aed2, aed0; slli	a5, a6, 30; nop; nop }
    32e3:	0304404010e005ee                  	{ ae_movda32	aed2, a5; movi	a2, 0 }
    32eb:	2283470b3422b13e                  	{ nop; nop; ae_mulf32r.ll	aed1, aed1, aed2 }
    32f3:	380076                                    	bf	b0, 332f <Xfrac_num_pd_td16+0x103>
    32f6:	002f86                                    	j	33b8 <Xfrac_num_pd_td16+0x18c>

000032f9 <Xfrac_num_pd_td16+0xcd>:
    32f9:	0e6d017b09f50c488600213d1401b42f 	{ l32r	a2, 1dc (cccd0000 <_end+0xcccb6f04>); nop; nop; ae_slaisq56s	aed2, aed1, 1 }
    3309:	0ead043b09e50cd0c40080150d62b65f 	{ l32r	a5, 1e4 (f3330000 <_end+0xf3316f04>); nop; ae_sat48s	aed2, aed2; nop }
    3319:	0ead057b08c40cd0c50081381001040f 	{ ae_lt64	b0, aed0, aed2; nop; nop; nop }
    3329:	2b0076                                    	bf	b0, 3358 <Xfrac_num_pd_td16+0x12c>
    332c:	002206                                    	j	33b8 <Xfrac_num_pd_td16+0x18c>

0000332f <Xfrac_num_pd_td16+0x103>:
    332f:	0e6d017b08dc0c48870021380001041f 	{ ae_lt64	b0, aed1, aed0; nop; nop; ae_srai64	aed2, aed1, 1 }
    333f:	f3aa21                                    	l32r	a2, 1e8 (ccd0000 <_end+0xccb6f04>)
    3342:	0e6d017b08dc0c50470021380001142f 	{ ae_lt64	b1, aed2, aed0; nop; nop; ae_srai64	aed1, aed1, 2 }
    3352:	380076                                    	bf	b0, 338e <Xfrac_num_pd_td16+0x162>
    3355:	0017c6                                    	j	33b8 <Xfrac_num_pd_td16+0x18c>

00003358 <Xfrac_num_pd_td16+0x12c>:
    3358:	0e6d017b09f50c504600213d0401a62f 	{ l32r	a2, 1e0 (e6660000 <_end+0xe6646f04>); nop; nop; ae_slaisq56s	aed1, aed1, 2 }
    3368:	0ead243b0d440cd0c50080080d61015f 	{ nop; nop; ae_sat48s	aed1, aed1; nop }
    3378:	0ead057b08c40cd0c50081380801040f 	{ ae_lt64	b0, aed0, aed1; nop; nop; nop }
    3388:	0b0076                                    	bf	b0, 3397 <Xfrac_num_pd_td16+0x16b>
    338b:	000a46                                    	j	33b8 <Xfrac_num_pd_td16+0x18c>

0000338e <Xfrac_num_pd_td16+0x162>:
    338e:	f39721                                    	l32r	a2, 1ec (199a0000 <_end+0x19986f04>)
    3391:	070176                                    	bf	b1, 339c <Xfrac_num_pd_td16+0x170>
    3394:	000806                                    	j	33b8 <Xfrac_num_pd_td16+0x18c>

00003397 <Xfrac_num_pd_td16+0x16b>:
    3397:	052d                                    	mov.n	a2, a5
    3399:	0006c6                                    	j	33b8 <Xfrac_num_pd_td16+0x18c>

0000339c <Xfrac_num_pd_td16+0x170>:
    339c:	0ead057b08c40cd0c50081380001041f 	{ ae_lt64	b0, aed1, aed0; nop; nop; nop }
    33ac:	f39121                                    	l32r	a2, 1f0 (33330000 <_end+0x33316f04>)
    33af:	020076                                    	bf	b0, 33b5 <Xfrac_num_pd_td16+0x189>
    33b2:	000086                                    	j	33b8 <Xfrac_num_pd_td16+0x18c>

000033b5 <Xfrac_num_pd_td16+0x189>:
    33b5:	f38f21                                    	l32r	a2, 1f4 (3d710000 <_end+0x3d6f6f04>)
    33b8:	d43a                                    	add.n	a13, a4, a3
    33ba:	4129                                    	s32i.n	a2, a1, 16
    33bc:	2006ad4000c4641e                  	{ ae_l32m.i	aed0, a1, 16; slli	a2, a13, 16 }
    33c4:	0e6d057b09fc0c780700013d0c01112f 	{ s32i	a2, a1, 20; nop; nop; ae_srai64	aed0, aed0, 15 }
    33d4:	220720c008c5751e                  	{ ae_l32m.i	aed1, a1, 20; nop }
    33dc:	0ead257b0d040cd0c58081380401c01f 	{ ae_add64	aed0, aed1, aed0; nop; nop; nop }
    33ec:	0ead217b0d440cd0c50061380c01015f 	{ nop; nop; nop; ae_roundsq32f48sym	aed0, aed0 }
    33fc:	220760c000c5b41e                  	{ ae_s32m.i	aed0, a1, 16; nop }
    3404:	4128                                    	l32i.n	a2, a1, 16
    3406:	f01d                                    	retw.n

00003408 <SBAEC_INIT>:
    3408:	00a136                                    	entry	a1, 80
    340b:	f33c51                                    	l32r	a5, fc (190f0 <p_ecnr_mem>)
    340e:	15a362                                    	movi	a6, 0x315
    3411:	25a6f2                                    	movi	a15, 0x625
    3414:	f33d41                                    	l32r	a4, 108 (14b74 <xt_memset>)
    3417:	0b0c                                    	movi.n	a11, 0
    3419:	d8a1c2                                    	movi	a12, 0x1d8
    341c:	0538                                    	l32i.n	a3, a5, 0
    341e:	b129                                    	s32i.n	a2, a1, 44
    3420:	112fc0                                    	slli	a2, a15, 4
    3423:	1166b0                                    	slli	a6, a6, 5
    3426:	62d3a2                                    	addmi	a10, a3, 0x6200
    3429:	c70c                                    	movi.n	a7, 12
    342b:	61a9                                    	s32i.n	a10, a1, 24
    342d:	0004e0                                    	callx8	a4
    3430:	0558                                    	l32i.n	a5, a5, 0
    3432:	0b0c                                    	movi.n	a11, 0
    3434:	c0a4c2                                    	movi	a12, 0x4c0
    3437:	20d5a2                                    	addmi	a10, a5, 0x2000
    343a:	0004e0                                    	callx8	a4
    343d:	f33351                                    	l32r	a5, 10c (190f8 <aec_nr_para>)
    3440:	054d                                    	mov.n	a4, a5
    3442:	0558                                    	l32i.n	a5, a5, 0
    3444:	041582                                    	l16ui	a8, a5, 8
    3447:	107870                                    	and	a7, a8, a7
    344a:	06a726                                    	beqi	a7, 12, 3454 <SBAEC_INIT+0x4c>
    344d:	071c                                    	movi.n	a7, 16
    344f:	107870                                    	and	a7, a8, a7
    3452:	479c                                    	beqz.n	a7, 346a <SBAEC_INIT+0x62>

00003454 <SBAEC_INIT+0x4c>:
    3454:	777c                                    	movi.n	a7, -9
    3456:	131592                                    	l16ui	a9, a5, 38
    3459:	f47070                                    	extui	a7, a7, 0, 16
    345c:	108870                                    	and	a8, a8, a7
    345f:	871c                                    	movi.n	a7, 24
    3461:	045582                                    	s16i	a8, a5, 8
    3464:	023977                                    	bltu	a9, a7, 346a <SBAEC_INIT+0x62>
    3467:	135572                                    	s16i	a7, a5, 38
    346a:	2fa6e2                                    	movi	a14, 0x62f
    346d:	732a                                    	add.n	a7, a3, a2
    346f:	112ec0                                    	slli	a2, a14, 4
    3472:	8da1f2                                    	movi	a15, 0x18d
    3475:	232a                                    	add.n	a2, a3, a2
    3477:	636a                                    	add.n	a6, a3, a6
    3479:	4129                                    	s32i.n	a2, a1, 16
    347b:	112fa0                                    	slli	a2, a15, 6
    347e:	232a                                    	add.n	a2, a3, a2
    3480:	65d3f2                                    	addmi	a15, a3, 0x6500
    3483:	5129                                    	s32i.n	a2, a1, 20
    3485:	60a022                                    	movi	a2, 96
    3488:	4d0c                                    	movi.n	a13, 4
    348a:	5ee837                                    	bbsi	a8, 3, 34ec <SBAEC_INIT+0xe4>
    348d:	251522                                    	l16ui	a2, a5, 74
    3490:	78a0a2                                    	movi	a10, 120
    3493:	65d3f2                                    	addmi	a15, a3, 0x6500
    3496:	131582                                    	l16ui	a8, a5, 38
    3499:	f37bb1                                    	l32r	a11, 288 (300040 <_end+0x2e6f44>)
    349c:	349020                                    	extui	a9, a2, 0, 4
    349f:	058216                                    	beqz	a2, 34fb <SBAEC_INIT+0xf3>
    34a2:	34b420                                    	extui	a11, a2, 4, 4
    34a5:	34e820                                    	extui	a14, a2, 8, 4
    34a8:	1199e0                                    	slli	a9, a9, 2
    34ab:	11bbd0                                    	slli	a11, a11, 3
    34ae:	41cc20                                    	srli	a12, a2, 12
    34b1:	112ee0                                    	slli	a2, a14, 2
    34b4:	994b                                    	addi.n	a9, a9, 4
    34b6:	a0ccd0                                    	addx4	a12, a12, a13
    34b9:	e24b                                    	addi.n	a14, a2, 4
    34bb:	bb8b                                    	addi.n	a11, a11, 8
    34bd:	1099a0                                    	and	a9, a9, a10
    34c0:	475fb2                                    	s16i	a11, a15, 142
    34c3:	102ca0                                    	and	a2, a12, a10
    34c6:	10aea0                                    	and	a10, a14, a10
    34c9:	41b1b0                                    	srli	a11, a11, 1
    34cc:	438890                                    	min	a8, a8, a9
    34cf:	43bba0                                    	min	a11, a11, a10
    34d2:	65d3e2                                    	addmi	a14, a3, 0x6500
    34d5:	4388b0                                    	min	a8, a8, a11
    34d8:	465f92                                    	s16i	a9, a15, 140
    34db:	43f820                                    	min	a15, a8, a2
    34de:	882c                                    	movi.n	a8, 40
    34e0:	495e22                                    	s16i	a2, a14, 146
    34e3:	485ea2                                    	s16i	a10, a14, 144
    34e6:	1355f2                                    	s16i	a15, a5, 38
    34e9:	000786                                    	j	350b <SBAEC_INIT+0x103>

000034ec <SBAEC_INIT+0xe4>:
    34ec:	f36981                                    	l32r	a8, 290 (c00100 <_end+0xbe7004>)
    34ef:	f36991                                    	l32r	a9, 294 (600040 <_end+0x5e6f44>)
    34f2:	236f82                                    	s32i	a8, a15, 140
    34f5:	78a082                                    	movi	a8, 120
    34f8:	000306                                    	j	3508 <SBAEC_INIT+0x100>

000034fb <SBAEC_INIT+0xf3>:
    34fb:	65d3f2                                    	addmi	a15, a3, 0x6500
    34fe:	f36391                                    	l32r	a9, 28c (200018 <_end+0x1e6f1c>)
    3501:	236fb2                                    	s32i	a11, a15, 140
    3504:	882c                                    	movi.n	a8, 40
    3506:	022c                                    	movi.n	a2, 32
    3508:	246f92                                    	s32i	a9, a15, 144
    350b:	131592                                    	l16ui	a9, a5, 38
    350e:	62d3a2                                    	addmi	a10, a3, 0x6200
    3511:	635a92                                    	s16i	a9, a10, 198
    3514:	2e0c                                    	movi.n	a14, 2
    3516:	8b5a92                                    	s16i	a9, a10, 0x116
    3519:	65d3c2                                    	addmi	a12, a3, 0x6500
    351c:	3b5a92                                    	s16i	a9, a10, 118
    351f:	1199f0                                    	slli	a9, a9, 1
    3522:	432920                                    	min	a2, a9, a2
    3525:	62de92                                    	addmi	a9, a14, 0x6200
    3528:	b5eb                                    	addi.n	a11, a5, 14
    352a:	f2f951                                    	l32r	a5, 110 (14b88 <xt_memcpy>)
    352d:	63d3d2                                    	addmi	a13, a3, 0x6300
    3530:	65d3f2                                    	addmi	a15, a3, 0x6500
    3533:	a1c9                                    	s32i.n	a12, a1, 40
    3535:	a39a                                    	add.n	a10, a3, a9
    3537:	4a5c82                                    	s16i	a8, a12, 148
    353a:	ec0c                                    	movi.n	a12, 14
    353c:	335d22                                    	s16i	a2, a13, 102
    353f:	91f9                                    	s32i.n	a15, a1, 36
    3541:	0005e0                                    	callx8	a5
    3544:	0458                                    	l32i.n	a5, a4, 0
    3546:	c3a6e2                                    	movi	a14, 0x6c3
    3549:	f2ec21                                    	l32r	a2, fc (190f0 <p_ecnr_mem>)
    354c:	62d3f2                                    	addmi	a15, a3, 0x6200
    354f:	118ed0                                    	slli	a8, a14, 3
    3552:	61e8                                    	l32i.n	a14, a1, 24
    3554:	061592                                    	l16ui	a9, a5, 12
    3557:	1f95a2                                    	l16si	a10, a5, 62
    355a:	02d8                                    	l32i.n	a13, a2, 0
    355c:	0f5fa2                                    	s16i	a10, a15, 30
    355f:	41c8                                    	l32i.n	a12, a1, 16
    3561:	06bd                                    	mov.n	a11, a6
    3563:	1199c0                                    	slli	a9, a9, 4
    3566:	07ad                                    	mov.n	a10, a7
    3568:	9f99                                    	s32i.n	a9, a15, 36
    356a:	9d8a                                    	add.n	a9, a13, a8
    356c:	102552                                    	l32i	a5, a5, 64
    356f:	8f59                                    	s32i.n	a5, a15, 32
    3571:	20ddf2                                    	addmi	a15, a13, 0x2000
    3574:	f34981                                    	l32r	a8, 298 (39c0 <Fill_CH_MEM_WB>)
    3577:	51d8                                    	l32i.n	a13, a1, 20
    3579:	8179                                    	s32i.n	a7, a1, 32
    357b:	7169                                    	s32i.n	a6, a1, 28
    357d:	0199                                    	s32i.n	a9, a1, 0
    357f:	0008e0                                    	callx8	a8
    3582:	0258                                    	l32i.n	a5, a2, 0
    3584:	0498                                    	l32i.n	a9, a4, 0
    3586:	63d382                                    	addmi	a8, a3, 0x6300
    3589:	65d3a2                                    	addmi	a10, a3, 0x6500
    358c:	f34421                                    	l32r	a2, 29c (3940 <Fill_sbco>)
    358f:	1d0c                                    	movi.n	a13, 1
    3591:	35d552                                    	addmi	a5, a5, 0x3500
    3594:	1699c2                                    	l16si	a12, a9, 44
    3597:	3625b2                                    	l32i	a11, a5, 216
    359a:	3a2552                                    	l32i	a5, a5, 232
    359d:	2168b2                                    	s32i	a11, a8, 132
    35a0:	469ab2                                    	l16si	a11, a10, 140
    35a3:	07ad                                    	mov.n	a10, a7
    35a5:	226852                                    	s32i	a5, a8, 136
    35a8:	0002e0                                    	callx8	a2
    35ab:	0488                                    	l32i.n	a8, a4, 0
    35ad:	65d352                                    	addmi	a5, a3, 0x6500
    35b0:	479552                                    	l16si	a5, a5, 142
    35b3:	1d0c                                    	movi.n	a13, 1
    35b5:	06ad                                    	mov.n	a10, a6
    35b7:	1798c2                                    	l16si	a12, a8, 46
    35ba:	951b                                    	addi.n	a9, a5, 1
    35bc:	b39550                                    	movgez	a9, a5, a5
    35bf:	65d352                                    	addmi	a5, a3, 0x6500
    35c2:	21b190                                    	srai	a11, a9, 1
    35c5:	0002e0                                    	callx8	a2
    35c8:	0488                                    	l32i.n	a8, a4, 0
    35ca:	4895b2                                    	l16si	a11, a5, 144
    35cd:	41a8                                    	l32i.n	a10, a1, 16
    35cf:	1d0c                                    	movi.n	a13, 1
    35d1:	1898c2                                    	l16si	a12, a8, 48
    35d4:	0002e0                                    	callx8	a2
    35d7:	9178                                    	l32i.n	a7, a1, 36
    35d9:	0458                                    	l32i.n	a5, a4, 0
    35db:	51a8                                    	l32i.n	a10, a1, 20
    35dd:	1d0c                                    	movi.n	a13, 1
    35df:	4997b2                                    	l16si	a11, a7, 146
    35e2:	1995c2                                    	l16si	a12, a5, 50
    35e5:	0002e0                                    	callx8	a2
    35e8:	0428                                    	l32i.n	a2, a4, 0
    35ea:	81a8                                    	l32i.n	a10, a1, 32
    35ec:	2d9252                                    	l16si	a5, a2, 90
    35ef:	2f9282                                    	l16si	a8, a2, 94
    35f2:	319222                                    	l16si	a2, a2, 98
    35f5:	21b850                                    	srai	a11, a5, 8
    35f8:	f32a51                                    	l32r	a5, 2a0 (3984 <Fill_sbco_v2>)
    35fb:	21c880                                    	srai	a12, a8, 8
    35fe:	21d820                                    	srai	a13, a2, 8
    3601:	0005e0                                    	callx8	a5
    3604:	0428                                    	l32i.n	a2, a4, 0
    3606:	71a8                                    	l32i.n	a10, a1, 28
    3608:	2d92b2                                    	l16si	a11, a2, 90
    360b:	2f92c2                                    	l16si	a12, a2, 94
    360e:	3192d2                                    	l16si	a13, a2, 98
    3611:	0005e0                                    	callx8	a5
    3614:	0428                                    	l32i.n	a2, a4, 0
    3616:	41a8                                    	l32i.n	a10, a1, 16
    3618:	2e9262                                    	l16si	a6, a2, 92
    361b:	309272                                    	l16si	a7, a2, 96
    361e:	329222                                    	l16si	a2, a2, 100
    3621:	21b860                                    	srai	a11, a6, 8
    3624:	21c870                                    	srai	a12, a7, 8
    3627:	21d820                                    	srai	a13, a2, 8
    362a:	0005e0                                    	callx8	a5
    362d:	0428                                    	l32i.n	a2, a4, 0
    362f:	51a8                                    	l32i.n	a10, a1, 20
    3631:	2e92b2                                    	l16si	a11, a2, 92
    3634:	65d372                                    	addmi	a7, a3, 0x6500
    3637:	3092c2                                    	l16si	a12, a2, 96
    363a:	3292d2                                    	l16si	a13, a2, 100
    363d:	0005e0                                    	callx8	a5
    3640:	f2afe1                                    	l32r	a14, fc (190f0 <p_ecnr_mem>)
    3643:	ffa0a2                                    	movi	a10, 255
    3646:	0428                                    	l32i.n	a2, a4, 0
    3648:	7fdaa2                                    	addmi	a10, a10, 0x7f00
    364b:	62d3b2                                    	addmi	a11, a3, 0x6200
    364e:	6158                                    	l32i.n	a5, a1, 24
    3650:	0e68                                    	l32i.n	a6, a14, 0
    3652:	155ba2                                    	s16i	a10, a11, 42
    3655:	3392d2                                    	l16si	a13, a2, 102
    3658:	1592f2                                    	l16si	a15, a2, 42
    365b:	4c57d2                                    	s16i	a13, a7, 152
    365e:	0292d2                                    	l16si	a13, a2, 4
    3661:	35d672                                    	addmi	a7, a6, 0x3500
    3664:	65d3c2                                    	addmi	a12, a3, 0x6500
    3667:	5d57f2                                    	s16i	a15, a7, 186
    366a:	3892f2                                    	l16si	a15, a2, 112
    366d:	65dd                                    	ae_s16i.n	a13, a5, 0
    366f:	2d12b2                                    	l16ui	a11, a2, 90
    3672:	342752                                    	l32i	a5, a7, 208
    3675:	0412a2                                    	l16ui	a10, a2, 8
    3678:	3a5cf2                                    	s16i	a15, a12, 116
    367b:	b1f8                                    	l32i.n	a15, a1, 44
    367d:	226c52                                    	s32i	a5, a12, 136
    3680:	a158                                    	l32i.n	a5, a1, 40
    3682:	ffa082                                    	movi	a8, 255
    3685:	0592d2                                    	l16si	a13, a2, 10
    3688:	6288b0                                    	saltu	a8, a8, a11
    368b:	04b0a0                                    	extui	a11, a10, 0, 1
    368e:	14a1a0                                    	extui	a10, a10, 1, 2
    3691:	395cd2                                    	s16i	a13, a12, 114
    3694:	6257a2                                    	s16i	a10, a7, 196
    3697:	2492d2                                    	l16si	a13, a2, 72
    369a:	4b5582                                    	s16i	a8, a5, 150
    369d:	39a672                                    	movi	a7, 0x639
    36a0:	385cb2                                    	s16i	a11, a12, 112
    36a3:	4a95b2                                    	l16si	a11, a5, 148
    36a6:	0fa482                                    	movi	a8, 0x40f
    36a9:	3b5cd2                                    	s16i	a13, a12, 118
    36ac:	131222                                    	l16ui	a2, a2, 38
    36af:	066f16                                    	beqz	a15, 3719 <SBAEC_INIT+0x311>
    36b2:	43a792                                    	movi	a9, 0x743
    36b5:	1188a0                                    	slli	a8, a8, 6
    36b8:	63d3a2                                    	addmi	a10, a3, 0x6300
    36bb:	1177c0                                    	slli	a7, a7, 4
    36be:	1122e0                                    	slli	a2, a2, 2
    36c1:	1199d0                                    	slli	a9, a9, 3
    36c4:	4322b0                                    	min	a2, a2, a11
    36c7:	c68a                                    	add.n	a12, a6, a8
    36c9:	5b5a22                                    	s16i	a2, a10, 182
    36cc:	237a                                    	add.n	a2, a3, a7
    36ce:	d69a                                    	add.n	a13, a6, a9
    36d0:	f2f561                                    	l32r	a6, 2a4 (3a54 <Fill_CH_MEM_CH5>)
    36d3:	02ad                                    	mov.n	a10, a2
    36d5:	0e7d                                    	mov.n	a7, a14
    36d7:	0006e0                                    	callx8	a6
    36da:	04f8                                    	l32i.n	a15, a4, 0
    36dc:	0768                                    	l32i.n	a6, a7, 0
    36de:	f2f2e1                                    	l32r	a14, 2a8 (10818 <NR_NoiseWithGain+0xc4>)
    36e1:	63d332                                    	addmi	a3, a3, 0x6300
    36e4:	4a95b2                                    	l16si	a11, a5, 148
    36e7:	1d0c                                    	movi.n	a13, 1
    36e9:	03df72                                    	addmi	a7, a15, 0x300
    36ec:	02ad                                    	mov.n	a10, a2
    36ee:	66ea                                    	add.n	a6, a6, a14
    36f0:	3f97c2                                    	l16si	a12, a7, 126
    36f3:	0688                                    	l32i.n	a8, a6, 0
    36f5:	2668                                    	l32i.n	a6, a6, 8
    36f7:	356382                                    	s32i	a8, a3, 212
    36fa:	366362                                    	s32i	a6, a3, 216
    36fd:	f2e731                                    	l32r	a3, 29c (3940 <Fill_sbco>)
    3700:	0003e0                                    	callx8	a3
    3703:	0438                                    	l32i.n	a3, a4, 0
    3705:	02ad                                    	mov.n	a10, a2
    3707:	f2e621                                    	l32r	a2, 2a0 (3984 <Fill_sbco_v2>)
    370a:	04d332                                    	addmi	a3, a3, 0x400
    370d:	0803b2                                    	l8ui	a11, a3, 8
    3710:	0903c2                                    	l8ui	a12, a3, 9
    3713:	0a03d2                                    	l8ui	a13, a3, 10
    3716:	0002e0                                    	callx8	a2
    3719:	f01d                                    	retw.n

0000371b <SBAEC_INIT+0x313>:
	...

0000371c <SBAEC_INIT_inear>:
    371c:	00a136                                    	entry	a1, 80
    371f:	f27b41                                    	l32r	a4, 10c (190f8 <aec_nr_para>)
    3722:	65d282                                    	addmi	a8, a2, 0x6500
    3725:	65d262                                    	addmi	a6, a2, 0x6500
    3728:	b139                                    	s32i.n	a3, a1, 44
    372a:	a189                                    	s32i.n	a8, a1, 40
    372c:	499882                                    	l16si	a8, a8, 146
    372f:	0478                                    	l32i.n	a7, a4, 0
    3731:	9169                                    	s32i.n	a6, a1, 36
    3733:	479652                                    	l16si	a5, a6, 142
    3736:	65d232                                    	addmi	a3, a2, 0x6500
    3739:	64d2a2                                    	addmi	a10, a2, 0x6400
    373c:	489662                                    	l16si	a6, a6, 144
    373f:	131772                                    	l16ui	a7, a7, 38
    3742:	469392                                    	l16si	a9, a3, 140
    3745:	64d2e2                                    	addmi	a14, a2, 0x6400
    3748:	2b5a72                                    	s16i	a7, a10, 86
    374b:	4da6d2                                    	movi	a13, 0x64d
    374e:	035a72                                    	s16i	a7, a10, 6
    3751:	535e72                                    	s16i	a7, a14, 166
    3754:	11adc0                                    	slli	a10, a13, 4
    3757:	1177f0                                    	slli	a7, a7, 1
    375a:	1fa3f2                                    	movi	a15, 0x31f
    375d:	437780                                    	min	a7, a7, a8
    3760:	898a                                    	add.n	a8, a9, a8
    3762:	7b5e72                                    	s16i	a7, a14, 246
    3765:	756a                                    	add.n	a7, a5, a6
    3767:	43a6b2                                    	movi	a11, 0x643
    376a:	887a                                    	add.n	a8, a8, a7
    376c:	c9a0c2                                    	movi	a12, 201
    376f:	11ffb0                                    	slli	a15, a15, 5
    3772:	ffa6e2                                    	movi	a14, 0x6ff
    3775:	11bbc0                                    	slli	a11, a11, 4
    3778:	b08820                                    	addx8	a8, a8, a2
    377b:	119ed0                                    	slli	a9, a14, 3
    377e:	11cc90                                    	slli	a12, a12, 7
    3781:	62ba                                    	add.n	a6, a2, a11
    3783:	52fa                                    	add.n	a5, a2, a15
    3785:	20d8f2                                    	addmi	a15, a8, 0x2000
