
Build/lib/pisplit_ec_rxnr_swb_position_independent.splitload.lib:     file format elf32-xtensa-le


Disassembly of section .text:

00000000 <_init-0x380>:
       0:	000003d0 0000a58c 0000b21c 00000000     ................
      10:	0000b1e4 00000000 0000b204 0000d8e8     ................
      20:	0000d8e0 0000a5c4 0000c7a0 0000c9c0     ................
      30:	0000c8b0 0000cad0 000007b4 0000b5d0     ................
      40:	0000b640 0000d8e4 0000b298 00001de8     @...............
      50:	0000b2b1 00001e78 0000b2c5 00005418     ....x........T..
      60:	0000b2d9 00005228 0000b2f1 000055d0     ....(R.......U..
      70:	0000b30c 00005cac 0000b320 00005488     .....\.. ....T..
      80:	0000b337 00005a14 0000b34b 000054f0     7....Z..K....T..
      90:	0000b362 00001df4 0000b381 00002204     b............"..
      a0:	0000b39b 00005434 0000b3b5 00005628     ....4T......(V..
      b0:	0000b3d6 00001de0 0000b3e9 00005650     ............PV..
      c0:	0000b407 000056c0 0000b429 00002f10     .....V..)..../..
      d0:	0000b441 00005450 0000b459 00002f3c     A...PT..Y...</..
      e0:	0000b477 0000546c 0000b495 000053cc     w...lT.......S..
      f0:	0000b4b1 00005fe8 0000b4c6 00005560     ....._......`U..
     100:	0000b4de 000056d0 0000b4ff 000056a0     .....V.......V..
     110:	0000b520 00005708 0000b230 0000a5b0      ....W..0.......
     120:	00300040 00200018 00c00100 00600040     @.0... .....@.`.
     130:	00155555 0000101c 00001000 000010a4     UU..............
     140:	002aaa00 0000b540 00007324 00007270     ..*.@...$s..pr..
     150:	000010b4 00001894 000019bc 00001194     ................
     160:	000012dc 000013ec 01507ca0 00000424     .........|P.$...
     170:	00001e28 00000a18 00005d80 00007e40     (........]..@~..
     180:	00005da4 0000dfff 00000e74 7fff0000     .]......t.......
     190:	000023e8 0000cc60 000024c0 0000255c     .#..`....$..\%..
     1a0:	0000cbe0 0000b770 0000b7f0 00000824     ....p.......$...
     1b0:	00000890 0000062c 0000c540 00002900     ....,...@....)..
     1c0:	000032a4 00003498 000023b4 00003540     .2...4...#..@5..
     1d0:	000049c4 00005dc4 0000269c 00004d78     .I...]...&..xM..
     1e0:	0000572c 0000260c 0000c500 7f800080     ,W...&..........
     1f0:	78000800 00017fff 7c000400 00002d74     ...x.......|t-..
     200:	000014f8 00002f68 0000272c 00001a10     ....h/..,'......
     210:	00002a1c 00008724 000030b8 000082e4     .*..$....0......
     220:	00008b30 00008924 000091b8 00002d0c     0...$........-..
     230:	00009404 0000980c 00009a44 00002844     ........D...D(..
     240:	00003084 0006ffff 00008fb8 00001d54     .0..........T...
     250:	00001d98 00002edc 0000523c 0000a394     ........<R......
     260:	0000a10c 4ec4ec4f 00003144 00005070     ....O..ND1..pP..
     270:	00005cec 00005a5c 0000603c 00009ef8     .\..\Z..<`......
     280:	00009ee4 00009ec0 0000c580 ffe9ffe9     ................
     290:	0000c0c0 0000b910 00009f7c 00000524     ........|...$...
     2a0:	000057b4 00005aac 000061a4 000063a4     .W...Z...a...c..
     2b0:	0000658c 0000680c 000069b4 00006ae4     .e...h...i...j..
     2c0:	00007070 0000bb30 00005af0 00005d3c     pp..0....Z..<]..
     2d0:	000060f8 035e5100 0000cc80 0000755c     .`...Q^.....\u..
     2e0:	00006134 0000b8d0 0000b900 0000bc60     4a..........`...
     2f0:	0000b5b0 00006090 12492500 0000b8f0     .....`...%I.....
     300:	0ccccd00 0000bc40 0e38e400 0000b8b0     ....@.....8.....
     310:	80000001 0000d480 00007a80 00007ad0     .........z...z..
     320:	00007aa8 00007360 00007a58 00007c60     .z..`s..Xz..`|..
     330:	00007af8 00007bf0 00007c88 5a820000     .z...{...|.....Z
     340:	0e390000 0d330000 0ccccc00 00393e4b     ..9...3.....K>9.
     350:	15555500 00175e97 00007cc0 00008280     .UU..^...|......
     360:	c0010000 3fff0000 0000d880 0000d8a0     .......?........
     370:	000006b0 0000a200 0000b1ec 00000398     ................

00000380 <_init>:
     380:	008136                                    	entry	a1, 64
     383:	ff1f81                                    	l32r	a8, 0 (3d0 <frame_dummy>)
     386:	f03d                                    	nop.n
     388:	0008e0                                    	callx8	a8
     38b:	ff1e81                                    	l32r	a8, 4 (a58c <__do_global_ctors_aux>)
     38e:	f03d                                    	nop.n
     390:	0008e0                                    	callx8	a8
     393:	f01d                                    	retw.n

00000395 <_init+0x15>:
     395:	000000                                        ...

00000398 <__do_global_dtors_aux>:
     398:	004136                                    	entry	a1, 32
     39b:	ff1b21                                    	l32r	a2, 8 (b21c <__do_global_dtors_aux.completed>)
     39e:	000232                                    	l8ui	a3, a2, 0
     3a1:	63ec                                    	bnez.n	a3, 3cb <__do_global_dtors_aux+0x33>

000003a3 <__do_global_dtors_aux+0xb>:
     3a3:	1248                                    	l32i.n	a4, a2, 4
     3a5:	0438                                    	l32i.n	a3, a4, 0
     3a7:	04028424000163ae                  	{ beqz.w15	a3, 3b8 <__do_global_dtors_aux+0x20>; addi	a4, a4, 4 }
     3af:	1249                                    	s32i.n	a4, a2, 4
     3b1:	0003e0                                    	callx8	a3
     3b4:	fffac6                                    	j	3a3 <__do_global_dtors_aux+0xb>

000003b7 <__do_global_dtors_aux+0x1f>:
	...

000003b8 <__do_global_dtors_aux+0x20>:
     3b8:	ff1531                                    	l32r	a3, c (0 <_text_start>)
     3bb:	ff15a1                                    	l32r	a10, 10 (b1e4 <__FRAME_END__>)
     3be:	438c                                    	beqz.n	a3, 3c6 <__do_global_dtors_aux+0x2e>
     3c0:	ff1381                                    	l32r	a8, c (0 <_text_start>)
     3c3:	0008e0                                    	callx8	a8
     3c6:	130c                                    	movi.n	a3, 1
     3c8:	004232                                    	s8i	a3, a2, 0
     3cb:	f01d                                    	retw.n

000003cd <__do_global_dtors_aux+0x35>:
     3cd:	000000                                        ...

000003d0 <frame_dummy>:
     3d0:	004136                                    	entry	a1, 32
     3d3:	ff1021                                    	l32r	a2, 14 (0 <_text_start>)
     3d6:	ff0ea1                                    	l32r	a10, 10 (b1e4 <__FRAME_END__>)
     3d9:	ff0fb1                                    	l32r	a11, 18 (b204 <frame_dummy.object>)
     3dc:	428c                                    	beqz.n	a2, 3e4 <frame_dummy+0x14>
     3de:	ff0d81                                    	l32r	a8, 14 (0 <_text_start>)
     3e1:	0008e0                                    	callx8	a8

000003e4 <frame_dummy+0x14>:
     3e4:	f01d                                    	retw.n

000003e6 <frame_dummy+0x16>:
	...

000003f0 <SWB_EQ_apply>:
     3f0:	004136                                    	entry	a1, 32
     3f3:	00a142                                    	movi	a4, 0x100
     3f6:	fec332                                    	addi	a3, a3, -2
     3f9:	078476                                    	loop	a4, 404 <SWB_EQ_apply+0x14>
     3fc:	334d                                    	ae_l16si.n	a4, a3, 2
     3fe:	332b                                    	addi.n	a3, a3, 2
     400:	624d                                    	ae_s16i.n	a4, a2, 0
     402:	222b                                    	addi.n	a2, a2, 2

00000404 <SWB_EQ_apply+0x14>:
     404:	80a042                                    	movi	a4, 128
     407:	148476                                    	loop	a4, 41f <SWB_EQ_apply+0x2f>
     40a:	434d                                    	ae_l16ui.n	a4, a3, 0
     40c:	535d                                    	ae_l16ui.n	a5, a3, 2
     40e:	445a                                    	add.n	a4, a4, a5
     410:	441b                                    	addi.n	a4, a4, 1
     412:	414140                                    	srli	a4, a4, 1
     415:	624d                                    	ae_s16i.n	a4, a2, 0
     417:	334d                                    	ae_l16si.n	a4, a3, 2
     419:	332b                                    	addi.n	a3, a3, 2
     41b:	724d                                    	ae_s16i.n	a4, a2, 2
     41d:	224b                                    	addi.n	a2, a2, 4
     41f:	f01d                                    	retw.n

00000421 <SWB_EQ_apply+0x31>:
     421:	000000                                        ...

00000424 <TX_ECNR_PARA_init>:
     424:	006136                                    	entry	a1, 48
     427:	3129                                    	s32i.n	a2, a1, 12
     429:	0c3c                                    	movi.n	a12, 48
     42b:	fefc21                                    	l32r	a2, 1c (d8e8 <p_ecnr_mem>)
     42e:	03bd                                    	mov.n	a11, a3
     430:	fefc71                                    	l32r	a7, 20 (d8e0 <aec_nr_para>)
     433:	0268                                    	l32i.n	a6, a2, 0
     435:	0769                                    	s32i.n	a6, a7, 0
     437:	a68b                                    	addi.n	a10, a6, 8
     439:	fefa61                                    	l32r	a6, 24 (a5c4 <xt_memcpy>)
     43c:	0006e0                                    	callx8	a6
     43f:	0738                                    	l32i.n	a3, a7, 0
     441:	88a182                                    	movi	a8, 0x188
     444:	a1a0c2                                    	movi	a12, 161
     447:	05bd                                    	mov.n	a11, a5
     449:	a38a                                    	add.n	a10, a3, a8
     44b:	0006e0                                    	callx8	a6
     44e:	0738                                    	l32i.n	a3, a7, 0
     450:	90a0c2                                    	movi	a12, 144
     453:	04bd                                    	mov.n	a11, a4
     455:	050c                                    	movi.n	a5, 0
     457:	68c3a2                                    	addi	a10, a3, 104
     45a:	0006e0                                    	callx8	a6
     45d:	0248                                    	l32i.n	a4, a2, 0
     45f:	580c                                    	movi.n	a8, 5
     461:	0349                                    	s32i.n	a4, a3, 0
     463:	cc7c                                    	movi.n	a12, -4
     465:	0738                                    	l32i.n	a3, a7, 0
     467:	0248                                    	l32i.n	a4, a2, 0
     469:	feefe1                                    	l32r	a14, 28 (c7a0 <HPF_4K_COEF>)
     46c:	f4c0c0                                    	extui	a12, a12, 0, 16
     46f:	cca2f2                                    	movi	a15, 0x2cc
     472:	3128                                    	l32i.n	a2, a1, 12
     474:	69c3a2                                    	addi	a10, a3, 105
     477:	22d442                                    	addmi	a4, a4, 0x2200
     47a:	ff0aa2                                    	l8ui	a10, a10, 255
     47d:	1e93b2                                    	l16si	a11, a3, 60
     480:	049392                                    	l16si	a9, a3, 8
     483:	2b54b2                                    	s16i	a11, a4, 86
     486:	1313b2                                    	l16ui	a11, a3, 38
     489:	2a5492                                    	s16i	a9, a4, 84
     48c:	90daa0                                    	addx2	a13, a10, a10
     48f:	6288a0                                    	saltu	a8, a8, a10
     492:	e09da0                                    	subx4	a9, a13, a10
     495:	835980                                    	moveqz	a5, a9, a8
     498:	104bc0                                    	and	a4, a11, a12
     49b:	a3fa                                    	add.n	a10, a3, a15
     49d:	a0b5e0                                    	addx4	a11, a5, a14
     4a0:	6c1c                                    	movi.n	a12, 22
     4a2:	135342                                    	s16i	a4, a3, 38
     4a5:	0006e0                                    	callx8	a6
     4a8:	fee141                                    	l32r	a4, 2c (c9c0 <HPF_16K_COEF>)
     4ab:	50a382                                    	movi	a8, 0x350
     4ae:	0738                                    	l32i.n	a3, a7, 0
     4b0:	6c1c                                    	movi.n	a12, 22
     4b2:	a0b540                                    	addx4	a11, a5, a4
     4b5:	074d                                    	mov.n	a4, a7
     4b7:	a38a                                    	add.n	a10, a3, a8
     4b9:	10a452                                    	movi	a5, 0x410
     4bc:	0006e0                                    	callx8	a6
     4bf:	062266                                    	bnei	a2, 2, 4c9 <TX_ECNR_PARA_init+0xa5>
     4c2:	0738                                    	l32i.n	a3, a7, 0
     4c4:	235a                                    	add.n	a2, a3, a5
     4c6:	000446                                    	j	4db <TX_ECNR_PARA_init+0xb7>

000004c9 <TX_ECNR_PARA_init+0xa5>:
     4c9:	0738                                    	l32i.n	a3, a7, 0
     4cb:	051266                                    	bnei	a2, 1, 4d4 <TX_ECNR_PARA_init+0xb0>
     4ce:	2ca122                                    	movi	a2, 0x12c
     4d1:	000086                                    	j	4d7 <TX_ECNR_PARA_init+0xb3>

000004d4 <TX_ECNR_PARA_init+0xb0>:
     4d4:	2aa122                                    	movi	a2, 0x12a

000004d7 <TX_ECNR_PARA_init+0xb3>:
     4d7:	232a                                    	add.n	a2, a3, a2
     4d9:	047d                                    	mov.n	a7, a4
     4db:	fed061                                    	l32r	a6, 1c (d8e8 <p_ecnr_mem>)
     4de:	454c                                    	movi.n	a5, 68
     4e0:	222d                                    	ae_l16si.n	a2, a2, 0
     4e2:	50a1f2                                    	movi	a15, 0x150
     4e5:	025322                                    	s16i	a2, a3, 4
     4e8:	22d552                                    	addmi	a5, a5, 0x2200
     4eb:	0648                                    	l32i.n	a4, a6, 0
     4ed:	b3fa                                    	add.n	a11, a3, a15
     4ef:	fecd21                                    	l32r	a2, 24 (a5c4 <xt_memcpy>)
     4f2:	4c0c                                    	movi.n	a12, 4
     4f4:	a45a                                    	add.n	a10, a4, a5
     4f6:	0002e0                                    	callx8	a2
     4f9:	0738                                    	l32i.n	a3, a7, 0
     4fb:	0648                                    	l32i.n	a4, a6, 0
     4fd:	04d3e2                                    	addmi	a14, a3, 0x400
     500:	231322                                    	l16ui	a2, a3, 70
     503:	0d1e52                                    	l16ui	a5, a14, 26
     506:	70d462                                    	addmi	a6, a4, 0x7000
     509:	0e9ef2                                    	l16si	a15, a14, 28
     50c:	75d432                                    	addmi	a3, a4, 0x7500
     50f:	535622                                    	s16i	a2, a6, 166
     512:	1122f0                                    	slli	a2, a2, 1
     515:	4553f2                                    	s16i	a15, a3, 138
     518:	058c                                    	beqz.n	a5, 51c <TX_ECNR_PARA_init+0xf8>
     51a:	f01d                                    	retw.n

0000051c <TX_ECNR_PARA_init+0xf8>:
     51c:	455322                                    	s16i	a2, a3, 138
     51f:	f01d                                    	retw.n

00000521 <TX_ECNR_PARA_init+0xfd>:
     521:	000000                                        ...

00000524 <RX_ECNR_PARA_init>:
     524:	006136                                    	entry	a1, 48
     527:	febd71                                    	l32r	a7, 1c (d8e8 <p_ecnr_mem>)
     52a:	90a0c2                                    	movi	a12, 144
     52d:	3129                                    	s32i.n	a2, a1, 12
     52f:	03bd                                    	mov.n	a11, a3
     531:	febb21                                    	l32r	a2, 20 (d8e0 <aec_nr_para>)
     534:	0758                                    	l32i.n	a5, a7, 0
     536:	febb61                                    	l32r	a6, 24 (a5c4 <xt_memcpy>)
     539:	0259                                    	s32i.n	a5, a2, 0
     53b:	68c5a2                                    	addi	a10, a5, 104
     53e:	0006e0                                    	callx8	a6
     541:	0738                                    	l32i.n	a3, a7, 0
     543:	ffa592                                    	movi	a9, 0x5ff
     546:	0539                                    	s32i.n	a3, a5, 0
     548:	070c                                    	movi.n	a7, 0
     54a:	0238                                    	l32i.n	a3, a2, 0
     54c:	f8a2f2                                    	movi	a15, 0x2f8
     54f:	feb781                                    	l32r	a8, 2c (c9c0 <HPF_16K_COEF>)
     552:	6c1c                                    	movi.n	a12, 22
     554:	b413d2                                    	l16ui	a13, a3, 0x168
     557:	41a8d0                                    	srli	a10, a13, 8
     55a:	6259d0                                    	saltu	a5, a9, a13
     55d:	90eaa0                                    	addx2	a14, a10, a10
     560:	e09ea0                                    	subx4	a9, a14, a10
     563:	a3fa                                    	add.n	a10, a3, a15
     565:	837950                                    	moveqz	a7, a9, a5
     568:	a0b780                                    	addx4	a11, a7, a8
     56b:	0006e0                                    	callx8	a6
     56e:	0238                                    	l32i.n	a3, a2, 0
     570:	24a382                                    	movi	a8, 0x324
     573:	feaf51                                    	l32r	a5, 30 (c8b0 <HPF_8K_COEF>)
     576:	6c1c                                    	movi.n	a12, 22
     578:	3128                                    	l32i.n	a2, a1, 12
     57a:	a38a                                    	add.n	a10, a3, a8
     57c:	1ea432                                    	movi	a3, 0x41e
     57f:	a0b750                                    	addx4	a11, a7, a5
     582:	065d                                    	mov.n	a5, a6
     584:	0006e0                                    	callx8	a6
     587:	92bc                                    	beqz.n	a2, 5c4 <RX_ECNR_PARA_init+0xa0>
     589:	b42b                                    	addi.n	a11, a4, 2
     58b:	4c2266                                    	bnei	a2, 2, 5db <RX_ECNR_PARA_init+0xb7>
     58e:	fea421                                    	l32r	a2, 20 (d8e0 <aec_nr_para>)
     591:	1ea432                                    	movi	a3, 0x41e
     594:	00a152                                    	movi	a5, 0x100
     597:	0228                                    	l32i.n	a2, a2, 0
     599:	323a                                    	add.n	a3, a2, a3
     59b:	078576                                    	loop	a5, 5a6 <RX_ECNR_PARA_init+0x82>
     59e:	345d                                    	ae_l16si.n	a5, a4, 2
     5a0:	442b                                    	addi.n	a4, a4, 2
     5a2:	635d                                    	ae_s16i.n	a5, a3, 0
     5a4:	332b                                    	addi.n	a3, a3, 2

000005a6 <RX_ECNR_PARA_init+0x82>:
     5a6:	80a052                                    	movi	a5, 128
     5a9:	148576                                    	loop	a5, 5c1 <RX_ECNR_PARA_init+0x9d>
     5ac:	445d                                    	ae_l16ui.n	a5, a4, 0
     5ae:	546d                                    	ae_l16ui.n	a6, a4, 2
     5b0:	556a                                    	add.n	a5, a5, a6
     5b2:	551b                                    	addi.n	a5, a5, 1
     5b4:	415150                                    	srli	a5, a5, 1
     5b7:	635d                                    	ae_s16i.n	a5, a3, 0
     5b9:	345d                                    	ae_l16si.n	a5, a4, 2
     5bb:	442b                                    	addi.n	a4, a4, 2
     5bd:	735d                                    	ae_s16i.n	a5, a3, 2
     5bf:	334b                                    	addi.n	a3, a3, 4
     5c1:	000e46                                    	j	5fe <RX_ECNR_PARA_init+0xda>

000005c4 <RX_ECNR_PARA_init+0xa0>:
     5c4:	fe9761                                    	l32r	a6, 20 (d8e0 <aec_nr_para>)
     5c7:	1ea432                                    	movi	a3, 0x41e
     5ca:	b42b                                    	addi.n	a11, a4, 2
     5cc:	00a2c2                                    	movi	a12, 0x200
     5cf:	0628                                    	l32i.n	a2, a6, 0
     5d1:	a23a                                    	add.n	a10, a2, a3
     5d3:	0005e0                                    	callx8	a5
     5d6:	0628                                    	l32i.n	a2, a6, 0
     5d8:	000886                                    	j	5fe <RX_ECNR_PARA_init+0xda>

000005db <RX_ECNR_PARA_init+0xb7>:
     5db:	fe9161                                    	l32r	a6, 20 (d8e0 <aec_nr_para>)
     5de:	80a0c2                                    	movi	a12, 128
     5e1:	1ea572                                    	movi	a7, 0x51e
     5e4:	0628                                    	l32i.n	a2, a6, 0
     5e6:	a23a                                    	add.n	a10, a2, a3
     5e8:	130c                                    	movi.n	a3, 1
     5ea:	0005e0                                    	callx8	a5
     5ed:	0628                                    	l32i.n	a2, a6, 0
     5ef:	80a052                                    	movi	a5, 128
     5f2:	113340                                    	slli	a3, a3, 12
     5f5:	427a                                    	add.n	a4, a2, a7
     5f7:	038576                                    	loop	a5, 5fe <RX_ECNR_PARA_init+0xda>
     5fa:	643d                                    	ae_s16i.n	a3, a4, 0
     5fc:	442b                                    	addi.n	a4, a4, 2

000005fe <RX_ECNR_PARA_init+0xda>:
     5fe:	fe8731                                    	l32r	a3, 1c (d8e8 <p_ecnr_mem>)
     601:	229222                                    	l16si	a2, a2, 68
     604:	0338                                    	l32i.n	a3, a3, 0
     606:	220b                                    	addi.n	a2, a2, -1
     608:	70d332                                    	addmi	a3, a3, 0x7000
     60b:	525322                                    	s16i	a2, a3, 164
     60e:	f01d                                    	retw.n

00000610 <EQ_update>:
     610:	004136                                    	entry	a1, 32
     613:	fe8241                                    	l32r	a4, 1c (d8e8 <p_ecnr_mem>)
     616:	852c                                    	movi.n	a5, 40
     618:	70d552                                    	addmi	a5, a5, 0x7000
     61b:	2c0c                                    	movi.n	a12, 2
     61d:	a25a                                    	add.n	a10, a2, a5
     61f:	03bd                                    	mov.n	a11, a3
     621:	0429                                    	s32i.n	a2, a4, 0
     623:	fe8021                                    	l32r	a2, 24 (a5c4 <xt_memcpy>)
     626:	0002e0                                    	callx8	a2
     629:	f01d                                    	retw.n

0000062b <EQ_update+0x1b>:
	...

0000062c <ECNR_SWB_PARA_init>:
     62c:	004136                                    	entry	a1, 32
     62f:	fe7b21                                    	l32r	a2, 1c (d8e8 <p_ecnr_mem>)
     632:	7ea362                                    	movi	a6, 0x37e
     635:	b42b                                    	addi.n	a11, a4, 2
     637:	0c5c                                    	movi.n	a12, 80
     639:	0258                                    	l32i.n	a5, a2, 0
     63b:	01d332                                    	addmi	a3, a3, 0x100
     63e:	fe7921                                    	l32r	a2, 24 (a5c4 <xt_memcpy>)
     641:	570c                                    	movi.n	a7, 5
     643:	a56a                                    	add.n	a10, a5, a6
     645:	040c                                    	movi.n	a4, 0
     647:	0002e0                                    	callx8	a2
     64a:	000362                                    	l8ui	a6, a3, 0
     64d:	90a3f2                                    	movi	a15, 0x390
     650:	fe7991                                    	l32r	a9, 34 (cad0 <HPF_32K_COEF>)
     653:	a5fa                                    	add.n	a10, a5, a15
     655:	6c1c                                    	movi.n	a12, 22
     657:	908660                                    	addx2	a8, a6, a6
     65a:	627760                                    	saltu	a7, a7, a6
     65d:	e06860                                    	subx4	a6, a8, a6
     660:	936470                                    	movnez	a6, a4, a7
     663:	ffa572                                    	movi	a7, 0x5ff
     666:	a0b690                                    	addx4	a11, a6, a9
     669:	0002e0                                    	callx8	a2
     66c:	010362                                    	l8ui	a6, a3, 1
     66f:	bca3e2                                    	movi	a14, 0x3bc
     672:	0003d2                                    	l8ui	a13, a3, 0
     675:	6c1c                                    	movi.n	a12, 22
     677:	fe6ff1                                    	l32r	a15, 34 (cad0 <HPF_32K_COEF>)
     67a:	a5ea                                    	add.n	a10, a5, a14
     67c:	116680                                    	slli	a6, a6, 8
     67f:	36da                                    	add.n	a3, a6, a13
     681:	416830                                    	srli	a6, a3, 8
     684:	623730                                    	saltu	a3, a7, a3
     687:	908660                                    	addx2	a8, a6, a6
     68a:	e06860                                    	subx4	a6, a8, a6
     68d:	936430                                    	movnez	a6, a4, a3
     690:	a0b6f0                                    	addx4	a11, a6, a15
     693:	0002e0                                    	callx8	a2
     696:	fe6131                                    	l32r	a3, 1c (d8e8 <p_ecnr_mem>)
     699:	04d522                                    	addmi	a2, a5, 0x400
     69c:	079222                                    	l16si	a2, a2, 14
     69f:	0338                                    	l32i.n	a3, a3, 0
     6a1:	75d332                                    	addmi	a3, a3, 0x7500
     6a4:	445322                                    	s16i	a2, a3, 136
     6a7:	f01d                                    	retw.n

000006a9 <ECNR_SWB_PARA_init+0x7d>:
     6a9:	00000000                                 .......

000006b0 <comfort_noise_gen_wb2>:
     6b0:	008136                                    	entry	a1, 64
     6b3:	3f2232                                    	l32i	a3, a2, 252
     6b6:	452242                                    	l32i	a4, a2, 0x114
     6b9:	5149                                    	s32i.n	a4, a1, 20
     6bb:	0d070045188002fe                  	{ l16ui	a15, a2, 46; ae_movi	aed0, 0 }
     6c3:	799252                                    	l16si	a5, a2, 242
     6c6:	961272                                    	l16ui	a7, a2, 0x12c
     6c9:	fcc342                                    	addi	a4, a3, -4
     6cc:	37046fc000dfa14e                  	{ ae_s32m.iu	aed0, a4, 4; movi	a6, -1 }
     6d4:	3302e5c000dfb14e                  	{ ae_s32m.iu	aed0, a4, 4; addi	a3, a5, -1 }
     6dc:	1903624000c5b14e                  	{ ae_s32m.iu	aed0, a4, 4; l16si	a9, a2, 42 }
     6e4:	6129                                    	s32i.n	a2, a1, 24
     6e6:	41f9                                    	s32i.n	a15, a1, 16
     6e8:	0f03e14000c1a14e                  	{ ae_s32m.iu	aed0, a4, 4; l32i	a14, a1, 16 }
     6f0:	022ff6                                    	bgeui	a15, 2, 6f6 <comfort_noise_gen_wb2+0x46>
     6f3:	002106                                    	j	77b <comfort_noise_gen_wb2+0xcb>
     6f6:	51f8                                    	l32i.n	a15, a1, 20
     6f8:	7139                                    	s32i.n	a3, a1, 28
     6fa:	5e0b                                    	addi.n	a5, a14, -1
     6fc:	fccf22                                    	addi	a2, a15, -4

000006ff <comfort_noise_gen_wb2+0x4f>:
     6ff:	51f8                                    	l32i.n	a15, a1, 20
     701:	028d                                    	mov.n	a8, a2
     703:	71a8                                    	l32i.n	a10, a1, 28
     705:	093d                                    	mov.n	a3, a9
     707:	a38f60                                    	movltz	a8, a15, a6
     70a:	08b8                                    	l32i.n	a11, a8, 0
     70c:	fe4b81                                    	l32r	a8, 38 (7b4 <HIFI_sqrt>)
     70f:	0008e0                                    	callx8	a8
     712:	75a0d2                                    	movi	a13, 117
     715:	039d                                    	mov.n	a9, a3
     717:	bbdd32                                    	addmi	a3, a13, 0xffffbb00
     71a:	f1a3e2                                    	movi	a14, 0x3f1
     71d:	828730                                    	mull	a8, a7, a3
     720:	21070b441ce12eee                  	{ addx8	a3, a14, a14; ae_cvt48a32	aed1, a11 }
     728:	827730                                    	mull	a7, a7, a3
     72b:	39068a4004b3f87e                  	{ ae_cvtp24a16x2.ll	aed0, a8, a7; add	a15, a10, a9 }
     733:	228113003020400e                  	{ ae_sel16i	aed2, aed0, aed0, 1; nop; ae_mulf48q32sp16s.l	aed0, aed1, aed0 }
     73b:	550b                                    	addi.n	a5, a5, -1
     73d:	04c222                                    	addi	a2, a2, 4
     740:	2281b30c2022166e                  	{ addi	a6, a6, 1; nop; ae_mulf48q32sp16s.l	aed1, aed1, aed2 }
     748:	220700c010a51f0e                  	{ ae_slaasq56s	aed0, aed0, a15; nop }
     750:	0ead217b09040cd0c58061381c017f1f 	{ ae_slaasq56s	aed1, aed1, a15; nop; nop; ae_roundsq32f48sym	aed0, aed0 }
     760:	0ead217b0d2c0cd0c58461390801014f 	{ ae_s32m.iu	aed0, a4, 4; nop; nop; ae_roundsq32f48sym	aed1, aed1 }
     770:	230760c008c5b14e                  	{ ae_s32m.iu	aed1, a4, 4; nop }
     778:	f83556                                    	bnez	a5, 6ff <comfort_noise_gen_wb2+0x4f>
     77b:	6168                                    	l32i.n	a6, a1, 24
     77d:	ffa032                                    	movi	a3, 255
     780:	0421f2                                    	l32i	a15, a1, 16
     783:	0c07404118800f5e                  	{ movi	a5, 127; ae_movi	aed0, 0 }
     78b:	330622                                    	l8ui	a2, a6, 51
     78e:	965672                                    	s16i	a7, a6, 0x12c
     791:	412320                                    	srli	a2, a2, 3
     794:	935320                                    	movnez	a5, a3, a2
     797:	c025f0                                    	sub	a2, a5, a15
     79a:	1212a6                                    	blti	a2, 1, 7b0 <comfort_noise_gen_wb2+0x100>
     79d:	0f8276                                    	loop	a2, 7b0 <comfort_noise_gen_wb2+0x100>
     7a0:	230760c000c5b14e                  	{ ae_s32m.iu	aed0, a4, 4; nop }
     7a8:	230760c000c5b14e                  	{ ae_s32m.iu	aed0, a4, 4; nop }

000007b0 <comfort_noise_gen_wb2+0x100>:
     7b0:	f01d                                    	retw.n

000007b2 <comfort_noise_gen_wb2+0x102>:
	...

000007b4 <HIFI_sqrt>:
     7b4:	004136                                    	entry	a1, 32
     7b7:	070c                                    	movi.n	a7, 0
     7b9:	6113a6                                    	blti	a3, 1, 81e <HIFI_sqrt+0x6a>
     7bc:	40e340                                    	nsa	a4, a3
     7bf:	c02240                                    	sub	a2, a2, a4
     7c2:	401400                                    	ssl	a4
     7c5:	044020                                    	extui	a4, a2, 0, 1
     7c8:	a1d300                                    	sll	a13, a3
     7cb:	400400                                    	ssr	a4
     7ce:	fe1b51                                    	l32r	a5, 3c (b5d0 <TABLE_SQRT>)
     7d1:	b130d0                                    	sra	a3, a13
     7d4:	242a                                    	add.n	a2, a4, a2
     7d6:	656930                                    	extui	a6, a3, 25, 7
     7d9:	413930                                    	srli	a3, a3, 9
     7dc:	070286c004bce33e                  	{ ae_cvtp24a16x2.ll	aed0, a3, a3; addi	a6, a6, -16 }
     7e4:	536670                                    	max	a6, a6, a7
     7e7:	905650                                    	addx2	a5, a6, a5
     7ea:	456d                                    	ae_l16ui.n	a6, a5, 0
     7ec:	355d                                    	ae_l16si.n	a5, a5, 2
     7ee:	11f600                                    	slli	a15, a6, 16
     7f1:	21070f4314e1456e                  	{ sub	a14, a5, a6; ae_cvt48a32	aed1, a15 }
     7f9:	113e00                                    	slli	a3, a14, 16
     7fc:	2107234010a2212e                  	{ srai	a2, a2, 1; ae_cvt48a32	aed2, a3 }
     804:	20834f0b3440b13e                  	{ nop; nop; ae_mulaq32sp16u.l	aed1, aed2, aed0 }
     80c:	0ead257b0d240cd0c400813b0c01631f 	{ ae_trunca32q48	a3, aed1; nop; nop; nop }
     81c:	f01d                                    	retw.n

0000081e <HIFI_sqrt+0x6a>:
     81e:	020c                                    	movi.n	a2, 0
     820:	030c                                    	movi.n	a3, 0
     822:	f01d                                    	retw.n

00000824 <Log2_norm>:
     824:	004136                                    	entry	a1, 32
     827:	024d                                    	mov.n	a4, a2
     829:	ff7c                                    	movi.n	a15, -1
     82b:	156c                                    	movi.n	a5, -31
     82d:	012f10                                    	slli	a2, a15, 31
     830:	062c                                    	movi.n	a6, 32
     832:	5714a6                                    	blti	a4, 1, 88d <Log2_norm+0x69>
     835:	040634801802a35e                  	{ blt.w15	a3, a5, 88d <Log2_norm+0x69>; ae_movda32x2	aed2, a4, a4 }
     83d:	552840                                    	extui	a2, a4, 24, 6
     840:	06a637                                    	bge	a6, a3, 84a <Log2_norm+0x26>
     843:	f27c                                    	movi.n	a2, -1
     845:	412120                                    	srli	a2, a2, 1
     848:	f01d                                    	retw.n

0000084a <Log2_norm+0x26>:
     84a:	fdfd51                                    	l32r	a5, 40 (b640 <TABLE_LOG2_1530>)
     84d:	1122e0                                    	slli	a2, a2, 2
     850:	3606a34000c0a25e                  	{ ae_l32m.xu	aed0, a5, a2; slli	a3, a3, 26 }
     858:	220720c008c5715e                  	{ ae_l32m.i	aed1, a5, 4; nop }
     860:	0ead057b08e40cd0c58081380001e11f 	{ ae_sub64	aed1, aed1, aed0; nop; nop; nop }
     870:	20834f033422b13e                  	{ nop; nop; ae_mulaq32sp16u.l	aed0, aed1, aed2 }
     878:	0ead257b0d240cd0c400813b0c016f0f 	{ ae_trunca32q48	a15, aed0; nop; nop; nop }
     888:	2125f0                                    	srai	a2, a15, 5
     88b:	223a                                    	add.n	a2, a2, a3
     88d:	f01d                                    	retw.n

0000088f <Log2_norm+0x6b>:
	...

00000890 <siir_safr>:
     890:	004136                                    	entry	a1, 32
     893:	0aa237                                    	bge	a2, a3, 8a1 <siir_safr+0x11>
     896:	230760c00485b04e                  	{ ae_l16x2m.i	aed0, a4, 0; nop }
     89e:	0001c6                                    	j	8a9 <siir_safr+0x19>

000008a1 <siir_safr+0x11>:
     8a1:	230760c00485b14e                  	{ ae_l16x2m.i	aed0, a4, 4; nop }
     8a9:	0e9547abf9e133d0c4809d010040120f 	{ ae_cvt48a32	aed1, a2; ae_cvt48a32	aed31, a3; ae_sel16i.n	aed2, aed0, aed0, 1; nop }
     8b9:	228353f33420b13e                  	{ nop; nop; ae_mulf48q32sp16s.l	aed30, aed1, aed0 }
     8c1:	1e8354f337e2b13e                  	{ nop; nop; ae_mulaf48q32sp16s.l	aed30, aed31, aed2 }
     8c9:	0ead3d7b0d540cd0c50041380c01015f 	{ nop; nop; nop; ae_roundsq32f48asym	aed0, aed30 }
     8d9:	0ead257b0d240cd0c400813b0c01620f 	{ ae_trunca32q48	a2, aed0; nop; nop; nop }
     8e9:	f01d                                    	retw.n

000008eb <siir_safr+0x5b>:
	...

000008ec <_start>:
     8ec:	004136                                    	entry	a1, 32
     8ef:	fdd531                                    	l32r	a3, 44 (d8e4 <printf_ptr>)
     8f2:	0228                                    	l32i.n	a2, a2, 0
     8f4:	fdd5a1                                    	l32r	a10, 48 (b298 <export_parameter_array+0x68>)
     8f7:	fdd5b1                                    	l32r	a11, 4c (1de8 <get_aec_nr_memsize>)
     8fa:	0329                                    	s32i.n	a2, a3, 0
     8fc:	0002e0                                    	callx8	a2
     8ff:	0328                                    	l32i.n	a2, a3, 0
     901:	fdd3a1                                    	l32r	a10, 50 (b2b1 <export_parameter_array+0x81>)
     904:	fdd4b1                                    	l32r	a11, 54 (1e78 <Voice_EC_Init>)
     907:	0002e0                                    	callx8	a2
     90a:	0328                                    	l32i.n	a2, a3, 0
     90c:	fdd3a1                                    	l32r	a10, 58 (b2c5 <export_parameter_array+0x95>)
     90f:	fdd3b1                                    	l32r	a11, 5c (5418 <Voice_EC_Prcs>)
     912:	0002e0                                    	callx8	a2
     915:	0328                                    	l32i.n	a2, a3, 0
     917:	fdd2a1                                    	l32r	a10, 60 (b2d9 <export_parameter_array+0xa9>)
     91a:	fdd2b1                                    	l32r	a11, 64 (5228 <Voice_PostEC_Prcs>)
     91d:	0002e0                                    	callx8	a2
     920:	0328                                    	l32i.n	a2, a3, 0
     922:	fdd1a1                                    	l32r	a10, 68 (b2f1 <export_parameter_array+0xc1>)
     925:	fdd1b1                                    	l32r	a11, 6c (55d0 <EC_REF_GAIN_READBACK>)
     928:	0002e0                                    	callx8	a2
     92b:	0328                                    	l32i.n	a2, a3, 0
     92d:	fdd0a1                                    	l32r	a10, 70 (b30c <export_parameter_array+0xdc>)
     930:	fdd1b1                                    	l32r	a11, 74 (5cac <NB_RX_NR_init>)
     933:	0002e0                                    	callx8	a2
     936:	0328                                    	l32i.n	a2, a3, 0
     938:	fdd0a1                                    	l32r	a10, 78 (b320 <export_parameter_array+0xf0>)
     93b:	fdd0b1                                    	l32r	a11, 7c (5488 <Voice_NB_RX_Prcs>)
     93e:	0002e0                                    	callx8	a2
     941:	0328                                    	l32i.n	a2, a3, 0
     943:	fdcfa1                                    	l32r	a10, 80 (b337 <export_parameter_array+0x107>)
     946:	fdcfb1                                    	l32r	a11, 84 (5a14 <WB_RX_NR_init>)
     949:	0002e0                                    	callx8	a2
     94c:	0328                                    	l32i.n	a2, a3, 0
     94e:	fdcea1                                    	l32r	a10, 88 (b34b <export_parameter_array+0x11b>)
     951:	fdceb1                                    	l32r	a11, 8c (54f0 <Voice_WB_RX_Prcs>)
     954:	0002e0                                    	callx8	a2
     957:	0328                                    	l32i.n	a2, a3, 0
     959:	fdcda1                                    	l32r	a10, 90 (b362 <export_parameter_array+0x132>)
     95c:	fdceb1                                    	l32r	a11, 94 (1df4 <get_aec_nr_inear_memsize>)
     95f:	0002e0                                    	callx8	a2
     962:	0328                                    	l32i.n	a2, a3, 0
     964:	fdcda1                                    	l32r	a10, 98 (b381 <export_parameter_array+0x151>)
     967:	fdcdb1                                    	l32r	a11, 9c (2204 <Voice_EC_Inear_Init>)
     96a:	0002e0                                    	callx8	a2
     96d:	0328                                    	l32i.n	a2, a3, 0
     96f:	fdcca1                                    	l32r	a10, a0 (b39b <export_parameter_array+0x16b>)
     972:	fdccb1                                    	l32r	a11, a4 (5434 <Voice_EC_Inear_Prcs>)
     975:	0002e0                                    	callx8	a2
     978:	0328                                    	l32i.n	a2, a3, 0
     97a:	fdcba1                                    	l32r	a10, a8 (b3b5 <export_parameter_array+0x185>)
     97d:	fdcbb1                                    	l32r	a11, ac (5628 <EC_Inear_REF_GAIN_READBACK>)
     980:	0002e0                                    	callx8	a2
     983:	0328                                    	l32i.n	a2, a3, 0
     985:	fdcaa1                                    	l32r	a10, b0 (b3d6 <export_parameter_array+0x1a6>)
     988:	fdcbb1                                    	l32r	a11, b4 (1de0 <get_ECNR_SVN>)
     98b:	0002e0                                    	callx8	a2
     98e:	0328                                    	l32i.n	a2, a3, 0
     990:	fdcaa1                                    	l32r	a10, b8 (b3e9 <export_parameter_array+0x1b9>)
     993:	fdcab1                                    	l32r	a11, bc (5650 <EC_PreLim_Coef_READBACK>)
     996:	0002e0                                    	callx8	a2
     999:	0328                                    	l32i.n	a2, a3, 0
     99b:	fdc9a1                                    	l32r	a10, c0 (b407 <export_parameter_array+0x1d7>)
     99e:	fdc9b1                                    	l32r	a11, c4 (56c0 <DaulMIC_power_Coef_READBACK>)
     9a1:	0002e0                                    	callx8	a2
     9a4:	0328                                    	l32i.n	a2, a3, 0
     9a6:	fdc8a1                                    	l32r	a10, c8 (b429 <export_parameter_array+0x1f9>)
     9a9:	fdc8b1                                    	l32r	a11, cc (2f10 <Voice_SWB_EC_Init>)
     9ac:	0002e0                                    	callx8	a2
     9af:	0328                                    	l32i.n	a2, a3, 0
     9b1:	fdc7a1                                    	l32r	a10, d0 (b441 <export_parameter_array+0x211>)
     9b4:	fdc8b1                                    	l32r	a11, d4 (5450 <Voice_SWB_EC_Prcs>)
     9b7:	0002e0                                    	callx8	a2
     9ba:	0328                                    	l32i.n	a2, a3, 0
     9bc:	fdc7a1                                    	l32r	a10, d8 (b459 <export_parameter_array+0x229>)
     9bf:	fdc7b1                                    	l32r	a11, dc (2f3c <Voice_SWB_EC_Inear_Init>)
     9c2:	0002e0                                    	callx8	a2
     9c5:	0328                                    	l32i.n	a2, a3, 0
     9c7:	fdc6a1                                    	l32r	a10, e0 (b477 <export_parameter_array+0x247>)
     9ca:	fdc6b1                                    	l32r	a11, e4 (546c <Voice_SWB_EC_Inear_Prcs>)
     9cd:	0002e0                                    	callx8	a2
     9d0:	0328                                    	l32i.n	a2, a3, 0
     9d2:	fdc5a1                                    	l32r	a10, e8 (b495 <export_parameter_array+0x265>)
     9d5:	fdc5b1                                    	l32r	a11, ec (53cc <Voice_SWB_PostEC_Prcs>)
     9d8:	0002e0                                    	callx8	a2
     9db:	0328                                    	l32i.n	a2, a3, 0
     9dd:	fdc4a1                                    	l32r	a10, f0 (b4b1 <export_parameter_array+0x281>)
     9e0:	fdc5b1                                    	l32r	a11, f4 (5fe8 <SWB_RX_NR_init>)
     9e3:	0002e0                                    	callx8	a2
     9e6:	0328                                    	l32i.n	a2, a3, 0
     9e8:	fdc4a1                                    	l32r	a10, f8 (b4c6 <export_parameter_array+0x296>)
     9eb:	fdc4b1                                    	l32r	a11, fc (5560 <Voice_SWB_RX_Prcs>)
     9ee:	0002e0                                    	callx8	a2
     9f1:	0328                                    	l32i.n	a2, a3, 0
     9f3:	fdc3a1                                    	l32r	a10, 100 (b4de <export_parameter_array+0x2ae>)
     9f6:	fdc3b1                                    	l32r	a11, 104 (56d0 <BAND5_EC_REF_GAIN_READBACK>)
     9f9:	0002e0                                    	callx8	a2
     9fc:	0328                                    	l32i.n	a2, a3, 0
     9fe:	fdc2a1                                    	l32r	a10, 108 (b4ff <export_parameter_array+0x2cf>)
     a01:	fdc2b1                                    	l32r	a11, 10c (56a0 <BAND5_PreLim_Coef_READBACK>)
     a04:	0002e0                                    	callx8	a2
     a07:	0328                                    	l32i.n	a2, a3, 0
     a09:	fdc1a1                                    	l32r	a10, 110 (b520 <export_parameter_array+0x2f0>)
     a0c:	fdc2b1                                    	l32r	a11, 114 (5708 <PF_GAIN_FB_READBACK>)
     a0f:	0002e0                                    	callx8	a2
     a12:	fdc121                                    	l32r	a2, 118 (b230 <export_parameter_array>)
     a15:	f01d                                    	retw.n

00000a17 <_start+0x12b>:
	...

00000a18 <SBAEC_INIT>:
     a18:	00c136                                    	entry	a1, 96
     a1b:	fd8071                                    	l32r	a7, 1c (d8e8 <p_ecnr_mem>)
     a1e:	d8a042                                    	movi	a4, 216
     a21:	41d442                                    	addmi	a4, a4, 0x4100
     a24:	13a252                                    	movi	a5, 0x213
     a27:	11a2f2                                    	movi	a15, 0x211
     a2a:	15a262                                    	movi	a6, 0x215
     a2d:	0738                                    	l32i.n	a3, a7, 0
     a2f:	0b0c                                    	movi.n	a11, 0
     a31:	f129                                    	s32i.n	a2, a1, 60
     a33:	74a1c2                                    	movi	a12, 0x174
     a36:	112fb0                                    	slli	a2, a15, 5
     a39:	1155b0                                    	slli	a5, a5, 5
     a3c:	a34a                                    	add.n	a10, a3, a4
     a3e:	fdb741                                    	l32r	a4, 11c (a5b0 <xt_memset>)
     a41:	b1a9                                    	s32i.n	a10, a1, 44
     a43:	1166b0                                    	slli	a6, a6, 5
     a46:	0004e0                                    	callx8	a4
     a49:	0778                                    	l32i.n	a7, a7, 0
     a4b:	29a282                                    	movi	a8, 0x229
     a4e:	1188c0                                    	slli	a8, a8, 4
     a51:	0b0c                                    	movi.n	a11, 0
     a53:	c0a4c2                                    	movi	a12, 0x4c0
     a56:	a78a                                    	add.n	a10, a7, a8
     a58:	c70c                                    	movi.n	a7, 12
     a5a:	0004e0                                    	callx8	a4
     a5d:	fd7041                                    	l32r	a4, 20 (d8e0 <aec_nr_para>)
     a60:	0448                                    	l32i.n	a4, a4, 0
     a62:	041482                                    	l16ui	a8, a4, 8
     a65:	107870                                    	and	a7, a8, a7
     a68:	06a726                                    	beqi	a7, 12, a72 <SBAEC_INIT+0x5a>
     a6b:	071c                                    	movi.n	a7, 16
     a6d:	107870                                    	and	a7, a8, a7
     a70:	479c                                    	beqz.n	a7, a88 <SBAEC_INIT+0x70>

00000a72 <SBAEC_INIT+0x5a>:
     a72:	777c                                    	movi.n	a7, -9
     a74:	131492                                    	l16ui	a9, a4, 38
     a77:	f47070                                    	extui	a7, a7, 0, 16
     a7a:	108870                                    	and	a8, a8, a7
     a7d:	871c                                    	movi.n	a7, 24
     a7f:	045482                                    	s16i	a8, a4, 8
     a82:	023977                                    	bltu	a9, a7, a88 <SBAEC_INIT+0x70>
     a85:	135472                                    	s16i	a7, a4, 38
     a88:	41d372                                    	addmi	a7, a3, 0x4100
     a8b:	17a2f2                                    	movi	a15, 0x217
     a8e:	8179                                    	s32i.n	a7, a1, 32
     a90:	732a                                    	add.n	a7, a3, a2
     a92:	112fb0                                    	slli	a2, a15, 5
     a95:	d35a                                    	add.n	a13, a3, a5
     a97:	e36a                                    	add.n	a14, a3, a6
     a99:	232a                                    	add.n	a2, a3, a2
     a9b:	44d3f2                                    	addmi	a15, a3, 0x4400
     a9e:	51d9                                    	s32i.n	a13, a1, 20
     aa0:	61e9                                    	s32i.n	a14, a1, 24
     aa2:	60a052                                    	movi	a5, 96
     aa5:	7129                                    	s32i.n	a2, a1, 28
     aa7:	4c0c                                    	movi.n	a12, 4
     aa9:	78a092                                    	movi	a9, 120
     aac:	5be837                                    	bbsi	a8, 3, b0b <SBAEC_INIT+0xf3>
     aaf:	251452                                    	l16ui	a5, a4, 74
     ab2:	44d3e2                                    	addmi	a14, a3, 0x4400
     ab5:	131462                                    	l16ui	a6, a4, 38
     ab8:	44d3f2                                    	addmi	a15, a3, 0x4400
     abb:	fd9921                                    	l32r	a2, 120 (300040 <_end+0x2f2754>)
     abe:	348050                                    	extui	a8, a5, 0, 4
     ac1:	055516                                    	beqz	a5, b1a <SBAEC_INIT+0x102>
     ac4:	34a450                                    	extui	a10, a5, 4, 4
     ac7:	34f850                                    	extui	a15, a5, 8, 4
     aca:	1188e0                                    	slli	a8, a8, 2
     acd:	11aad0                                    	slli	a10, a10, 3
     ad0:	41bc50                                    	srli	a11, a5, 12
     ad3:	115fe0                                    	slli	a5, a15, 2
     ad6:	884b                                    	addi.n	a8, a8, 4
     ad8:	a0bbc0                                    	addx4	a11, a11, a12
     adb:	d54b                                    	addi.n	a13, a5, 4
     add:	aa8b                                    	addi.n	a10, a10, 8
     adf:	108890                                    	and	a8, a8, a9
     ae2:	575ea2                                    	s16i	a10, a14, 174
     ae5:	105b90                                    	and	a5, a11, a9
     ae8:	109d90                                    	and	a9, a13, a9
     aeb:	41a1a0                                    	srli	a10, a10, 1
     aee:	436680                                    	min	a6, a6, a8
     af1:	43aa90                                    	min	a10, a10, a9
     af4:	595e52                                    	s16i	a5, a14, 178
     af7:	4366a0                                    	min	a6, a6, a10
     afa:	565e82                                    	s16i	a8, a14, 172
     afd:	43f650                                    	min	a15, a6, a5
     b00:	862c                                    	movi.n	a6, 40
     b02:	585e92                                    	s16i	a9, a14, 176
     b05:	1354f2                                    	s16i	a15, a4, 38
     b08:	0006c6                                    	j	b27 <SBAEC_INIT+0x10f>

00000b0b <SBAEC_INIT+0xf3>:
     b0b:	fd8761                                    	l32r	a6, 128 (c00100 <_end+0xbf2814>)
     b0e:	fd8781                                    	l32r	a8, 12c (600040 <_end+0x5f2754>)
     b11:	2b6f62                                    	s32i	a6, a15, 172
     b14:	78a062                                    	movi	a6, 120
     b17:	000246                                    	j	b24 <SBAEC_INIT+0x10c>

00000b1a <SBAEC_INIT+0x102>:
     b1a:	fd8281                                    	l32r	a8, 124 (200018 <_end+0x1f272c>)
     b1d:	862c                                    	movi.n	a6, 40
     b1f:	2b6f22                                    	s32i	a2, a15, 172
     b22:	052c                                    	movi.n	a5, 32
     b24:	2c6f82                                    	s32i	a8, a15, 176
     b27:	131482                                    	l16ui	a8, a4, 38
     b2a:	42d392                                    	addmi	a9, a3, 0x4200
     b2d:	435982                                    	s16i	a8, a9, 134
     b30:	daa0e2                                    	movi	a14, 218
     b33:	635982                                    	s16i	a8, a9, 198
     b36:	b4eb                                    	addi.n	a11, a4, 14
     b38:	235982                                    	s16i	a8, a9, 70
     b3b:	1188f0                                    	slli	a8, a8, 1
     b3e:	435850                                    	min	a5, a8, a5
     b41:	fd3841                                    	l32r	a4, 24 (a5c4 <xt_memcpy>)
     b44:	835952                                    	s16i	a5, a9, 0x106
     b47:	41de52                                    	addmi	a5, a14, 0x4100
     b4a:	44d3f2                                    	addmi	a15, a3, 0x4400
     b4d:	44d322                                    	addmi	a2, a3, 0x4400
     b50:	a35a                                    	add.n	a10, a3, a5
     b52:	ec0c                                    	movi.n	a12, 14
     b54:	a1f9                                    	s32i.n	a15, a1, 40
     b56:	9129                                    	s32i.n	a2, a1, 36
     b58:	5a5262                                    	s16i	a6, a2, 180
     b5b:	41d362                                    	addmi	a6, a3, 0x4100
     b5e:	0004e0                                    	callx8	a4
     b61:	fd2f21                                    	l32r	a2, 20 (d8e0 <aec_nr_para>)
     b64:	3ed3a2                                    	addmi	a10, a3, 0x3e00
     b67:	fd2db1                                    	l32r	a11, 1c (d8e8 <p_ecnr_mem>)
     b6a:	fd7151                                    	l32r	a5, 130 (155555 <_end+0x147c69>)
     b6d:	0248                                    	l32i.n	a4, a2, 0
     b6f:	5128                                    	l32i.n	a2, a1, 20
     b71:	fa6a52                                    	s32i	a5, a10, 0x3e8
     b74:	0bc8                                    	l32i.n	a12, a11, 0
     b76:	fd6f51                                    	l32r	a5, 134 (101c <Fill_CH_MEM_WB>)
     b79:	061482                                    	l16ui	a8, a4, 12
     b7c:	2014d2                                    	l16ui	a13, a4, 64
     b7f:	219492                                    	l16si	a9, a4, 66
     b82:	7d5692                                    	s16i	a9, a6, 250
     b85:	04e8                                    	l32i.n	a14, a4, 0
     b87:	1188c0                                    	slli	a8, a8, 4
     b8a:	29a262                                    	movi	a6, 0x229
     b8d:	ff6a82                                    	s32i	a8, a10, 0x3fc
     b90:	41d392                                    	addmi	a9, a3, 0x4100
     b93:	1f94a2                                    	l16si	a10, a4, 62
     b96:	b480d0                                    	extui	a8, a13, 0, 12
     b99:	1146c0                                    	slli	a4, a6, 4
     b9c:	7b59a2                                    	s16i	a10, a9, 246
     b9f:	7c5982                                    	s16i	a8, a9, 248
     ba2:	fc4a                                    	add.n	a15, a12, a4
     ba4:	04de92                                    	addmi	a9, a14, 0x400
     ba7:	d1e9                                    	s32i.n	a14, a1, 52
     ba9:	61c8                                    	l32i.n	a12, a1, 24
     bab:	b1e8                                    	l32i.n	a14, a1, 44
     bad:	71d8                                    	l32i.n	a13, a1, 28
     baf:	07ad                                    	mov.n	a10, a7
     bb1:	02bd                                    	mov.n	a11, a2
     bb3:	0199                                    	s32i.n	a9, a1, 0
     bb5:	0005e0                                    	callx8	a5
     bb8:	fd1941                                    	l32r	a4, 1c (d8e8 <p_ecnr_mem>)
     bbb:	44d3f2                                    	addmi	a15, a3, 0x4400
     bbe:	fd1861                                    	l32r	a6, 20 (d8e0 <aec_nr_para>)
     bc1:	43d382                                    	addmi	a8, a3, 0x4300
     bc4:	569fb2                                    	l16si	a11, a15, 172
     bc7:	1d0c                                    	movi.n	a13, 1
     bc9:	0458                                    	l32i.n	a5, a4, 0
     bcb:	e1f9                                    	s32i.n	a15, a1, 56
     bcd:	0698                                    	l32i.n	a9, a6, 0
     bcf:	fd5a61                                    	l32r	a6, 138 (1000 <Fill_sbco>)
     bd2:	22d542                                    	addmi	a4, a5, 0x2200
     bd5:	22d552                                    	addmi	a5, a5, 0x2200
     bd8:	1824a2                                    	l32i	a10, a4, 96
     bdb:	1699c2                                    	l16si	a12, a9, 44
     bde:	58a9                                    	s32i.n	a10, a8, 20
     be0:	1c2552                                    	l32i	a5, a5, 112
     be3:	07ad                                    	mov.n	a10, a7
     be5:	6859                                    	s32i.n	a5, a8, 24
     be7:	0006e0                                    	callx8	a6
     bea:	fd0d41                                    	l32r	a4, 20 (d8e0 <aec_nr_para>)
     bed:	44d352                                    	addmi	a5, a3, 0x4400
     bf0:	579572                                    	l16si	a7, a5, 174
     bf3:	1d0c                                    	movi.n	a13, 1
     bf5:	02ad                                    	mov.n	a10, a2
     bf7:	44d322                                    	addmi	a2, a3, 0x4400
     bfa:	0488                                    	l32i.n	a8, a4, 0
     bfc:	971b                                    	addi.n	a9, a7, 1
     bfe:	b39770                                    	movgez	a9, a7, a7
     c01:	1798c2                                    	l16si	a12, a8, 46
     c04:	21b190                                    	srai	a11, a9, 1
     c07:	0006e0                                    	callx8	a6
     c0a:	0478                                    	l32i.n	a7, a4, 0
     c0c:	5895b2                                    	l16si	a11, a5, 176
     c0f:	61a8                                    	l32i.n	a10, a1, 24
     c11:	1d0c                                    	movi.n	a13, 1
     c13:	5129                                    	s32i.n	a2, a1, 20
     c15:	1897c2                                    	l16si	a12, a7, 48
     c18:	0006e0                                    	callx8	a6
     c1b:	a128                                    	l32i.n	a2, a1, 40
     c1d:	0478                                    	l32i.n	a7, a4, 0
     c1f:	71a8                                    	l32i.n	a10, a1, 28
     c21:	1d0c                                    	movi.n	a13, 1
     c23:	5992b2                                    	l16si	a11, a2, 178
     c26:	1997c2                                    	l16si	a12, a7, 50
     c29:	0006e0                                    	callx8	a6
     c2c:	fcfc21                                    	l32r	a2, 1c (d8e8 <p_ecnr_mem>)
     c2f:	ffa0a2                                    	movi	a10, 255
     c32:	0488                                    	l32i.n	a8, a4, 0
     c34:	7fdaa2                                    	addmi	a10, a10, 0x7f00
     c37:	42d3b2                                    	addmi	a11, a3, 0x4200
     c3a:	5055a2                                    	s16i	a10, a5, 160
     c3d:	0278                                    	l32i.n	a7, a2, 0
     c3f:	6bad                                    	ae_s16i.n	a10, a11, 0
     c41:	159842                                    	l16si	a4, a8, 42
     c44:	059862                                    	l16si	a6, a8, 10
     c47:	22d7a2                                    	addmi	a10, a7, 0x2200
     c4a:	0418e2                                    	l16ui	a14, a8, 8
     c4d:	215a42                                    	s16i	a4, a10, 66
     c50:	8148                                    	l32i.n	a4, a1, 32
     c52:	7b6d                                    	ae_s16i.n	a6, a11, 2
     c54:	3898f2                                    	l16si	a15, a8, 112
     c57:	162a62                                    	l32i	a6, a10, 88
     c5a:	029822                                    	l16si	a2, a8, 4
     c5d:	5255f2                                    	s16i	a15, a5, 164
     c60:	04c0e0                                    	extui	a12, a14, 0, 1
     c63:	14f1e0                                    	extui	a15, a14, 1, 2
     c66:	2a6562                                    	s32i	a6, a5, 168
     c69:	265af2                                    	s16i	a15, a10, 76
     c6c:	249882                                    	l16si	a8, a8, 72
     c6f:	6c5422                                    	s16i	a2, a4, 216
     c72:	052d                                    	mov.n	a2, a5
     c74:	5792a2                                    	l16si	a10, a2, 174
     c77:	5155c2                                    	s16i	a12, a5, 162
     c7a:	535582                                    	s16i	a8, a5, 166
     c7d:	18a522                                    	movi	a2, 0x518
     c80:	1fa2b2                                    	movi	a11, 0x21f
     c83:	022f26                                    	beqi	a15, 2, c89 <SBAEC_INIT+0x271>
     c86:	003e46                                    	j	d83 <SBAEC_INIT+0x36b>
     c89:	c159                                    	s32i.n	a5, a1, 48
     c8b:	1ba282                                    	movi	a8, 0x21b
     c8e:	e158                                    	l32i.n	a5, a1, 56
     c90:	a148                                    	l32i.n	a4, a1, 40
     c92:	51e8                                    	l32i.n	a14, a1, 20
     c94:	29a2f2                                    	movi	a15, 0x229
     c97:	d168                                    	l32i.n	a6, a1, 52
     c99:	1188b0                                    	slli	a8, a8, 5
     c9c:	569592                                    	l16si	a9, a5, 172
     c9f:	5994d2                                    	l16si	a13, a4, 178
     ca2:	589ec2                                    	l16si	a12, a14, 176
     ca5:	21a2e2                                    	movi	a14, 0x221
     ca8:	9a9a                                    	add.n	a9, a10, a9
     caa:	662a                                    	add.n	a6, a6, a2
     cac:	ccda                                    	add.n	a12, a12, a13
     cae:	112eb0                                    	slli	a2, a14, 5
     cb1:	11abb0                                    	slli	a10, a11, 5
     cb4:	99ca                                    	add.n	a9, a9, a12
     cb6:	1da2b2                                    	movi	a11, 0x21d
     cb9:	d32a                                    	add.n	a13, a3, a2
     cbb:	a09970                                    	addx4	a9, a9, a7
     cbe:	112fc0                                    	slli	a2, a15, 4
     cc1:	11bbb0                                    	slli	a11, a11, 5
     cc4:	f92a                                    	add.n	a15, a9, a2
     cc6:	738a                                    	add.n	a7, a3, a8
     cc8:	b1e8                                    	l32i.n	a14, a1, 44
     cca:	c3aa                                    	add.n	a12, a3, a10
     ccc:	fd1a21                                    	l32r	a2, 134 (101c <Fill_CH_MEM_WB>)
     ccf:	b3ba                                    	add.n	a11, a3, a11
     cd1:	07ad                                    	mov.n	a10, a7
     cd3:	81b9                                    	s32i.n	a11, a1, 32
     cd5:	61c9                                    	s32i.n	a12, a1, 24
     cd7:	71d9                                    	s32i.n	a13, a1, 28
     cd9:	0169                                    	s32i.n	a6, a1, 0
     cdb:	0002e0                                    	callx8	a2
     cde:	fccf21                                    	l32r	a2, 1c (d8e8 <p_ecnr_mem>)
     ce1:	42d382                                    	addmi	a8, a3, 0x4200
     ce4:	162882                                    	l32i	a8, a8, 88
     ce7:	43d392                                    	addmi	a9, a3, 0x4300
     cea:	42d3a2                                    	addmi	a10, a3, 0x4200
     ced:	266982                                    	s32i	a8, a9, 152
     cf0:	0268                                    	l32i.n	a6, a2, 0
     cf2:	362ac2                                    	l32i	a12, a10, 216
     cf5:	fcca21                                    	l32r	a2, 20 (d8e0 <aec_nr_para>)
     cf8:	44d3b2                                    	addmi	a11, a3, 0x4400
     cfb:	262af2                                    	l32i	a15, a10, 152
     cfe:	6bc9                                    	s32i.n	a12, a11, 24
     d00:	22d6e2                                    	addmi	a14, a6, 0x2200
     d03:	3669f2                                    	s32i	a15, a9, 216
     d06:	0288                                    	l32i.n	a8, a2, 0
     d08:	22d662                                    	addmi	a6, a6, 0x2200
     d0b:	44d3d2                                    	addmi	a13, a3, 0x4400
     d0e:	5994c2                                    	l16si	a12, a4, 178
     d11:	1a2e92                                    	l32i	a9, a14, 104
     d14:	43d3a2                                    	addmi	a10, a3, 0x4300
     d17:	1318b2                                    	l16ui	a11, a8, 38
     d1a:	1c2662                                    	l32i	a6, a6, 112
     d1d:	156d92                                    	s32i	a9, a13, 84
     d20:	44d3f2                                    	addmi	a15, a3, 0x4400
     d23:	166d62                                    	s32i	a6, a13, 88
     d26:	11ebf0                                    	slli	a14, a11, 1
     d29:	435ab2                                    	s16i	a11, a10, 134
     d2c:	635ab2                                    	s16i	a11, a10, 198
     d2f:	436ec0                                    	min	a6, a14, a12
     d32:	035db2                                    	s16i	a11, a13, 6
     d35:	07ad                                    	mov.n	a10, a7
     d37:	5695b2                                    	l16si	a11, a5, 172
     d3a:	1a98c2                                    	l16si	a12, a8, 52
     d3d:	fcfe71                                    	l32r	a7, 138 (1000 <Fill_sbco>)
     d40:	0d0c                                    	movi.n	a13, 0
     d42:	235f62                                    	s16i	a6, a15, 70
     d45:	0007e0                                    	callx8	a7
     d48:	c148                                    	l32i.n	a4, a1, 48
     d4a:	0258                                    	l32i.n	a5, a2, 0
     d4c:	81a8                                    	l32i.n	a10, a1, 32
     d4e:	0d0c                                    	movi.n	a13, 0
     d50:	579442                                    	l16si	a4, a4, 174
     d53:	1b95c2                                    	l16si	a12, a5, 54
     d56:	641b                                    	addi.n	a6, a4, 1
     d58:	b36440                                    	movgez	a6, a4, a4
     d5b:	21b160                                    	srai	a11, a6, 1
     d5e:	0007e0                                    	callx8	a7
     d61:	5158                                    	l32i.n	a5, a1, 20
     d63:	0248                                    	l32i.n	a4, a2, 0
     d65:	61a8                                    	l32i.n	a10, a1, 24
     d67:	0d0c                                    	movi.n	a13, 0
     d69:	5895b2                                    	l16si	a11, a5, 176
     d6c:	1c94c2                                    	l16si	a12, a4, 56
     d6f:	0007e0                                    	callx8	a7
     d72:	a148                                    	l32i.n	a4, a1, 40
     d74:	0228                                    	l32i.n	a2, a2, 0
     d76:	71a8                                    	l32i.n	a10, a1, 28
     d78:	0d0c                                    	movi.n	a13, 0
     d7a:	5994b2                                    	l16si	a11, a4, 178
     d7d:	1d92c2                                    	l16si	a12, a2, 58
     d80:	0007e0                                    	callx8	a7
     d83:	f128                                    	l32i.n	a2, a1, 60
     d85:	19a292                                    	movi	a9, 0x219
     d88:	fca651                                    	l32r	a5, 20 (d8e0 <aec_nr_para>)
     d8b:	0fa7a2                                    	movi	a10, 0x70f
     d8e:	9148                                    	l32i.n	a4, a1, 36
     d90:	1199b0                                    	slli	a9, a9, 5
     d93:	43d3f2                                    	addmi	a15, a3, 0x4300
     d96:	0d5216                                    	beqz	a2, e6f <SBAEC_INIT+0x457>
     d99:	fca071                                    	l32r	a7, 1c (d8e8 <p_ecnr_mem>)
     d9c:	11aac0                                    	slli	a10, a10, 4
     d9f:	0528                                    	l32i.n	a2, a5, 0
     da1:	5a94b2                                    	l16si	a11, a4, 180
     da4:	0768                                    	l32i.n	a6, a7, 0
     da6:	131252                                    	l16ui	a5, a2, 38
     da9:	0288                                    	l32i.n	a8, a2, 0
     dab:	c6aa                                    	add.n	a12, a6, a10
     dad:	11e5e0                                    	slli	a14, a5, 2
     db0:	fce351                                    	l32r	a5, 13c (10a4 <Fill_CH_MEM_CH5>)
     db3:	432eb0                                    	min	a2, a14, a11
     db6:	0cd8d2                                    	addmi	a13, a8, 0xc00
     db9:	235f22                                    	s16i	a2, a15, 70
     dbc:	239a                                    	add.n	a2, a3, a9
     dbe:	02ad                                    	mov.n	a10, a2
     dc0:	43d362                                    	addmi	a6, a3, 0x4300
     dc3:	0005e0                                    	callx8	a5
     dc6:	fc9681                                    	l32r	a8, 20 (d8e0 <aec_nr_para>)
     dc9:	02ad                                    	mov.n	a10, a2
     dcb:	0758                                    	l32i.n	a5, a7, 0
     dcd:	5a94b2                                    	l16si	a11, a4, 180
     dd0:	fcda21                                    	l32r	a2, 138 (1000 <Fill_sbco>)
     dd3:	1d0c                                    	movi.n	a13, 1
     dd5:	0888                                    	l32i.n	a8, a8, 0
     dd7:	75d572                                    	addmi	a7, a5, 0x7500
     dda:	75d552                                    	addmi	a5, a5, 0x7500
     ddd:	122772                                    	l32i	a7, a7, 72
     de0:	03d8f2                                    	addmi	a15, a8, 0x300
     de3:	142552                                    	l32i	a5, a5, 80
     de6:	3f9fc2                                    	l16si	a12, a15, 126
     de9:	156672                                    	s32i	a7, a6, 84
     dec:	166652                                    	s32i	a5, a6, 88
     def:	19a772                                    	movi	a7, 0x719
     df2:	0002e0                                    	callx8	a2
     df5:	fc8921                                    	l32r	a2, 1c (d8e8 <p_ecnr_mem>)
     df8:	fc8a41                                    	l32r	a4, 20 (d8e0 <aec_nr_para>)
     dfb:	91f8                                    	l32i.n	a15, a1, 36
     dfd:	0228                                    	l32i.n	a2, a2, 0
     dff:	04a8                                    	l32i.n	a10, a4, 0
     e01:	22d252                                    	addmi	a5, a2, 0x2200
     e04:	261552                                    	l16ui	a5, a5, 76
     e07:	44d3e2                                    	addmi	a14, a3, 0x4400
     e0a:	fccc41                                    	l32r	a4, 13c (10a4 <Fill_CH_MEM_CH5>)
     e0d:	5e2566                                    	bnei	a5, 2, e6f <SBAEC_INIT+0x457>
     e10:	1177c0                                    	slli	a7, a7, 4
     e13:	23a292                                    	movi	a9, 0x223
     e16:	c27a                                    	add.n	a12, a2, a7
     e18:	c5a062                                    	movi	a6, 197
     e1b:	1129b0                                    	slli	a2, a9, 5
     e1e:	5a9fb2                                    	l16si	a11, a15, 180
     e21:	232a                                    	add.n	a2, a3, a2
     e23:	1166c0                                    	slli	a6, a6, 4
     e26:	131a82                                    	l16ui	a8, a10, 38
     e29:	44d332                                    	addmi	a3, a3, 0x4400
     e2c:	0a58                                    	l32i.n	a5, a10, 0
     e2e:	11a8e0                                    	slli	a10, a8, 2
     e31:	43fab0                                    	min	a15, a10, a11
     e34:	d56a                                    	add.n	a13, a5, a6
     e36:	02ad                                    	mov.n	a10, a2
     e38:	435ef2                                    	s16i	a15, a14, 134
     e3b:	0004e0                                    	callx8	a4
     e3e:	fc7851                                    	l32r	a5, 20 (d8e0 <aec_nr_para>)
     e41:	02ad                                    	mov.n	a10, a2
     e43:	fc7641                                    	l32r	a4, 1c (d8e8 <p_ecnr_mem>)
     e46:	0d0c                                    	movi.n	a13, 0
     e48:	9168                                    	l32i.n	a6, a1, 36
     e4a:	0558                                    	l32i.n	a5, a5, 0
     e4c:	0448                                    	l32i.n	a4, a4, 0
     e4e:	5a96b2                                    	l16si	a11, a6, 180
     e51:	fcb921                                    	l32r	a2, 138 (1000 <Fill_sbco>)
     e54:	03d552                                    	addmi	a5, a5, 0x300
     e57:	75d4f2                                    	addmi	a15, a4, 0x7500
     e5a:	75d442                                    	addmi	a4, a4, 0x7500
     e5d:	132f62                                    	l32i	a6, a15, 76
     e60:	4095c2                                    	l16si	a12, a5, 128
     e63:	142442                                    	l32i	a4, a4, 80
     e66:	256362                                    	s32i	a6, a3, 148
     e69:	266342                                    	s32i	a4, a3, 152
     e6c:	0002e0                                    	callx8	a2
     e6f:	f01d                                    	retw.n

00000e71 <SBAEC_INIT+0x459>:
     e71:	000000                                        ...

00000e74 <SBAEC_INIT_inear>:
     e74:	00a136                                    	entry	a1, 80
     e77:	fc6ab1                                    	l32r	a11, 20 (d8e0 <aec_nr_para>)
     e7a:	44d2d2                                    	addmi	a13, a2, 0x4400
     e7d:	579d92                                    	l16si	a9, a13, 174
     e80:	44d252                                    	addmi	a5, a2, 0x4400
     e83:	589da2                                    	l16si	a10, a13, 176
     e86:	44d242                                    	addmi	a4, a2, 0x4400
     e89:	0b88                                    	l32i.n	a8, a11, 0
     e8b:	599d62                                    	l16si	a6, a13, 178
     e8e:	569db2                                    	l16si	a11, a13, 172
     e91:	75d2e2                                    	addmi	a14, a2, 0x7500
     e94:	a149                                    	s32i.n	a4, a1, 40
     e96:	242e42                                    	l32i	a4, a14, 144
     e99:	131872                                    	l16ui	a7, a8, 38
     e9c:	99aa                                    	add.n	a9, a9, a10
     e9e:	fb6a                                    	add.n	a15, a11, a6
     ea0:	0888                                    	l32i.n	a8, a8, 0
     ea2:	b139                                    	s32i.n	a3, a1, 44
     ea4:	9f9a                                    	add.n	a9, a15, a9
     ea6:	29a232                                    	movi	a3, 0x229
     ea9:	d8a0c2                                    	movi	a12, 216
     eac:	9159                                    	s32i.n	a5, a1, 36
     eae:	e0a552                                    	movi	a5, 0x5e0
     eb1:	11b3c0                                    	slli	a11, a3, 4
     eb4:	b09920                                    	addx8	a9, a9, a2
     eb7:	8f5472                                    	s16i	a7, a4, 0x11e
     eba:	f8a0a2                                    	movi	a10, 248
     ebd:	af5472                                    	s16i	a7, a4, 0x15e
     ec0:	41dcc2                                    	addmi	a12, a12, 0x4100
     ec3:	cf5472                                    	s16i	a7, a4, 0x19e
     ec6:	1177f0                                    	slli	a7, a7, 1
     ec9:	436760                                    	min	a6, a7, a6
     ecc:	74aa                                    	add.n	a7, a4, a10
     ece:	51d9                                    	s32i.n	a13, a1, 20
     ed0:	b8a1d2                                    	movi	a13, 0x1b8
     ed3:	f9ba                                    	add.n	a15, a9, a11
     ed5:	585a                                    	add.n	a5, a8, a5
     ed7:	38a1b2                                    	movi	a11, 0x138
     eda:	78a132                                    	movi	a3, 0x178
     edd:	e2ca                                    	add.n	a14, a2, a12
     edf:	fc9581                                    	l32r	a8, 134 (101c <Fill_CH_MEM_WB>)
     ee2:	b4ba                                    	add.n	a11, a4, a11
     ee4:	c43a                                    	add.n	a12, a4, a3
     ee6:	d4da                                    	add.n	a13, a4, a13
     ee8:	07ad                                    	mov.n	a10, a7
     eea:	ef5462                                    	s16i	a6, a4, 0x1de
     eed:	61b9                                    	s32i.n	a11, a1, 24
     eef:	71c9                                    	s32i.n	a12, a1, 28
     ef1:	81d9                                    	s32i.n	a13, a1, 32
     ef3:	0159                                    	s32i.n	a5, a1, 0
     ef5:	22d252                                    	addmi	a5, a2, 0x2200
     ef8:	0008e0                                    	callx8	a8
     efb:	fc4931                                    	l32r	a3, 20 (d8e0 <aec_nr_para>)
     efe:	42d292                                    	addmi	a9, a2, 0x4200
     f01:	1c2552                                    	l32i	a5, a5, 112
     f04:	5168                                    	l32i.n	a6, a1, 20
     f06:	7c6452                                    	s32i	a5, a4, 0x1f0
     f09:	42d2b2                                    	addmi	a11, a2, 0x4200
     f0c:	03c8                                    	l32i.n	a12, a3, 0
     f0e:	162992                                    	l32i	a9, a9, 88
     f11:	42d2d2                                    	addmi	a13, a2, 0x4200
     f14:	4c6492                                    	s32i	a9, a4, 0x130
     f17:	262b52                                    	l32i	a5, a11, 152
     f1a:	5696b2                                    	l16si	a11, a6, 172
     f1d:	70cce2                                    	addi	a14, a12, 112
     f20:	5c6452                                    	s32i	a5, a4, 0x170
     f23:	ff9ec2                                    	l16si	a12, a14, 0x1fe
     f26:	07ad                                    	mov.n	a10, a7
     f28:	fc8451                                    	l32r	a5, 138 (1000 <Fill_sbco>)
     f2b:	362df2                                    	l32i	a15, a13, 216
     f2e:	b22482                                    	l32i	a8, a4, 0x2c8
     f31:	4d0c                                    	movi.n	a13, 4
     f33:	7b6482                                    	s32i	a8, a4, 0x1ec
     f36:	6c64f2                                    	s32i	a15, a4, 0x1b0
     f39:	0005e0                                    	callx8	a5
     f3c:	5796f2                                    	l16si	a15, a6, 174
     f3f:	0378                                    	l32i.n	a7, a3, 0
     f41:	61a8                                    	l32i.n	a10, a1, 24
     f43:	4d0c                                    	movi.n	a13, 4
     f45:	8f1b                                    	addi.n	a8, a15, 1
     f47:	72c772                                    	addi	a7, a7, 114
     f4a:	b38ff0                                    	movgez	a8, a15, a15
     f4d:	ff97c2                                    	l16si	a12, a7, 0x1fe
     f50:	21b180                                    	srai	a11, a8, 1
     f53:	057d                                    	mov.n	a7, a5
     f55:	0005e0                                    	callx8	a5
     f58:	0358                                    	l32i.n	a5, a3, 0
     f5a:	9168                                    	l32i.n	a6, a1, 36
     f5c:	71a8                                    	l32i.n	a10, a1, 28
     f5e:	4d0c                                    	movi.n	a13, 4
     f60:	74c552                                    	addi	a5, a5, 116
     f63:	5896b2                                    	l16si	a11, a6, 176
     f66:	ff95c2                                    	l16si	a12, a5, 0x1fe
     f69:	0007e0                                    	callx8	a7
     f6c:	0358                                    	l32i.n	a5, a3, 0
     f6e:	a168                                    	l32i.n	a6, a1, 40
     f70:	81a8                                    	l32i.n	a10, a1, 32
     f72:	4d0c                                    	movi.n	a13, 4
     f74:	76c552                                    	addi	a5, a5, 118
     f77:	5996b2                                    	l16si	a11, a6, 178
     f7a:	ff95c2                                    	l16si	a12, a5, 0x1fe
     f7d:	b4a262                                    	movi	a6, 0x2b4
     f80:	0007e0                                    	callx8	a7
     f83:	0358                                    	l32i.n	a5, a3, 0
     f85:	48a272                                    	movi	a7, 0x248
     f88:	3c0c                                    	movi.n	a12, 3
     f8a:	a46a                                    	add.n	a10, a4, a6
     f8c:	b57a                                    	add.n	a11, a5, a7
     f8e:	fc2551                                    	l32r	a5, 24 (a5c4 <xt_memcpy>)
     f91:	0005e0                                    	callx8	a5
     f94:	5138                                    	l32i.n	a3, a1, 20
     f96:	b1f8                                    	l32i.n	a15, a1, 44
     f98:	fc2271                                    	l32r	a7, 20 (d8e0 <aec_nr_para>)
     f9b:	44d262                                    	addmi	a6, a2, 0x4400
     f9e:	65a082                                    	movi	a8, 101
     fa1:	23a792                                    	movi	a9, 0x723
     fa4:	2e6342                                    	s32i	a4, a3, 184
     fa7:	1158b0                                    	slli	a5, a8, 5
     faa:	0738                                    	l32i.n	a3, a7, 0
     fac:	04ef16                                    	beqz	a15, ffe <SBAEC_INIT_inear+0x18a>
     faf:	5a96b2                                    	l16si	a11, a6, 180
     fb2:	f8a182                                    	movi	a8, 0x1f8
     fb5:	1199c0                                    	slli	a9, a9, 4
     fb8:	20c4f2                                    	addi	a15, a4, 32
     fbb:	131372                                    	l16ui	a7, a3, 38
     fbe:	c29a                                    	add.n	a12, a2, a9
     fc0:	03a8                                    	l32i.n	a10, a3, 0
     fc2:	11e7e0                                    	slli	a14, a7, 2
     fc5:	75d272                                    	addmi	a7, a2, 0x7500
     fc8:	da5a                                    	add.n	a13, a10, a5
     fca:	433eb0                                    	min	a3, a14, a11
     fcd:	fc5b51                                    	l32r	a5, 13c (10a4 <Fill_CH_MEM_CH5>)
     fd0:	ff5f32                                    	s16i	a3, a15, 0x1fe
     fd3:	348a                                    	add.n	a3, a4, a8
     fd5:	03ad                                    	mov.n	a10, a3
     fd7:	0005e0                                    	callx8	a5
     fda:	fc1151                                    	l32r	a5, 20 (d8e0 <aec_nr_para>)
     fdd:	4d0c                                    	movi.n	a13, 4
     fdf:	142722                                    	l32i	a2, a7, 80
     fe2:	5a96b2                                    	l16si	a11, a6, 180
     fe5:	8c6422                                    	s32i	a2, a4, 0x230
     fe8:	1527f2                                    	l32i	a15, a7, 84
     feb:	0558                                    	l32i.n	a5, a5, 0
     fed:	03ad                                    	mov.n	a10, a3
     fef:	fc5221                                    	l32r	a2, 138 (1000 <Fill_sbco>)
     ff2:	8b64f2                                    	s32i	a15, a4, 0x22c
     ff5:	03d552                                    	addmi	a5, a5, 0x300
     ff8:	4195c2                                    	l16si	a12, a5, 130
     ffb:	0002e0                                    	callx8	a2

00000ffe <SBAEC_INIT_inear+0x18a>:
     ffe:	f01d                                    	retw.n

00001000 <Fill_sbco>:
    1000:	004136                                    	entry	a1, 32
    1003:	ffa062                                    	movi	a6, 255
    1006:	11f400                                    	slli	a15, a4, 16
    1009:	7fd662                                    	addmi	a6, a6, 0x7f00
    100c:	115232                                    	s16i	a3, a2, 34
    100f:	105262                                    	s16i	a6, a2, 32
    1012:	125252                                    	s16i	a5, a2, 36
    1015:	52f9                                    	s32i.n	a15, a2, 20
    1017:	42f9                                    	s32i.n	a15, a2, 16
    1019:	f01d                                    	retw.n

0000101b <Fill_sbco+0x1b>:
	...

0000101c <Fill_CH_MEM_WB>:
    101c:	004136                                    	entry	a1, 32
    101f:	8188                                    	l32i.n	a8, a1, 32
    1021:	8ca092                                    	movi	a9, 140
    1024:	a0a0a2                                    	movi	a10, 160
    1027:	d389                                    	s32i.n	a8, a3, 52
    1029:	c8a0e2                                    	movi	a14, 200
    102c:	a279                                    	s32i.n	a7, a2, 40
    102e:	50c8c2                                    	addi	a12, a8, 80
    1031:	64c8f2                                    	addi	a15, a8, 100
    1034:	28c8b2                                    	addi	a11, a8, 40
    1037:	d2c9                                    	s32i.n	a12, a2, 52
    1039:	d4f9                                    	s32i.n	a15, a4, 52
    103b:	02d6f2                                    	addmi	a15, a6, 0x200
    103e:	f3b9                                    	s32i.n	a11, a3, 60
    1040:	f0a0c2                                    	movi	a12, 240
    1043:	78c8d2                                    	addi	a13, a8, 120
    1046:	b8ea                                    	add.n	a11, a8, a14
    1048:	989a                                    	add.n	a9, a8, a9
    104a:	a8aa                                    	add.n	a10, a8, a10
    104c:	f2d9                                    	s32i.n	a13, a2, 60
    104e:	6a9fe2                                    	l16si	a14, a15, 212
    1051:	c8ca                                    	add.n	a12, a8, a12
    1053:	f499                                    	s32i.n	a9, a4, 60
    1055:	f5a9                                    	s32i.n	a10, a5, 60
    1057:	6b9fa2                                    	l16si	a10, a15, 214
    105a:	02d6d2                                    	addmi	a13, a6, 0x200
    105d:	e3b9                                    	s32i.n	a11, a3, 56
    105f:	e2c9                                    	s32i.n	a12, a2, 56
    1061:	6c9fc2                                    	l16si	a12, a15, 216
    1064:	6d9d62                                    	l16si	a6, a13, 218
    1067:	90fe70                                    	addx2	a15, a14, a7
    106a:	907af0                                    	addx2	a7, a10, a15
    106d:	a3f9                                    	s32i.n	a15, a3, 40
    106f:	a479                                    	s32i.n	a7, a4, 40
    1071:	907c70                                    	addx2	a7, a12, a7
    1074:	906670                                    	addx2	a6, a6, a7
    1077:	a579                                    	s32i.n	a7, a5, 40
    1079:	b269                                    	s32i.n	a6, a2, 44
    107b:	906e60                                    	addx2	a6, a14, a6
    107e:	04a192                                    	movi	a9, 0x104
    1081:	a3b8                                    	l32i.n	a11, a3, 40
    1083:	a2d8                                    	l32i.n	a13, a2, 40
    1085:	90fa60                                    	addx2	a15, a10, a6
    1088:	889a                                    	add.n	a8, a8, a9
    108a:	c3b9                                    	s32i.n	a11, a3, 48
    108c:	c2d9                                    	s32i.n	a13, a2, 48
    108e:	a4e8                                    	l32i.n	a14, a4, 40
    1090:	902cf0                                    	addx2	a2, a12, a15
    1093:	b369                                    	s32i.n	a6, a3, 44
    1095:	c4e9                                    	s32i.n	a14, a4, 48
    1097:	b4f9                                    	s32i.n	a15, a4, 44
    1099:	e489                                    	s32i.n	a8, a4, 56
    109b:	c579                                    	s32i.n	a7, a5, 48
    109d:	b529                                    	s32i.n	a2, a5, 44
    109f:	f01d                                    	retw.n

000010a1 <Fill_CH_MEM_WB+0x85>:
    10a1:	000000                                        ...

000010a4 <Fill_CH_MEM_CH5>:
    10a4:	004136                                    	entry	a1, 32
    10a7:	903340                                    	addx2	a3, a3, a4
    10aa:	a249                                    	s32i.n	a4, a2, 40
    10ac:	c249                                    	s32i.n	a4, a2, 48
    10ae:	f259                                    	s32i.n	a5, a2, 60
    10b0:	b239                                    	s32i.n	a3, a2, 44
    10b2:	f01d                                    	retw.n

000010b4 <common_x_pow>:
    10b4:	004136                                    	entry	a1, 32
    10b7:	0ead456b09e143d0c48081390001030f 	{ ae_cvt48a32	aed0, a3; ae_cvt48a32	aed1, a4; nop; nop }
    10c7:	0eace870052912c8c50c20071262322f 	{ or	a3, a2, a2; movi	a2, 1; ae_abs64	aed2, aed0; ae_abs64	aed3, aed1 }
    10d7:	0ea5442510c62bd0c50083101884042f 	{ ae_lt64	b0, aed2, aed3; slli	a2, a2, 21; ae_sub64	aed4, aed3, aed2; nop }
    10e7:	20074240009f012e                  	{ movi	a2, 1; ae_cvt48a32	aed31, a2 }
    10ef:	0ead057b08c50cd0c5008139000114ff 	{ ae_lt64	b1, aed31, aed4; nop; nop; nop }
    10ff:	2a0076                                    	bf	b0, 112d <common_x_pow+0x79>
    1102:	1c0760400401ef4e                  	{ l32r	a4, 140 (2aaa00 <_end+0x29d114>); ae_mov	aed1, aed0 }
    110a:	210176                                    	bf	b1, 112f <common_x_pow+0x7b>
    110d:	050634c318e1647e                  	{ nop; ae_movda32x2	aed1, a4, a4 }
    1115:	2283530b3401b13e                  	{ nop; nop; ae_mulf48q32sp16s.l	aed1, aed0, aed1 }
    111d:	0ead017b08ec0cd0c50441381801020f 	{ j	112f <common_x_pow+0x7b>; nop; nop; ae_roundsq32f48asym	aed1, aed1 }

0000112d <common_x_pow+0x79>:
    112d:	020c                                    	movi.n	a2, 0
    112f:	fc0541                                    	l32r	a4, 144 (b540 <immediate_num>)
    1132:	220720c010c5723e                  	{ ae_l32m.i	aed2, a3, 8; nop }
    113a:	220720c100c5733e                  	{ ae_l32m.i	aed4, a3, 12; nop }
    1142:	230760c01c85b04e                  	{ ae_l16x2m.i	aed3, a4, 0; nop }
    114a:	0e1d029b0bfc0c25862b4e101843513f 	{ ae_sel16i	aed5, aed3, aed3, 1; nop; ae_mulf48q32sp16s.l	aed2, aed2, aed3; ae_mulf48q32sp16s.l	aed3, aed4, aed3 }
    115a:	0e9d241b0d4c0c0887130e100c05015f 	{ nop; nop; ae_mulaf48q32sp16s.l	aed2, aed0, aed5; ae_mulaf48q32sp16s.l	aed3, aed1, aed5 }
    116a:	0ead217b0d540cd0c50041380c01015f 	{ nop; nop; nop; ae_roundsq32f48asym	aed0, aed2 }
    117a:	0ead217b0d3d0cd0c58441390001023f 	{ ae_s32m.i	aed0, a3, 8; nop; nop; ae_roundsq32f48asym	aed1, aed3 }
    118a:	220760c008c5b33e                  	{ ae_s32m.i	aed1, a3, 12; nop }
    1192:	f01d                                    	retw.n

00001194 <ref_gain_adapt>:
    1194:	004136                                    	entry	a1, 32
    1197:	200704410c81037e                  	{ l32i	a7, a3, 20; ae_cvt48a32	aed1, a4 }
    119f:	210767471400c96e                  	{ l32r	a6, 144 (b540 <immediate_num>); ae_cvt48a32	aed0, a7 }
    11a7:	0955d6                                    	bgez	a5, 1240 <ref_gain_adapt+0xac>
    11aa:	100416c10883125e                  	{ l16si	a5, a2, 10; ae_l16x2m.i	aed3, a6, 4 }
    11b2:	070021c318e2747e                  	{ nop; ae_sel16i	aed2, aed3, aed3, 1 }
    11ba:	228313222422f50e                  	{ slli	a15, a5, 16; nop; ae_mulf48q32sp16s.l	aed4, aed1, aed2 }
    11c2:	21072f4318e2647e                  	{ nop; ae_cvt48a32	aed2, a15 }
    11ca:	0ead057b08c40cd0c50081390001042f 	{ ae_lt64	b0, aed2, aed4; nop; nop; nop }
    11da:	2a1076                                    	bt	b0, 1208 <ref_gain_adapt+0x74>
    11dd:	230760c01c85b26e                  	{ ae_l16x2m.i	aed3, a6, 8; nop }
    11e5:	070021c318e4747e                  	{ nop; ae_sel16i	aed4, aed3, aed3, 1 }
    11ed:	228353233424b13e                  	{ nop; nop; ae_mulf48q32sp16s.l	aed4, aed1, aed4 }
    11f5:	0ead057b08c40cd0c50081390001042f 	{ ae_lt64	b0, aed2, aed4; nop; nop; nop }
    1205:	730076                                    	bf	b0, 127c <ref_gain_adapt+0xe8>

00001208 <ref_gain_adapt+0x74>:
    1208:	2283530b3403b13e                  	{ nop; nop; ae_mulf48q32sp16s.l	aed1, aed0, aed3 }
    1210:	1e83540b3403b13e                  	{ nop; nop; ae_mulaf48q32sp16s.l	aed1, aed0, aed3 }
    1218:	220740c000e5116e                  	{ ae_mov	aed0, aed1; nop }
    1220:	0ead217b0d440cd0c50041380c01015f 	{ nop; nop; nop; ae_roundsq32f48asym	aed0, aed0 }
    1230:	0ead257b0d240cd0c400813b0c01670f 	{ ae_trunca32q48	a7, aed0; nop; nop; nop }
    1240:	120c                                    	movi.n	a2, 1
    1242:	0122b0                                    	slli	a2, a2, 21
    1245:	532720                                    	max	a2, a7, a2
    1248:	5329                                    	s32i.n	a2, a3, 20
    124a:	050563401481a56e                  	{ ae_l16x2m.i	aed2, a6, 20; ae_l32m.i	aed1, a3, 16 }
    1252:	228113083022422e                  	{ ae_sel16i	aed2, aed2, aed2, 1; nop; ae_mulf48q32sp16s.l	aed1, aed1, aed2 }
    125a:	1e83540b3402b13e                  	{ nop; nop; ae_mulaf48q32sp16s.l	aed1, aed0, aed2 }
    1262:	0ead217b0d4c0cd0c50041380c01015f 	{ nop; nop; nop; ae_roundsq32f48asym	aed0, aed1 }
    1272:	220760c000c5b43e                  	{ ae_s32m.i	aed0, a3, 16; nop }
    127a:	f01d                                    	retw.n

0000127c <ref_gain_adapt+0xe8>:
    127c:	2302f2401c80a36e                  	{ ae_l16x2m.i	aed3, a6, 12; addmi	a2, a2, 0x200 }
    1284:	228113292043433e                  	{ ae_sel16i	aed4, aed3, aed3, 1; nop; ae_mulf48q32sp16s.l	aed5, aed2, aed3 }
    128c:	ce0222                                    	l8ui	a2, a2, 206
    128f:	340c                                    	movi.n	a4, 3
    1291:	228353233444b13e                  	{ nop; nop; ae_mulf48q32sp16s.l	aed4, aed2, aed4 }
    1299:	0ead057b08c40cd0c50081380801145f 	{ ae_lt64	b1, aed5, aed1; nop; nop; nop }
    12a9:	0ead057b08c40cd0c50081390001041f 	{ ae_lt64	b0, aed1, aed4; nop; nop; nop }
    12b9:	021076                                    	bt	b0, 12bf <ref_gain_adapt+0x12b>
    12bc:	ffd806                                    	j	1220 <ref_gain_adapt+0x8c>
    12bf:	051176                                    	bt	b1, 12c8 <ref_gain_adapt+0x134>
    12c2:	028427                                    	bany	a4, a2, 12c8 <ref_gain_adapt+0x134>
    12c5:	ffd5c6                                    	j	1220 <ref_gain_adapt+0x8c>
    12c8:	230760c00c85b46e                  	{ ae_l16x2m.i	aed1, a6, 16; nop }
    12d0:	228353033401b13e                  	{ nop; nop; ae_mulf48q32sp16s.l	aed0, aed0, aed1 }
    12d8:	ffd106                                    	j	1220 <ref_gain_adapt+0x8c>

000012db <ref_gain_adapt+0x147>:
	...

000012dc <aec_post_calc>:
    12dc:	006136                                    	entry	a1, 48
    12df:	0c4466                                    	bnei	a4, 4, 12ef <aec_post_calc+0x13>
    12e2:	20c242                                    	addi	a4, a2, 32
    12e5:	000246                                    	j	12f2 <aec_post_calc+0x16>

000012e8 <aec_post_calc+0xc>:
    12e8:	00000000                                 .......

000012ef <aec_post_calc+0x13>:
    12ef:	1ec242                                    	addi	a4, a2, 30
    12f2:	150c                                    	movi.n	a5, 1
    12f4:	170c                                    	movi.n	a7, 1
    12f6:	0155d0                                    	slli	a5, a5, 19
    12f9:	117700                                    	slli	a7, a7, 16
    12fc:	200765400481604e                  	{ ae_l16m.i	aed0, a4, 0; ae_cvt48a32	aed1, a5 }
    1304:	0e9cc68811e53cd0c4808f090020270f 	{ ae_cvt48a32	aed2, a7; l32i	a12, a3, 8; ae_mulf48q32sp16u.l	aed1, aed1, aed0; nop }
    1314:	228354033440b13e                  	{ nop; nop; ae_mulf48q32sp16u.l	aed0, aed2, aed0 }
    131c:	220760c008c5b31e                  	{ ae_s32m.i	aed1, a1, 12; nop }
    1324:	3c03e14000c0b31e                  	{ ae_s32m.i	aed0, a1, 12; l32i	a13, a1, 12 }
    132c:	3368                                    	l32i.n	a6, a3, 12
    132e:	31e8                                    	l32i.n	a14, a1, 12
    1330:	fb8641                                    	l32r	a4, 148 (7324 <airoha_divide_limit_1>)
    1333:	53bcd0                                    	max	a11, a12, a13
    1336:	53f6e0                                    	max	a15, a6, a14
    1339:	43abf0                                    	min	a10, a11, a15
    133c:	0004e0                                    	callx8	a4
    133f:	140532c010c0663e                  	{ ae_l32m.i	aed2, a3, 24; ae_l32.i	aed0, a2, 16 }
    1347:	1a061ac60081024e                  	{ l16si	a4, a2, 48; ae_truncp24a32x2	aed1, a10, a10 }
    134f:	1e81cb162020225e                  	{ l16si	a5, a2, 4; nop; ae_mulaf32s.ll	aed2, aed1, aed0 }
    1357:	0b9272                                    	l16si	a7, a2, 22
    135a:	0a9282                                    	l16si	a8, a2, 20
    135d:	0eace160bd3429d0c40841380001006f 	{ movi	a6, 0; l16si	a9, a2, 46; nop; ae_roundsq32f48asym	aed2, aed2 }
    136d:	1c07604010c2b63e                  	{ ae_s32m.i	aed2, a3, 24; ae_mov	aed2, aed1 }
    1375:	a82b                                    	addi.n	a10, a8, 2
    1377:	13a547                                    	bge	a5, a4, 138e <aec_post_calc+0xb2>
    137a:	725690                                    	salt	a5, a6, a9
    137d:	83a850                                    	moveqz	a10, a8, a5
    1380:	67eda4                                    	wur.ae_sar	a10
    1383:	220700c308a5901e                  	{ ae_slas24s	aed2, aed1; nop }
    138b:	000a46                                    	j	13b8 <aec_post_calc+0xdc>

0000138e <aec_post_calc+0xb2>:
    138e:	074d                                    	mov.n	a4, a7
    1390:	2427a6                                    	blti	a7, 2, 13b8 <aec_post_calc+0xdc>
    1393:	944d                                    	ae_zext16	a4, a4
    1395:	1c0760471c62f44e                  	{ addi	a4, a4, -1; ae_mov	aed2, aed1 }
    139d:	178476                                    	loop	a4, 13b8 <aec_post_calc+0xdc>
    13a0:	22834a133441b13e                  	{ nop; nop; ae_mulf32s.ll	aed2, aed2, aed1 }
    13a8:	0ead057b08e40cd0c48081381401e22f 	{ ae_round24x2f48sasym	aed2, aed2, aed2; nop; nop; nop }

000013b8 <aec_post_calc+0xdc>:
    13b8:	060563400c9f772e                  	{ ae_l16m.i	aed1, a2, 14; ae_l32m.i	aed31, a3, 28 }
    13c0:	220740c00c85112e                  	{ ae_max32	aed1, aed2, aed1; nop }
    13c8:	1e834bfb3420b13e                  	{ nop; nop; ae_mulaf32s.ll	aed31, aed1, aed0 }
    13d0:	0ead3d7b0d5c0cd0c50041380c01015f 	{ nop; nop; nop; ae_roundsq32f48asym	aed0, aed31 }
    13e0:	220760c000c5b73e                  	{ ae_s32m.i	aed0, a3, 28; nop }
    13e8:	f01d                                    	retw.n

000013ea <aec_post_calc+0x10e>:
	...

000013ec <aec_post_calc_FB>:
    13ec:	006136                                    	entry	a1, 48
    13ef:	140c                                    	movi.n	a4, 1
    13f1:	160c                                    	movi.n	a6, 1
    13f3:	0144d0                                    	slli	a4, a4, 19
    13f6:	1ec272                                    	addi	a7, a2, 30
    13f9:	2107244510a0060e                  	{ slli	a6, a6, 16; ae_cvt48a32	aed0, a4 }
    1401:	200766400c82607e                  	{ ae_l16m.i	aed1, a7, 0; ae_cvt48a32	aed2, a6 }
    1409:	0e1cc28dc1ec2415832b6f00140103cf 	{ l32i	a12, a3, 8; l32i	a4, a2, 0x2e0; ae_mulf48q32sp16u.l	aed0, aed0, aed1; ae_mulf48q32sp16u.l	aed1, aed2, aed1 }
    1419:	3e03e34000c0a31e                  	{ ae_s32m.i	aed0, a1, 12; l32i	a14, a3, 12 }
    1421:	3c03e14008c0b31e                  	{ ae_s32m.i	aed1, a1, 12; l32i	a13, a1, 12 }
    1429:	31f8                                    	l32i.n	a15, a1, 12
    142b:	53bcd0                                    	max	a11, a12, a13
    142e:	535ef0                                    	max	a5, a14, a15
    1431:	43ab50                                    	min	a10, a11, a5
    1434:	fb4551                                    	l32r	a5, 148 (7324 <airoha_divide_limit_1>)
    1437:	0005e0                                    	callx8	a5
    143a:	2402b44010c0763e                  	{ ae_l32m.i	aed2, a3, 24; addmi	a5, a4, 0x200 }
    1442:	1a063ac004c1242e                  	{ ae_l32.i	aed0, a2, 16; ae_truncp24a32x2	aed1, a10, a10 }
    144a:	1e81cb162020226e                  	{ l16si	a6, a2, 4; nop; ae_mulaf32s.ll	aed2, aed1, aed0 }
    1452:	5d9552                                    	l16si	a5, a5, 186
    1455:	0b9272                                    	l16si	a7, a2, 22
    1458:	02d482                                    	addmi	a8, a4, 0x200
    145b:	0eace168247249d0c5084138140122bf 	{ l16si	a11, a2, 20; addmi	a9, a4, 0x400; nop; ae_roundsq32f48asym	aed2, aed2 }
    146b:	1c07604010c2b63e                  	{ ae_s32m.i	aed2, a3, 24; ae_mov	aed2, aed1 }
    1473:	1fa657                                    	bge	a6, a5, 1496 <aec_post_calc_FB+0xaa>
    1476:	5e9852                                    	l16si	a5, a8, 188
    1479:	4a9962                                    	l16si	a6, a9, 148
    147c:	7b2b                                    	addi.n	a7, a11, 2
    147e:	725650                                    	salt	a5, a6, a5
    1481:	837b50                                    	moveqz	a7, a11, a5
    1484:	67ed74                                    	wur.ae_sar	a7
    1487:	220700c308a5901e                  	{ ae_slas24s	aed2, aed1; nop }
    148f:	000b46                                    	j	14c0 <aec_post_calc_FB+0xd4>

00001492 <aec_post_calc_FB+0xa6>:
    1492:	00000000                                ....

00001496 <aec_post_calc_FB+0xaa>:
    1496:	072d                                    	mov.n	a2, a7
    1498:	2427a6                                    	blti	a7, 2, 14c0 <aec_post_calc_FB+0xd4>
    149b:	922d                                    	ae_zext16	a2, a2
    149d:	1c0760471c62f22e                  	{ addi	a2, a2, -1; ae_mov	aed2, aed1 }
    14a5:	178276                                    	loop	a2, 14c0 <aec_post_calc_FB+0xd4>
    14a8:	22834a133441b13e                  	{ nop; nop; ae_mulf32s.ll	aed2, aed2, aed1 }
    14b0:	0ead057b08e40cd0c48081381401e22f 	{ ae_round24x2f48sasym	aed2, aed2, aed2; nop; nop; nop }

000014c0 <aec_post_calc_FB+0xd4>:
    14c0:	b4a222                                    	movi	a2, 0x2b4
    14c3:	060563400c9f924e                  	{ ae_l16m.x	aed1, a4, a2; ae_l32m.i	aed31, a3, 28 }
    14cb:	220740c00c85112e                  	{ ae_max32	aed1, aed2, aed1; nop }
    14d3:	1e834bfb3420b13e                  	{ nop; nop; ae_mulaf32s.ll	aed31, aed1, aed0 }
    14db:	0ead3d7b0d5c0cd0c50041380c01015f 	{ nop; nop; nop; ae_roundsq32f48asym	aed0, aed31 }
    14eb:	220760c000c5b73e                  	{ ae_s32m.i	aed0, a3, 28; nop }
    14f3:	f01d                                    	retw.n

000014f5 <aec_post_calc_FB+0x109>:
    14f5:	000000                                        ...

000014f8 <subband_aec_block>:
    14f8:	008136                                    	entry	a1, 64
    14fb:	a388                                    	l32i.n	a8, a3, 40
    14fd:	f41b                                    	addi.n	a15, a4, 1
    14ff:	0d0740400ca84c0e                  	{ ae_movi	aed1, 0; ae_movi	aed8, 0 }
    1507:	1193e2                                    	l16si	a14, a3, 34
    150a:	6169                                    	s32i.n	a6, a1, 24
    150c:	a378                                    	l32i.n	a7, a3, 40
    150e:	b3f440                                    	movgez	a15, a4, a4
    1511:	f3f670                                    	wur.ae_cbegin0	a7
    1514:	906e80                                    	addx2	a6, a14, a8
    1517:	2191f0                                    	srai	a9, a15, 1
    151a:	f3f760                                    	wur.ae_cend0	a6
    151d:	e388                                    	l32i.n	a8, a3, 56
    151f:	5149                                    	s32i.n	a4, a1, 20
    1521:	0c23a2                                    	l32i	a10, a3, 48
    1524:	7824a6                                    	blti	a4, 2, 15a0 <subband_aec_block+0xa8>
    1527:	040503450480a27e                  	{ l32i	a7, a2, 0x2d0; ae_l32m.i	aed0, a3, 16 }
    152f:	04a062                                    	movi	a6, 4
    1532:	204aa0                                    	or	a4, a10, a10
    1535:	100478c70462e77e                  	{ addi	a7, a7, -4; ae_l16x2m.i	aed2, a8, 0 }
    153d:	5f8976                                    	loop	a9, 15a0 <subband_aec_block+0xa8>
    1540:	0e9cc690fbe646d0c4008e201002312f 	{ ae_sel16i	aed3, aed2, aed2, 1; ae_l16x2m.xc	aed31, a4, a6; ae_mulf48q32sp16s.l	aed4, aed0, aed2; nop }
    1550:	0e9d229b0d540c0089130ee80c03015f 	{ nop; nop; ae_mulf48q32sp16s.l	aed29, aed0, aed3; ae_mulaf48q32sp16s.l	aed4, aed0, aed2 }
    1560:	0e1d3c1b0d5c0cfe432f4ee80c03015f 	{ nop; nop; ae_mulaf48q32sp16s.l	aed29, aed0, aed3; ae_mulssfd32s.hh.ll	aed1, aed31, aed31 }
    1570:	0ead257b0d440ce8c37881380c01015f 	{ nop; nop; nop; ae_roundsp16q48x2asym	aed30, aed4, aed4 }
    1580:	0ead3d7b0d4c0ce8c30ba1380c01015f 	{ nop; nop; nop; ae_roundsp16q48x2asym	aed2, aed29, aed29 }
    1590:	3c0071401483c18e                  	{ ae_l16x2m.iu	aed2, a8, 4; ae_sel16i	aed3, aed2, aed30, 2 }
    1598:	1c82da092063317e                  	{ ae_s16x2m.iu	aed3, a7, 4; nop; ae_mulaafd32s.hh.ll	aed1, aed3, aed3 }

000015a0 <subband_aec_block+0xa8>:
    15a0:	0e6ce5684d3d2f400600213f00018f3f 	{ ae_l64.i	aed30, a3, 0; l32i	a15, a2, 36; nop; ae_srai64	aed0, aed1, 8 }
    15b0:	0ea5440bf9e0f3d0c5009e051d60119f 	{ s32i	a9, a1, 28; ae_cvt48a32	aed31, a15; ae_add64	aed0, aed30, aed0; nop }
    15c0:	0eacc42081e432d0c50080050560112f 	{ s32i	a2, a1, 16; l16si	a2, a3, 32; ae_sat48s	aed0, aed0; nop }
    15d0:	0ead057b08e40cd0c480813f1c01000f 	{ ae_max64	aed0, aed0, aed31; nop; nop; nop }
    15e0:	220700c000e5933e                  	{ ae_s64.i	aed0, a3, 0; nop }
    15e8:	01d5d6                                    	bgez	a5, 1609 <subband_aec_block+0x111>
    15eb:	0ead6565d52627d0c400813b0c016b0f 	{ ae_trunca32q48	a11, aed0; slli	a10, a2, 9; nop; nop }
    15fb:	fad421                                    	l32r	a2, 14c (7270 <airoha_divide>)
    15fe:	0002e0                                    	callx8	a2
    1601:	230740c204a55c0e                  	{ ae_movi	aed8, 0; nop }

00001609 <subband_aec_block+0x111>:
    1609:	5148                                    	l32i.n	a4, a1, 20
    160b:	c328                                    	l32i.n	a2, a3, 48
    160d:	4178                                    	l32i.n	a7, a1, 16
    160f:	d368                                    	l32i.n	a6, a3, 52
    1611:	f3c8                                    	l32i.n	a12, a3, 60
    1613:	0c0700440882038e                  	{ l16si	a8, a3, 34; ae_movi	aed2, 0 }
    161b:	51d8                                    	l32i.n	a13, a1, 20
    161d:	0214e6                                    	bgei	a4, 1, 1623 <subband_aec_block+0x12b>
    1620:	005386                                    	j	1772 <subband_aec_block+0x27a>
    1623:	20070b450480a77e                  	{ l32i	a7, a7, 0x2d0; ae_cvt48a32	aed0, a11 }
    162b:	feccb2                                    	addi	a11, a12, -2
    162e:	02a092                                    	movi	a9, 2
    1631:	fec6c2                                    	addi	a12, a6, -2
    1634:	21f380                                    	srai	a15, a8, 3
    1637:	fec7e2                                    	addi	a14, a7, -2
    163a:	230760c00c8571ee                  	{ ae_l16m.iu	aed1, a14, 2; nop }
    1642:	1d0741400cc1292e                  	{ ae_s16m.l.xc	aed1, a2, a9; ae_mov	aed1, aed2 }
    164a:	207220                                    	or	a7, a2, a2
    164d:	000003f8000000fbb50303062460f8cf 	{ blti.w15	a8, 8, 1690 <subband_aec_block+0x198>; ae_la16x4x2pos.pc	u0, a7; nop }
    165d:	0b2342                                    	l32i	a4, a3, 44
    1660:	000080c453e341004a830321b000f00f 	{ loop	a15, 1690 <subband_aec_block+0x198>; ae_l16x4x2.ip	aed3, aed4, a4, 16; nop }
    1670:	0000814954460f0046031323b000917f 	{ ae_la16x4x2_ic	aed5, aed6, u0, a7; nop; nop }
    1680:	026d017b0bfd0c284410c13d0001c14f 	{ ae_l16x4x2.ip	aed3, aed4, a4, 16; nop; nop; ae_mulaaaa2q16	aed2, aed1, aed5, aed6, aed3, aed4 }

00001690 <subband_aec_block+0x198>:
    1690:	0e6ce9711902c148478021380401852f 	{ ae_slai64	aed2, aed2, 17; ae_l16m.iu	aed3, a12, 2; nop; ae_slai64	aed1, aed1, 17 }
    16a0:	220740c018e5132e                  	{ ae_cvtq56p32s.l	aed3, aed3; nop }
    16a8:	0ead057b08e40cd0c58081381001e23f 	{ ae_sub64	aed2, aed3, aed2; nop; nop; nop }
    16b8:	0ead057b08e40cd0c58081380801e12f 	{ ae_sub64	aed1, aed2, aed1; nop; nop; nop }
    16c8:	0ead217b0d4c0ce8c30421380c01015f 	{ nop; nop; nop; ae_roundsp16q48x2asym	aed1, aed1, aed1 }
    16d8:	2282b30f300111be                  	{ ae_s16m.l.iu	aed1, a11, 2; nop; ae_mulf48q32sp16s.l	aed1, aed0, aed1 }
    16e0:	0845d6                                    	bgez	a5, 1768 <subband_aec_block+0x270>
    16e3:	220700c010a55a1e                  	{ ae_slaasq56s	aed1, aed1, a10; nop }
    16eb:	0ead217b0c0c0ca8c204213c1001c07f 	{ ae_la16x4x2_ic	aed3, aed2, u0, a7; nop; nop; ae_round32x2f48sasym	aed1, aed1, aed1 }
    16fb:	6988a6                                    	blti	a8, 8, 1768 <subband_aec_block+0x270>
    16fe:	b348                                    	l32i.n	a4, a3, 44
    1700:	230720c318e5747e                  	{ nop; nop }
    1708:	0020f0                                    	nop
    170b:	f03d                                    	nop.n
    170d:	578f76                                    	loop	a15, 1768 <subband_aec_block+0x270>
    1710:	0e1d033b0bfd0c0f882b4df51823854f 	{ ae_l16x4x2.ip	aed6, aed7, a4, 16; nop; ae_mulfp32x16x2s.l	aed30, aed1, aed3; ae_mulfp32x16x2s.h	aed4, aed1, aed3 }
    1720:	0e1d233b0d540c0f8b2b4df80c22015f 	{ nop; nop; ae_mulfp32x16x2s.l	aed31, aed1, aed2; ae_mulfp32x16x2s.h	aed5, aed1, aed2 }
    1730:	230740c01c859e4e                  	{ ae_round16x4f32sasym	aed3, aed4, aed30; nop }
    1738:	0ea5241b0d040cd0c48085f81b62d06f 	{ ae_add16s	aed4, aed6, aed3; nop; ae_round16x4f32sasym	aed2, aed5, aed31; nop }
    1748:	0ead25621d0070d0c48081381001d17f 	{ ae_add16s	aed5, aed7, aed2; ae_la16x4x2_ic	aed3, aed2, u0, a7; nop; nop }
    1758:	0000814957a60f005e030323a800b04f 	{ ae_s16x4x2.i	aed4, aed5, a4, -16; nop; nop }
    1768:	dd0b                                    	addi.n	a13, a13, -1
    176a:	0c07603903c26dee                  	{ bnez.w15	a13, 163a <subband_aec_block+0x142>; ae_movi	aed2, 0 }

00001772 <subband_aec_block+0x27a>:
    1772:	51f8                                    	l32i.n	a15, a1, 20
    1774:	c329                                    	s32i.n	a2, a3, 48
    1776:	0d0740400ca04c0e                  	{ ae_movi	aed1, 0; ae_movi	aed0, 0 }
    177e:	d328                                    	l32i.n	a2, a3, 52
    1780:	7168                                    	l32i.n	a6, a1, 28
    1782:	f348                                    	l32i.n	a4, a3, 60
    1784:	282fa6                                    	blti	a15, 2, 17b0 <subband_aec_block+0x2b8>
    1787:	fcc222                                    	addi	a2, a2, -4
    178a:	fcc442                                    	addi	a4, a4, -4
    178d:	1f8676                                    	loop	a6, 17b0 <subband_aec_block+0x2b8>
    1790:	200474c01483d12e                  	{ ae_l16x2m.iu	aed2, a2, 4; ae_l16x2m.iu	aed3, a4, 4 }
    1798:	0e1523fb0d540c16032b38000c43015f 	{ nop; nop; ae_mulaafd32s.hh.ll	aed0, aed2, aed3; ae_mulaafd32s.hh.ll	aed1, aed2, aed2 }
    17a8:	1c835a433463b13e                  	{ nop; nop; ae_mulaafd32s.hh.ll	aed8, aed3, aed3 }

000017b0 <subband_aec_block+0x2b8>:
    17b0:	0e6cc17001f80660870101381401112f 	{ l32i	a2, a1, 24; movi	a6, 0; nop; ae_srai64	aed2, aed8, 4 }
    17c0:	0ea4e430052014d0c40088100082007f 	{ movi	a7, 0; movi	a4, 1; ae_sub64	aed2, aed8, aed2; nop }
    17d0:	0ead057b08c40cd0c50081381001041f 	{ ae_lt64	b0, aed1, aed2; nop; nop; nop }
    17e0:	0442a6                                    	blti	a2, 4, 17e8 <subband_aec_block+0x2f0>
    17e3:	070c                                    	movi.n	a7, 0
    17e5:	d37400                                    	movt	a7, a4, b0

000017e8 <subband_aec_block+0x2f0>:
    17e8:	0e6ce169211e38600780013a0c01501f 	{ ae_srai64	aed1, aed1, 4; l8ui	a8, a3, 36; nop; ae_srai64	aed0, aed0, 4 }
    17f8:	0eacc17001e80ad0c50441380401119f 	{ l32i	a9, a1, 16; movi	a10, 0; nop; ae_roundsq32f48asym	aed1, aed1 }
    1808:	0ead217b0d240cd0c400413b0c01641f 	{ ae_trunca32q48	a4, aed1; nop; nop; ae_roundsq32f48asym	aed0, aed0 }
    1818:	0ead257b0d240cd0c400813b0c01620f 	{ ae_trunca32q48	a2, aed0; nop; nop; nop }
    1828:	056827                                    	bbci	a8, 2, 1831 <subband_aec_block+0x339>
    182b:	b82962                                    	l32i	a6, a9, 0x2e0
    182e:	626a60                                    	saltu	a6, a10, a6
    1831:	fa4781                                    	l32r	a8, 150 (10b4 <common_x_pow>)
    1834:	03ad                                    	mov.n	a10, a3
    1836:	04bd                                    	mov.n	a11, a4
    1838:	02cd                                    	mov.n	a12, a2
    183a:	0008e0                                    	callx8	a8
    183d:	7a7a                                    	add.n	a7, a10, a7
    183f:	36ac                                    	beqz.n	a6, 1866 <subband_aec_block+0x36e>
    1841:	6168                                    	l32i.n	a6, a1, 24
    1843:	1f1766                                    	bnei	a7, 1, 1866 <subband_aec_block+0x36e>
    1846:	4178                                    	l32i.n	a7, a1, 16
    1848:	0b46e6                                    	bgei	a6, 4, 1857 <subband_aec_block+0x35f>
    184b:	b82762                                    	l32i	a6, a7, 0x2e0
    184e:	02d662                                    	addmi	a6, a6, 0x200
    1851:	5d9662                                    	l16si	a6, a6, 186
    1854:	1c16e6                                    	bgei	a6, 1, 1874 <subband_aec_block+0x37c>
    1857:	212220                                    	srai	a2, a2, 2
    185a:	602120                                    	abs	a2, a2
    185d:	902220                                    	addx2	a2, a2, a2
    1860:	04a247                                    	bge	a2, a4, 1868 <subband_aec_block+0x370>
    1863:	000346                                    	j	1874 <subband_aec_block+0x37c>

00001866 <subband_aec_block+0x36e>:
    1866:	a78c                                    	beqz.n	a7, 1874 <subband_aec_block+0x37c>
    1868:	f3a8                                    	l32i.n	a10, a3, 60
    186a:	51c8                                    	l32i.n	a12, a1, 20
    186c:	d3b8                                    	l32i.n	a11, a3, 52
    186e:	f9ed21                                    	l32r	a2, 24 (a5c4 <xt_memcpy>)
    1871:	0002e0                                    	callx8	a2
    1874:	4148                                    	l32i.n	a4, a1, 16
    1876:	1c0c                                    	movi.n	a12, 1
    1878:	fa3721                                    	l32r	a2, 154 (1894 <sbaec_common1>)
    187b:	03bd                                    	mov.n	a11, a3
    187d:	05dd                                    	mov.n	a13, a5
    187f:	04ad                                    	mov.n	a10, a4
    1881:	0002e0                                    	callx8	a2
    1884:	fa3521                                    	l32r	a2, 158 (19bc <sbaec_common2>)
    1887:	04ad                                    	mov.n	a10, a4
    1889:	61c8                                    	l32i.n	a12, a1, 24
    188b:	03bd                                    	mov.n	a11, a3
    188d:	05dd                                    	mov.n	a13, a5
    188f:	0002e0                                    	callx8	a2
    1892:	f01d                                    	retw.n

00001894 <sbaec_common1>:
    1894:	006136                                    	entry	a1, 48
    1897:	139362                                    	l16si	a6, a3, 38
    189a:	1f0c                                    	movi.n	a15, 1
    189c:	0c0700440880037e                  	{ l16si	a7, a3, 34; ae_movi	aed0, 0 }
    18a4:	036152                                    	s32i	a5, a1, 12
    18a7:	c05f40                                    	sub	a5, a15, a4
    18aa:	01c482                                    	addi	a8, a4, 1
    18ad:	0b2392                                    	l32i	a9, a3, 44
    18b0:	401500                                    	ssl	a5
    18b3:	c07760                                    	sub	a7, a7, a6
    18b6:	a14700                                    	sll	a4, a7
    18b9:	400800                                    	ssr	a8
    18bc:	b17060                                    	sra	a7, a6
    18bf:	904490                                    	addx2	a4, a4, a9
    18c2:	1217a6                                    	blti	a7, 1, 18d8 <sbaec_common1+0x44>
    18c5:	230720c00ca5b14e                  	{ ae_l16x4.ip	aed1, a4, 8; nop }
    18cd:	078776                                    	loop	a7, 18d8 <sbaec_common1+0x44>
    18d0:	1c826a002021134e                  	{ ae_l16x4.ip	aed1, a4, 8; nop; ae_mulaaaaq16	aed0, aed1, aed1 }

000018d8 <sbaec_common1+0x44>:
    18d8:	0e6ccd7001e80978070001381c01038f 	{ l32i	a8, a3, 12; movi	a9, 0; nop; ae_slai64s	aed0, aed0, 31 }
    18e8:	0eacc56810e43bd0c58081380001400f 	{ ae_round32x2f64sasym	aed0, aed0, aed0; l32i	a11, a3, 8; nop; nop }
    18f8:	230700c000e5d64e                  	{ ae_movad32.l	a4, aed0; nop }
    1900:	53a890                                    	max	a10, a8, a9
    1903:	fa1181                                    	l32r	a8, 148 (7324 <airoha_divide_limit_1>)
    1906:	0008e0                                    	callx8	a8
    1909:	ffa082                                    	movi	a8, 255
    190c:	049292                                    	l16si	a9, a2, 8
    190f:	7fd882                                    	addmi	a8, a8, 0x7f00
    1912:	2403f2                                    	l8ui	a15, a3, 36
    1915:	31a0a0                                    	srai	a10, a10, 16
    1918:	0392e2                                    	l16si	a14, a2, 6
    191b:	c088a0                                    	sub	a8, a8, a10
    191e:	31d8                                    	l32i.n	a13, a1, 12
    1920:	538890                                    	max	a8, a8, a9
    1923:	02ad                                    	mov.n	a10, a2
    1925:	03bd                                    	mov.n	a11, a3
    1927:	09ef17                                    	bbsi	a15, 1, 1934 <sbaec_common1+0xa0>
    192a:	105382                                    	s16i	a8, a3, 32
    192d:	0005c6                                    	j	1948 <sbaec_common1+0xb4>

00001930 <sbaec_common1+0x9c>:
    1930:	00000000                                ....

00001934 <sbaec_common1+0xa0>:
    1934:	04cd                                    	mov.n	a12, a4
    1936:	8288e0                                    	mull	a8, a8, a14
    1939:	40d882                                    	addmi	a8, a8, 0x4000
    193c:	418f80                                    	srli	a8, a8, 15
    193f:	105382                                    	s16i	a8, a3, 32
    1942:	fa0681                                    	l32r	a8, 15c (1194 <ref_gain_adapt>)
    1945:	0008e0                                    	callx8	a8
    1948:	059282                                    	l16si	a8, a2, 10
    194b:	290c                                    	movi.n	a9, 2
    194d:	069222                                    	l16si	a2, a2, 12
    1950:	f9fda1                                    	l32r	a10, 144 (b540 <immediate_num>)
    1953:	118800                                    	slli	a8, a8, 16
    1956:	f9fbc1                                    	l32r	a12, 144 (b540 <immediate_num>)
    1959:	112200                                    	slli	a2, a2, 16
    195c:	58a847                                    	bge	a8, a4, 19b8 <sbaec_common1+0x124>
    195f:	129382                                    	l16si	a8, a3, 36
    1962:	18cab2                                    	addi	a11, a10, 24
    1965:	208890                                    	or	a8, a8, a9
    1968:	18ccd2                                    	addi	a13, a12, 24
    196b:	125382                                    	s16i	a8, a3, 36
    196e:	07a247                                    	bge	a2, a4, 1979 <sbaec_common1+0xe5>
    1971:	20048dc000600c0e                  	{ j	1981 <sbaec_common1+0xed>; ae_l16.i	aed0, a13, 0 }

00001979 <sbaec_common1+0xe5>:
    1979:	230720c0048591be                  	{ ae_l16.i	aed0, a11, 2; nop }
    1981:	401500                                    	ssl	a5
    1984:	3017a6                                    	blti	a7, 1, 19b8 <sbaec_common1+0x124>
    1987:	119322                                    	l16si	a2, a3, 34
    198a:	b3f8                                    	l32i.n	a15, a3, 44
    198c:	c02260                                    	sub	a2, a2, a6
    198f:	a12200                                    	sll	a2, a2
    1992:	9022f0                                    	addx2	a2, a2, a15
    1995:	230720c00ca5b12e                  	{ ae_l16x4.ip	aed1, a2, 8; nop }
    199d:	178776                                    	loop	a7, 19b8 <sbaec_common1+0x124>
    19a0:	0e9d26db0d440cd0c5008f080c01015f 	{ nop; nop; ae_mulfp16x4ras	aed1, aed0, aed1; nop }
    19b0:	210612c008e17f2e                  	{ ae_s16x4.i	aed1, a2, -8; ae_l16x4.ip	aed1, a2, 8 }

000019b8 <sbaec_common1+0x124>:
    19b8:	f01d                                    	retw.n

000019ba <sbaec_common1+0x126>:
	...

000019bc <sbaec_common2>:
    19bc:	004136                                    	entry	a1, 32
    19bf:	121362                                    	l16ui	a6, a3, 36
    19c2:	02ad                                    	mov.n	a10, a2
    19c4:	04cd                                    	mov.n	a12, a4
    19c6:	867d                                    	ae_sext16	a7, a6
    19c8:	03bd                                    	mov.n	a11, a3
    19ca:	38e707                                    	bbsi	a7, 0, 1a06 <sbaec_common2+0x4a>
    19cd:	336727                                    	bbci	a7, 2, 1a04 <sbaec_common2+0x48>
    19d0:	b82272                                    	l32i	a7, a2, 0x2e0
    19d3:	04d782                                    	addmi	a8, a7, 0x400
    19d6:	481872                                    	l16ui	a7, a8, 144
    19d9:	0d1466                                    	bnei	a4, 1, 19ea <sbaec_common2+0x2e>
    19dc:	ffa542                                    	movi	a4, 0x5ff
    19df:	0075d6                                    	bgez	a5, 19ea <sbaec_common2+0x2e>
    19e2:	0c3477                                    	bltu	a4, a7, 19f2 <sbaec_common2+0x36>
    19e5:	771b                                    	addi.n	a7, a7, 1
    19e7:	485872                                    	s16i	a7, a8, 144

000019ea <sbaec_common2+0x2e>:
    19ea:	974d                                    	ae_zext16	a4, a7
    19ec:	00a652                                    	movi	a5, 0x600
    19ef:	073457                                    	bltu	a4, a5, 19fa <sbaec_common2+0x3e>
    19f2:	240c                                    	movi.n	a4, 2
    19f4:	204640                                    	or	a4, a6, a4
    19f7:	125342                                    	s16i	a4, a3, 36
    19fa:	f9da41                                    	l32r	a4, 164 (13ec <aec_post_calc_FB>)
    19fd:	02ad                                    	mov.n	a10, a2
    19ff:	03bd                                    	mov.n	a11, a3
    1a01:	0004e0                                    	callx8	a4
    1a04:	f01d                                    	retw.n

00001a06 <sbaec_common2+0x4a>:
    1a06:	f9d651                                    	l32r	a5, 160 (12dc <aec_post_calc>)
    1a09:	0005e0                                    	callx8	a5
    1a0c:	f01d                                    	retw.n

00001a0e <sbaec_common2+0x52>:
	...

00001a10 <subband_aec_mid_channel>:
    1a10:	006136                                    	entry	a1, 48
    1a13:	a368                                    	l32i.n	a6, a3, 40
    1a15:	b422f2                                    	l32i	a15, a2, 0x2d0
    1a18:	0d07404004a84c0e                  	{ ae_movi	aed0, 0; ae_movi	aed8, 0 }
    1a20:	119372                                    	l16si	a7, a3, 34
    1a23:	ae0c                                    	movi.n	a14, 10
    1a25:	a388                                    	l32i.n	a8, a3, 40
    1a27:	3159                                    	s32i.n	a5, a1, 12
    1a29:	f3f680                                    	wur.ae_cbegin0	a8
    1a2c:	a07760                                    	addx4	a7, a7, a6
    1a2f:	e368                                    	l32i.n	a6, a3, 56
    1a31:	f3f770                                    	wur.ae_cend0	a7
    1a34:	c378                                    	l32i.n	a7, a3, 48
    1a36:	490c                                    	movi.n	a9, 4
    1a38:	100436c008c2643e                  	{ ae_l32m.i	aed1, a3, 16; ae_l16x2m.i	aed2, a6, 0 }
    1a40:	fccf82                                    	addi	a8, a15, -4
    1a43:	230720c318e5747e                  	{ nop; nop }
    1a4b:	f03d                                    	nop.n
    1a4d:	5f8e76                                    	loop	a14, 1ab0 <subband_aec_mid_channel+0xa0>
    1a50:	0e9cc690fbe679d0c4008e201022312f 	{ ae_sel16i	aed3, aed2, aed2, 1; ae_l16x2m.xc	aed31, a7, a9; ae_mulf48q32sp16s.l	aed4, aed1, aed2; nop }
    1a60:	0e9d229b0d540c0889130ee80c23015f 	{ nop; nop; ae_mulf48q32sp16s.l	aed29, aed1, aed3; ae_mulaf48q32sp16s.l	aed4, aed1, aed2 }
    1a70:	0e1d3c1b0d5c0cfe412f4ee80c23015f 	{ nop; nop; ae_mulaf48q32sp16s.l	aed29, aed1, aed3; ae_mulssfd32s.hh.ll	aed0, aed31, aed31 }
    1a80:	0ead257b0d440ce8c37881380c01015f 	{ nop; nop; nop; ae_roundsp16q48x2asym	aed30, aed4, aed4 }
    1a90:	0ead3d7b0d4c0ce8c30ba1380c01015f 	{ nop; nop; nop; ae_roundsp16q48x2asym	aed2, aed29, aed29 }
    1aa0:	3c0071401483c16e                  	{ ae_l16x2m.iu	aed2, a6, 4; ae_sel16i	aed3, aed2, aed30, 2 }
    1aa8:	1c82da012063318e                  	{ ae_s16x2m.iu	aed3, a8, 4; nop; ae_mulaafd32s.hh.ll	aed0, aed3, aed3 }

00001ab0 <subband_aec_mid_channel+0xa0>:
    1ab0:	0e6d016009f83f70070001380c01225f 	{ l32i	a5, a2, 36; ae_l64.i	aed1, a3, 0; nop; ae_srai64	aed0, aed0, 6 }
    1ac0:	0ea4e400852536d0c4008100056055ef 	{ slli	a5, a5, 2; l16si	a6, a3, 32; ae_add64	aed0, aed1, aed0; nop }
    1ad0:	0ead442bf9e153d0c40080071d60935f 	{ l32r	a5, 14c (7270 <airoha_divide>); ae_cvt48a32	aed31, a5; ae_sat48s	aed0, aed0; nop }
    1ae0:	0ead057b08e40cd0c480813f1c01000f 	{ ae_max64	aed0, aed0, aed31; nop; nop; nop }
    1af0:	220700c000e5933e                  	{ ae_s64.i	aed0, a3, 0; nop }
    1af8:	01a4d6                                    	bgez	a4, 1b16 <subband_aec_mid_channel+0x106>
    1afb:	0ead6565d52665d0c400813b0c016b0f 	{ ae_trunca32q48	a11, aed0; slli	a10, a6, 11; nop; nop }
    1b0b:	0005e0                                    	callx8	a5
    1b0e:	230740c204a55c0e                  	{ ae_movi	aed8, 0; nop }

00001b16 <subband_aec_mid_channel+0x106>:
    1b16:	d3d8                                    	l32i.n	a13, a3, 52
    1b18:	b422e2                                    	l32i	a14, a2, 0x2d0
    1b1b:	f358                                    	l32i.n	a5, a3, 60
    1b1d:	119372                                    	l16si	a7, a3, 34
    1b20:	20070b430480036e                  	{ l32i	a6, a3, 48; ae_cvt48a32	aed0, a11 }
    1b28:	fccdb2                                    	addi	a11, a13, -4
    1b2b:	b388                                    	l32i.n	a8, a3, 44
    1b2d:	fec5d2                                    	addi	a13, a5, -2
    1b30:	2129                                    	s32i.n	a2, a1, 8
    1b32:	4c0c                                    	movi.n	a12, 4
    1b34:	0aa092                                    	movi	a9, 10
    1b37:	fccee2                                    	addi	a14, a14, -4
    1b3a:	215270                                    	srai	a5, a7, 2
    1b3d:	2806f8400c88c1ee                  	{ ae_l16x2m.iu	aed1, a14, 4; or	a2, a8, a8 }
    1b45:	220740c00cc59c6e                  	{ ae_s16x2m.xc	aed1, a6, a12; nop }
    1b4d:	220760c00c85d1be                  	{ ae_l16x2m.iu	aed1, a11, 4; nop }
    1b55:	0e6d357b0d340c204404213c0801296f 	{ ae_cvtq56p32s.h	aed2, aed1; nop; nop; ae_cvtq56p32s.l	aed1, aed1 }
    1b65:	1f17a6                                    	blti	a7, 1, 1b88 <subband_aec_mid_channel+0x178>
    1b68:	110458c700a3070e                  	{ loop	a7, 1b88 <subband_aec_mid_channel+0x178>; ae_l16x2m.i	aed3, a8, 0 }
    1b70:	220760c10485fc6e                  	{ ae_l16x2m.xc	aed4, a6, a12; nop }
    1b78:	0e1d255b0d250c1e45af4f080083c12f 	{ ae_l16x2m.iu	aed3, a2, 4; nop; ae_mulasfd32s.hl.lh	aed1, aed4, aed3; ae_mulssfd32s.hh.ll	aed2, aed3, aed4 }

00001b88 <subband_aec_mid_channel+0x178>:
    1b88:	0ead217b0d350ce8c308413f1001266f 	{ or	a2, a6, a6; nop; nop; ae_roundsp16q48x2asym	aed2, aed2, aed2 }
    1b98:	0e9d229b0c4d0ce8c3042e11040281df 	{ ae_s16m.l.iu	aed2, a13, 2; nop; ae_mulf48q32sp16s.l	aed2, aed0, aed2; ae_roundsp16q48x2asym	aed1, aed1, aed1 }
    1ba8:	2282b30f300111de                  	{ ae_s16m.l.iu	aed1, a13, 2; nop; ae_mulf48q32sp16s.l	aed1, aed0, aed1 }
    1bb0:	07c4d6                                    	bgez	a4, 1c30 <subband_aec_mid_channel+0x220>
    1bb3:	0ead257109002cd0c58081381c017a1f 	{ ae_slaasq56s	aed1, aed1, a10; ae_la16x4x2pos.pc	u0, a2; nop; nop }
    1bc3:	0ead241b09040cd0c58080081d61ba2f 	{ ae_slaasq56s	aed2, aed2, a10; nop; ae_negsq56s	aed1, aed1; nop }
    1bd3:	0ead217b0c140ca8c204213c1001c02f 	{ ae_la16x4x2_ic	aed3, aed2, u0, a2; nop; nop; ae_round32x2f48sasym	aed1, aed2, aed1 }
    1be3:	4947a6                                    	blti	a7, 4, 1c30 <subband_aec_mid_channel+0x220>
    1be6:	b3f8                                    	l32i.n	a15, a3, 44
    1be8:	0020f0                                    	nop
    1beb:	f03d                                    	nop.n
    1bed:	3f8576                                    	loop	a5, 1c30 <subband_aec_mid_channel+0x220>
    1bf0:	1befa029093b080906782517902285ff 	{ ae_l16x4x2.ip	aed6, aed7, a15, 16; nop; ae_mulfpc32x16x2ras	aed2, aed5, aed1, aed1, aed2; ae_mulfpc32x16x2ras	aed3, aed4, aed1, aed1, aed3 }
    1c00:	0ea5201b0d5c0c88c30c82280f62015f 	{ nop; nop; ae_round16x4f32sasym	aed2, aed2, aed5; ae_round16x4f32sasym	aed3, aed3, aed4 }
    1c10:	0ea524021d0020d0c480861810a4d17f 	{ ae_add16s	aed5, aed7, aed2; ae_la16x4x2_ic	aed3, aed2, u0, a2; ae_add16s	aed4, aed6, aed3; nop }
    1c20:	0000814957a60f005e030323a800b0ff 	{ ae_s16x4x2.i	aed4, aed5, a15, -16; nop; nop }
    1c30:	990b                                    	addi.n	a9, a9, -1
    1c32:	f07956                                    	bnez	a9, 1b3d <subband_aec_mid_channel+0x12d>
    1c35:	d328                                    	l32i.n	a2, a3, 52
    1c37:	0d07404004a14c0e                  	{ ae_movi	aed0, 0; ae_movi	aed1, 0 }
    1c3f:	c369                                    	s32i.n	a6, a3, 48
    1c41:	f378                                    	l32i.n	a7, a3, 60
    1c43:	a50c                                    	movi.n	a5, 10
    1c45:	110472c01c82a07e                  	{ ae_l16x2m.i	aed3, a7, 0; ae_l16x2m.i	aed2, a2, 0 }
    1c4d:	178576                                    	loop	a5, 1c68 <subband_aec_mid_channel+0x258>
    1c50:	0e1d215b0d3d0c1603ab2f000043c17f 	{ ae_l16x2m.iu	aed3, a7, 4; nop; ae_mulasfd32s.hl.lh	aed0, aed2, aed3; ae_mulaafd32s.hh.ll	aed1, aed2, aed3 }
    1c60:	1c823a453842212e                  	{ ae_l16x2m.iu	aed2, a2, 4; nop; ae_mulaafd32s.hh.ll	aed8, aed2, aed2 }

00001c68 <subband_aec_mid_channel+0x258>:
    1c68:	0e6ce17001180a600780013a0c01501f 	{ ae_srai64	aed1, aed1, 4; movi	a10, 0; nop; ae_srai64	aed0, aed0, 4 }
    1c78:	0ead017b08ec0c98c28421380401e00f 	{ ae_round24x2f48sasym	aed0, aed0, aed0; nop; nop; ae_round24x2f48sasym	aed1, aed1, aed1 }
    1c88:	0e5503bb09fd0c67c6011e061c01e02f 	{ l32r	a2, 38 (7b4 <HIFI_sqrt>); nop; ae_sel16i.n	aed0, aed1, aed0, 2; ae_srai64	aed31, aed8, 4 }
    1c98:	0e9d3cdb0d5c0cd0c50458000c00015f 	{ nop; nop; ae_mulzaafd32s.hh.ll	aed0, aed0, aed0; ae_roundsq32f48asym	aed1, aed31 }
    1ca8:	0ead217b0d240cd0c400413b0c01661f 	{ ae_trunca32q48	a6, aed1; nop; nop; ae_roundsq32f48asym	aed0, aed0 }
    1cb8:	0ead257b0d240cd0c400813b0c016b0f 	{ ae_trunca32q48	a11, aed0; nop; nop; nop }
    1cc8:	0002e0                                    	callx8	a2
    1ccb:	21070b410480232e                  	{ l8ui	a2, a3, 36; ae_cvt48a32	aed0, a11 }
    1cd3:	2603814010a01a0e                  	{ ae_slaasq56s	aed0, aed0, a10; l32i	a7, a1, 8 }
    1cdb:	0ead4167d1e733d0c400413f1c01115f 	{ l32r	a5, 150 (10b4 <common_x_pow>); or	a10, a3, a3; nop; ae_roundsq32f48asym	aed0, aed0 }
    1ceb:	06bd                                    	mov.n	a11, a6
    1ced:	000003f3000000fe530303052060d22f 	{ bbsi.w15	a2, 2, 1d0c <subband_aec_mid_channel+0x2fc>; ae_trunca32q48	a12, aed0; nop }
    1cfd:	f91421                                    	l32r	a2, 150 (10b4 <common_x_pow>)
    1d00:	03ad                                    	mov.n	a10, a3
    1d02:	06bd                                    	mov.n	a11, a6
    1d04:	0002e0                                    	callx8	a2
    1d07:	3158                                    	l32i.n	a5, a1, 12
    1d09:	0005c6                                    	j	1d24 <subband_aec_mid_channel+0x314>

00001d0c <subband_aec_mid_channel+0x2fc>:
    1d0c:	b82722                                    	l32i	a2, a7, 0x2e0
    1d0f:	0005e0                                    	callx8	a5
    1d12:	3158                                    	l32i.n	a5, a1, 12
    1d14:	2168                                    	l32i.n	a6, a1, 8
    1d16:	a28c                                    	beqz.n	a2, 1d24 <subband_aec_mid_channel+0x314>
    1d18:	b82622                                    	l32i	a2, a6, 0x2e0
    1d1b:	02d222                                    	addmi	a2, a2, 0x200
    1d1e:	5d9222                                    	l16si	a2, a2, 186
    1d21:	0d12e6                                    	bgei	a2, 1, 1d32 <subband_aec_mid_channel+0x322>
    1d24:	4c1c                                    	movi.n	a12, 20
    1d26:	8a8c                                    	beqz.n	a10, 1d32 <subband_aec_mid_channel+0x322>
    1d28:	f3a8                                    	l32i.n	a10, a3, 60
    1d2a:	d3b8                                    	l32i.n	a11, a3, 52
    1d2c:	f8be21                                    	l32r	a2, 24 (a5c4 <xt_memcpy>)
    1d2f:	0002e0                                    	callx8	a2
    1d32:	2168                                    	l32i.n	a6, a1, 8
    1d34:	0c0c                                    	movi.n	a12, 0
    1d36:	f90721                                    	l32r	a2, 154 (1894 <sbaec_common1>)
    1d39:	03bd                                    	mov.n	a11, a3
    1d3b:	04dd                                    	mov.n	a13, a4
    1d3d:	06ad                                    	mov.n	a10, a6
    1d3f:	0002e0                                    	callx8	a2
    1d42:	f90521                                    	l32r	a2, 158 (19bc <sbaec_common2>)
    1d45:	06ad                                    	mov.n	a10, a6
    1d47:	03bd                                    	mov.n	a11, a3
    1d49:	05cd                                    	mov.n	a12, a5
    1d4b:	04dd                                    	mov.n	a13, a4
    1d4d:	0002e0                                    	callx8	a2
    1d50:	f01d                                    	retw.n

00001d52 <subband_aec_mid_channel+0x342>:
	...

00001d54 <dt_detect>:
    1d54:	004136                                    	entry	a1, 32
    1d57:	0c9252                                    	l16si	a5, a2, 24
    1d5a:	189242                                    	l16si	a4, a2, 48
    1d5d:	199262                                    	l16si	a6, a2, 50
    1d60:	174c                                    	movi.n	a7, 65
    1d62:	115500                                    	slli	a5, a5, 16
    1d65:	17a537                                    	bge	a5, a3, 1d80 <dt_detect+0x2c>
    1d68:	179252                                    	l16si	a5, a2, 46
    1d6b:	112677                                    	blt	a6, a7, 1d80 <dt_detect+0x2c>
    1d6e:	0e9232                                    	l16si	a3, a2, 28
    1d71:	442b                                    	addi.n	a4, a4, 2
    1d73:	554b                                    	addi.n	a5, a5, 4
    1d75:	435530                                    	min	a5, a5, a3
    1d78:	175252                                    	s16i	a5, a2, 46
    1d7b:	855d                                    	ae_sext16	a5, a5
    1d7d:	000246                                    	j	1d8a <dt_detect+0x36>

00001d80 <dt_detect+0x2c>:
    1d80:	0e9232                                    	l16si	a3, a2, 28
    1d83:	050c                                    	movi.n	a5, 0
    1d85:	440b                                    	addi.n	a4, a4, -1
    1d87:	175252                                    	s16i	a5, a2, 46
    1d8a:	534450                                    	max	a4, a4, a5
    1d8d:	433430                                    	min	a3, a4, a3
    1d90:	185232                                    	s16i	a3, a2, 48
    1d93:	f01d                                    	retw.n

00001d95 <dt_detect+0x41>:
    1d95:	000000                                        ...

00001d98 <dt_detect_FB>:
    1d98:	004136                                    	entry	a1, 32
    1d9b:	02d252                                    	addmi	a5, a2, 0x200
    1d9e:	174c                                    	movi.n	a7, 65
    1da0:	5d9562                                    	l16si	a6, a5, 186
    1da3:	02d282                                    	addmi	a8, a2, 0x200
    1da6:	5e9592                                    	l16si	a9, a5, 188
    1da9:	182477                                    	blt	a4, a7, 1dc5 <dt_detect_FB+0x2d>
    1dac:	5b9842                                    	l16si	a4, a8, 182
    1daf:	02d272                                    	addmi	a7, a2, 0x200
    1db2:	114400                                    	slli	a4, a4, 16
    1db5:	894b                                    	addi.n	a8, a9, 4
    1db7:	0aa437                                    	bge	a4, a3, 1dc5 <dt_detect_FB+0x2d>
    1dba:	5c9722                                    	l16si	a2, a7, 184
    1dbd:	362b                                    	addi.n	a3, a6, 2
    1dbf:	434820                                    	min	a4, a8, a2
    1dc2:	000246                                    	j	1dcf <dt_detect_FB+0x37>

00001dc5 <dt_detect_FB+0x2d>:
    1dc5:	02d222                                    	addmi	a2, a2, 0x200
    1dc8:	360b                                    	addi.n	a3, a6, -1
    1dca:	5c9222                                    	l16si	a2, a2, 184
    1dcd:	040c                                    	movi.n	a4, 0
    1dcf:	846d                                    	ae_sext16	a6, a4
    1dd1:	533360                                    	max	a3, a3, a6
    1dd4:	5e5542                                    	s16i	a4, a5, 188
    1dd7:	432320                                    	min	a2, a3, a2
    1dda:	5d5522                                    	s16i	a2, a5, 186
    1ddd:	f01d                                    	retw.n

00001ddf <dt_detect_FB+0x47>:
	...

00001de0 <get_ECNR_SVN>:
    1de0:	004136                                    	entry	a1, 32
    1de3:	f8e121                                    	l32r	a2, 168 (1507ca0 <_end+0x14fa3b4>)
    1de6:	f01d                                    	retw.n

00001de8 <get_aec_nr_memsize>:
    1de8:	004136                                    	entry	a1, 32
    1deb:	ada322                                    	movi	a2, 0x3ad
    1dee:	1122b0                                    	slli	a2, a2, 5
    1df1:	f01d                                    	retw.n

00001df3 <get_aec_nr_memsize+0xb>:
	...

00001df4 <get_aec_nr_inear_memsize>:
    1df4:	004136                                    	entry	a1, 32
    1df7:	823c                                    	movi.n	a2, 56
    1df9:	7ad222                                    	addmi	a2, a2, 0x7a00
    1dfc:	f01d                                    	retw.n

00001dfe <get_aec_nr_inear_memsize+0xa>:
	...

00001e00 <sb_ana2_init>:
    1e00:	004136                                    	entry	a1, 32
    1e03:	f8c631                                    	l32r	a3, 11c (a5b0 <xt_memset>)
    1e06:	0b0c                                    	movi.n	a11, 0
    1e08:	0c2c                                    	movi.n	a12, 32
    1e0a:	02ad                                    	mov.n	a10, a2
    1e0c:	106222                                    	s32i	a2, a2, 64
    1e0f:	0003e0                                    	callx8	a3
    1e12:	f01d                                    	retw.n

00001e14 <sb_syn_init>:
    1e14:	004136                                    	entry	a1, 32
    1e17:	a24b                                    	addi.n	a10, a2, 4
    1e19:	0b0c                                    	movi.n	a11, 0
    1e1b:	02a9                                    	s32i.n	a10, a2, 0
    1e1d:	cc3c                                    	movi.n	a12, 60
    1e1f:	f8bf21                                    	l32r	a2, 11c (a5b0 <xt_memset>)
    1e22:	0002e0                                    	callx8	a2
    1e25:	f01d                                    	retw.n

00001e27 <sb_syn_init+0x13>:
	...

00001e28 <HP_coef_setup>:
    1e28:	004136                                    	entry	a1, 32
    1e2b:	f87e41                                    	l32r	a4, 24 (a5c4 <xt_memcpy>)
    1e2e:	4c0c                                    	movi.n	a12, 4
    1e30:	02ad                                    	mov.n	a10, a2
    1e32:	03bd                                    	mov.n	a11, a3
    1e34:	0004e0                                    	callx8	a4
    1e37:	a2cb                                    	addi.n	a10, a2, 12
    1e39:	b38b                                    	addi.n	a11, a3, 8
    1e3b:	ac0c                                    	movi.n	a12, 10
    1e3d:	0004e0                                    	callx8	a4
    1e40:	24c2a2                                    	addi	a10, a2, 36
    1e43:	1cc3b2                                    	addi	a11, a3, 28
    1e46:	8c0c                                    	movi.n	a12, 8
    1e48:	0004e0                                    	callx8	a4
    1e4b:	1238                                    	l32i.n	a3, a2, 4
    1e4d:	72f8                                    	l32i.n	a15, a2, 28
    1e4f:	2239                                    	s32i.n	a3, a2, 8
    1e51:	82f9                                    	s32i.n	a15, a2, 32
    1e53:	f01d                                    	retw.n

00001e55 <HP_coef_setup+0x2d>:
    1e55:	000000                                        ...

00001e58 <tx_ref_vad_init>:
    1e58:	004136                                    	entry	a1, 32
    1e5b:	f8b041                                    	l32r	a4, 11c (a5b0 <xt_memset>)
    1e5e:	0b0c                                    	movi.n	a11, 0
    1e60:	ec0c                                    	movi.n	a12, 14
    1e62:	02ad                                    	mov.n	a10, a2
    1e64:	0004e0                                    	callx8	a4
    1e67:	4cc3b2                                    	addi	a11, a3, 76
    1e6a:	f86e31                                    	l32r	a3, 24 (a5c4 <xt_memcpy>)
    1e6d:	7c0c                                    	movi.n	a12, 7
    1e6f:	02ad                                    	mov.n	a10, a2
    1e71:	0003e0                                    	callx8	a3
    1e74:	f01d                                    	retw.n

00001e76 <tx_ref_vad_init+0x1e>:
	...

00001e78 <Voice_EC_Init>:
    1e78:	006136                                    	entry	a1, 48
    1e7b:	02ad                                    	mov.n	a10, a2
    1e7d:	2129                                    	s32i.n	a2, a1, 8
    1e7f:	180c                                    	movi.n	a8, 1
    1e81:	f86621                                    	l32r	a2, 1c (d8e8 <p_ecnr_mem>)
    1e84:	feca92                                    	addi	a9, a10, -2
    1e87:	0e0c                                    	movi.n	a14, 0
    1e89:	62f980                                    	saltu	a15, a9, a8
    1e8c:	f8b881                                    	l32r	a8, 16c (424 <TX_ECNR_PARA_init>)
    1e8f:	04bd                                    	mov.n	a11, a4
    1e91:	05cd                                    	mov.n	a12, a5
    1e93:	06dd                                    	mov.n	a13, a6
    1e95:	0239                                    	s32i.n	a3, a2, 0
    1e97:	31f9                                    	s32i.n	a15, a1, 12
    1e99:	0008e0                                    	callx8	a8
    1e9c:	f86141                                    	l32r	a4, 20 (d8e0 <aec_nr_para>)
    1e9f:	cca2f2                                    	movi	a15, 0x2cc
    1ea2:	0268                                    	l32i.n	a6, a2, 0
    1ea4:	0458                                    	l32i.n	a5, a4, 0
    1ea6:	20d6a2                                    	addmi	a10, a6, 0x2000
    1ea9:	ada462                                    	movi	a6, 0x4ad
    1eac:	389582                                    	l16si	a8, a5, 112
    1eaf:	b5fa                                    	add.n	a11, a5, a15
    1eb1:	f8af51                                    	l32r	a5, 170 (1e28 <HP_coef_setup>)
    1eb4:	1166c0                                    	slli	a6, a6, 4
    1eb7:	678d                                    	ae_s16i.n	a8, a7, 0
    1eb9:	94a372                                    	movi	a7, 0x394
    1ebc:	0005e0                                    	callx8	a5
    1ebf:	0258                                    	l32i.n	a5, a2, 0
    1ec1:	c7a3c2                                    	movi	a12, 0x3c7
    1ec4:	f89631                                    	l32r	a3, 11c (a5b0 <xt_memset>)
    1ec7:	11cce0                                    	slli	a12, a12, 2
    1eca:	a56a                                    	add.n	a10, a5, a6
    1ecc:	0b0c                                    	movi.n	a11, 0
    1ece:	b07770                                    	addx8	a7, a7, a7
    1ed1:	025d                                    	mov.n	a5, a2
    1ed3:	0003e0                                    	callx8	a3
    1ed6:	0268                                    	l32i.n	a6, a2, 0
    1ed8:	0b0c                                    	movi.n	a11, 0
    1eda:	ec0c                                    	movi.n	a12, 14
    1edc:	a67a                                    	add.n	a10, a6, a7
    1ede:	475c                                    	movi.n	a7, 84
    1ee0:	0003e0                                    	callx8	a3
    1ee3:	0268                                    	l32i.n	a6, a2, 0
    1ee5:	20d772                                    	addmi	a7, a7, 0x2000
    1ee8:	0b0c                                    	movi.n	a11, 0
    1eea:	f0a0c2                                    	movi	a12, 240
    1eed:	a67a                                    	add.n	a10, a6, a7
    1eef:	f0a062                                    	movi	a6, 240
    1ef2:	0003e0                                    	callx8	a3
    1ef5:	0278                                    	l32i.n	a7, a2, 0
    1ef7:	13a182                                    	movi	a8, 0x113
    1efa:	1188a0                                    	slli	a8, a8, 6
    1efd:	0b0c                                    	movi.n	a11, 0
    1eff:	0c2c                                    	movi.n	a12, 32
    1f01:	a78a                                    	add.n	a10, a7, a8
    1f03:	44d792                                    	addmi	a9, a7, 0x4400
    1f06:	4069a2                                    	s32i	a10, a9, 0x100
    1f09:	0003e0                                    	callx8	a3
    1f0c:	0278                                    	l32i.n	a7, a2, 0
    1f0e:	880c                                    	movi.n	a8, 8
    1f10:	45d882                                    	addmi	a8, a8, 0x4500
    1f13:	0b0c                                    	movi.n	a11, 0
    1f15:	0c2c                                    	movi.n	a12, 32
    1f17:	a78a                                    	add.n	a10, a7, a8
    1f19:	45d792                                    	addmi	a9, a7, 0x4500
    1f1c:	1269a2                                    	s32i	a10, a9, 72
    1f1f:	0003e0                                    	callx8	a3
    1f22:	0278                                    	l32i.n	a7, a2, 0
    1f24:	94a082                                    	movi	a8, 148
    1f27:	45d882                                    	addmi	a8, a8, 0x4500
    1f2a:	0b0c                                    	movi.n	a11, 0
    1f2c:	cc3c                                    	movi.n	a12, 60
    1f2e:	45d792                                    	addmi	a9, a7, 0x4500
    1f31:	778a                                    	add.n	a7, a7, a8
    1f33:	a74b                                    	addi.n	a10, a7, 4
    1f35:	2569a2                                    	s32i	a10, a9, 148
    1f38:	0003e0                                    	callx8	a3
    1f3b:	0478                                    	l32i.n	a7, a4, 0
    1f3d:	0288                                    	l32i.n	a8, a2, 0
    1f3f:	01a392                                    	movi	a9, 0x301
    1f42:	e3a2a2                                    	movi	a10, 0x2e3
    1f45:	1199c0                                    	slli	a9, a9, 4
    1f48:	11aac0                                    	slli	a10, a10, 4
    1f4b:	07b8                                    	l32i.n	a11, a7, 0
    1f4d:	22d8c2                                    	addmi	a12, a8, 0x2200
    1f50:	989a                                    	add.n	a9, a8, a9
    1f52:	c8a022                                    	movi	a2, 200
    1f55:	206c92                                    	s32i	a9, a12, 128
    1f58:	a8aa                                    	add.n	a10, a8, a10
    1f5a:	9b2a                                    	add.n	a9, a11, a2
    1f5c:	6b6a                                    	add.n	a6, a11, a6
    1f5e:	18a1e2                                    	movi	a14, 0x118
    1f61:	40a1f2                                    	movi	a15, 0x140
    1f64:	1f6ca2                                    	s32i	a10, a12, 124
    1f67:	78cbd2                                    	addi	a13, a11, 120
    1f6a:	176c92                                    	s32i	a9, a12, 92
    1f6d:	9bea                                    	add.n	a9, a11, a14
    1f6f:	186c62                                    	s32i	a6, a12, 96
    1f72:	6bfa                                    	add.n	a6, a11, a15
    1f74:	68a122                                    	movi	a2, 0x168
    1f77:	90a1a2                                    	movi	a10, 0x190
    1f7a:	166cd2                                    	s32i	a13, a12, 88
    1f7d:	21f8                                    	l32i.n	a15, a1, 8
    1f7f:	196c92                                    	s32i	a9, a12, 100
    1f82:	9b2a                                    	add.n	a9, a11, a2
    1f84:	1a6c62                                    	s32i	a6, a12, 104
    1f87:	6baa                                    	add.n	a6, a11, a10
    1f89:	b8a1d2                                    	movi	a13, 0x1b8
    1f8c:	e0a1e2                                    	movi	a14, 0x1e0
    1f8f:	1b6c92                                    	s32i	a9, a12, 108
    1f92:	9bda                                    	add.n	a9, a11, a13
    1f94:	1c6c62                                    	s32i	a6, a12, 112
    1f97:	6bea                                    	add.n	a6, a11, a14
    1f99:	1e6c92                                    	s32i	a9, a12, 120
    1f9c:	20d8a2                                    	addmi	a10, a8, 0x2000
    1f9f:	1d6c62                                    	s32i	a6, a12, 116
    1fa2:	0fa722                                    	movi	a2, 0x70f
    1fa5:	0b0c                                    	movi.n	a11, 0
    1fa7:	022f26                                    	beqi	a15, 2, 1fad <Voice_EC_Init+0x135>
    1faa:	0039c6                                    	j	2095 <Voice_EC_Init+0x21d>
    1fad:	1122c0                                    	slli	a2, a2, 4
    1fb0:	22a2c2                                    	movi	a12, 0x222
    1fb3:	a82a                                    	add.n	a10, a8, a2
    1fb5:	0003e0                                    	callx8	a3
    1fb8:	0468                                    	l32i.n	a6, a4, 0
    1fba:	0528                                    	l32i.n	a2, a5, 0
    1fbc:	05a182                                    	movi	a8, 0x105
    1fbf:	05a3b2                                    	movi	a11, 0x305
    1fc2:	1188c0                                    	slli	a8, a8, 4
    1fc5:	8fa0c2                                    	movi	a12, 143
    1fc8:	03d642                                    	addmi	a4, a6, 0x300
    1fcb:	20d232                                    	addmi	a3, a2, 0x2000
    1fce:	7a9472                                    	l16si	a7, a4, 244
    1fd1:	75d292                                    	addmi	a9, a2, 0x7500
    1fd4:	285372                                    	s16i	a7, a3, 80
    1fd7:	117bc0                                    	slli	a7, a11, 4
    1fda:	7b9442                                    	l16si	a4, a4, 246
    1fdd:	727a                                    	add.n	a7, a2, a7
    1fdf:	295342                                    	s16i	a4, a3, 82
    1fe2:	0638                                    	l32i.n	a3, a6, 0
    1fe4:	1e6972                                    	s32i	a7, a9, 120
    1fe7:	41a392                                    	movi	a9, 0x341
    1fea:	1179c0                                    	slli	a7, a9, 4
    1fed:	75d262                                    	addmi	a6, a2, 0x7500
    1ff0:	a27a                                    	add.n	a10, a2, a7
    1ff2:	75d222                                    	addmi	a2, a2, 0x7500
    1ff5:	10d342                                    	addmi	a4, a3, 0x1000
    1ff8:	838a                                    	add.n	a8, a3, a8
    1ffa:	d249                                    	s32i.n	a4, a2, 52
    1ffc:	f44c                                    	movi.n	a4, 79
    1ffe:	e289                                    	s32i.n	a8, a2, 56
    2000:	85a082                                    	movi	a8, 133
    2003:	1194a0                                    	slli	a9, a4, 6
    2006:	1148b0                                    	slli	a4, a8, 5
    2009:	734a                                    	add.n	a7, a3, a4
    200b:	41a142                                    	movi	a4, 0x141
    200e:	f279                                    	s32i.n	a7, a2, 60
    2010:	0fa172                                    	movi	a7, 0x10f
    2013:	1184c0                                    	slli	a8, a4, 4
    2016:	1147c0                                    	slli	a4, a7, 4
    2019:	734a                                    	add.n	a7, a3, a4
    201b:	5fa142                                    	movi	a4, 0x15f
    201e:	106272                                    	s32i	a7, a2, 64
    2021:	574c                                    	movi.n	a7, 69
    2023:	1177a0                                    	slli	a7, a7, 6
    2026:	23a1d2                                    	movi	a13, 0x123
    2029:	5e2c                                    	movi.n	a14, 37
    202b:	2da1f2                                    	movi	a15, 0x12d
    202e:	737a                                    	add.n	a7, a3, a7
    2030:	1144c0                                    	slli	a4, a4, 4
    2033:	11ccb0                                    	slli	a12, a12, 5
    2036:	11ddc0                                    	slli	a13, a13, 4
    2039:	11ee90                                    	slli	a14, a14, 7
    203c:	11ffc0                                    	slli	a15, a15, 4
    203f:	1f66a2                                    	s32i	a10, a6, 124
    2042:	99a0b2                                    	movi	a11, 153
    2045:	116272                                    	s32i	a7, a2, 68
    2048:	37a1a2                                    	movi	a10, 0x137
    204b:	19a172                                    	movi	a7, 0x119
    204e:	434a                                    	add.n	a4, a3, a4
    2050:	1177c0                                    	slli	a7, a7, 4
    2053:	c3ca                                    	add.n	a12, a3, a12
    2055:	d3da                                    	add.n	a13, a3, a13
    2057:	e3ea                                    	add.n	a14, a3, a14
    2059:	1b6242                                    	s32i	a4, a2, 108
    205c:	f3fa                                    	add.n	a15, a3, a15
    205e:	11bbb0                                    	slli	a11, a11, 5
    2061:	f7ef41                                    	l32r	a4, 20 (d8e0 <aec_nr_para>)
    2064:	11aac0                                    	slli	a10, a10, 4
    2067:	737a                                    	add.n	a7, a3, a7
    2069:	1362c2                                    	s32i	a12, a2, 76
    206c:	c3ba                                    	add.n	a12, a3, a11
    206e:	1462d2                                    	s32i	a13, a2, 80
    2071:	d3aa                                    	add.n	a13, a3, a10
    2073:	1562e2                                    	s32i	a14, a2, 84
    2076:	e39a                                    	add.n	a14, a3, a9
    2078:	1662f2                                    	s32i	a15, a2, 88
    207b:	f38a                                    	add.n	a15, a3, a8
    207d:	1ed332                                    	addmi	a3, a3, 0x1e00
    2080:	126272                                    	s32i	a7, a2, 72
    2083:	1762c2                                    	s32i	a12, a2, 92
    2086:	1862d2                                    	s32i	a13, a2, 96
    2089:	1962e2                                    	s32i	a14, a2, 100
    208c:	1a62f2                                    	s32i	a15, a2, 104
    208f:	216632                                    	s32i	a3, a6, 132
    2092:	0002c6                                    	j	20a1 <Voice_EC_Init+0x229>

00002095 <Voice_EC_Init+0x21d>:
    2095:	489722                                    	l16si	a2, a7, 144
    2098:	285a22                                    	s16i	a2, a10, 80
    209b:	499722                                    	l16si	a2, a7, 146
    209e:	295a22                                    	s16i	a2, a10, 82
    20a1:	3138                                    	l32i.n	a3, a1, 12
    20a3:	c4a062                                    	movi	a6, 196
    20a6:	f83321                                    	l32r	a2, 174 (a18 <SBAEC_INIT>)
    20a9:	70d662                                    	addmi	a6, a6, 0x7000
    20ac:	03ad                                    	mov.n	a10, a3
    20ae:	0002e0                                    	callx8	a2
    20b1:	f83121                                    	l32r	a2, 178 (5d80 <NOISE_GEN_init>)
    20b4:	03ad                                    	mov.n	a10, a3
    20b6:	0002e0                                    	callx8	a2
    20b9:	0428                                    	l32i.n	a2, a4, 0
    20bb:	0578                                    	l32i.n	a7, a5, 0
    20bd:	043d                                    	mov.n	a3, a4
    20bf:	0b0c                                    	movi.n	a11, 0
    20c1:	7248                                    	l32i.n	a4, a2, 28
    20c3:	a76a                                    	add.n	a10, a7, a6
    20c5:	f81561                                    	l32r	a6, 11c (a5b0 <xt_memset>)
    20c8:	0c1c                                    	movi.n	a12, 16
    20ca:	70d722                                    	addmi	a2, a7, 0x7000
    20cd:	f5f040                                    	extui	a15, a4, 16, 16
    20d0:	755840                                    	extui	a5, a4, 24, 8
    20d3:	21f9                                    	s32i.n	a15, a1, 8
    20d5:	0006e0                                    	callx8	a6
    20d8:	f81681                                    	l32r	a8, 130 (155555 <_end+0x147c69>)
    20db:	d60c                                    	movi.n	a6, 13
    20dd:	f7cfd1                                    	l32r	a13, 1c (d8e8 <p_ecnr_mem>)
    20e0:	9a1c                                    	movi.n	a10, 25
    20e2:	21e8                                    	l32i.n	a14, a1, 8
    20e4:	03c8                                    	l32i.n	a12, a3, 0
    20e6:	c0b480                                    	sub	a11, a4, a8
    20e9:	0f1c                                    	movi.n	a15, 16
    20eb:	9365b0                                    	movnez	a6, a5, a11
    20ee:	0d88                                    	l32i.n	a8, a13, 0
    20f0:	b45d                                    	ae_zext8	a5, a4
    20f2:	93aeb0                                    	movnez	a10, a14, a11
    20f5:	835fb0                                    	moveqz	a5, a15, a11
    20f8:	744840                                    	extui	a4, a4, 8, 8
    20fb:	230c                                    	movi.n	a3, 2
    20fd:	9334b0                                    	movnez	a3, a4, a11
    2100:	369cf2                                    	l16si	a15, a12, 108
    2103:	359cb2                                    	l16si	a11, a12, 106
    2106:	6552f2                                    	s16i	a15, a2, 202
    2109:	1e0c                                    	movi.n	a14, 1
    210b:	22d8f2                                    	addmi	a15, a8, 0x2200
    210e:	6452b2                                    	s16i	a11, a2, 200
    2111:	471cb2                                    	l16ui	a11, a12, 142
    2114:	275fe2                                    	s16i	a14, a15, 78
    2117:	451ce2                                    	l16ui	a14, a12, 138
    211a:	341cc2                                    	l16ui	a12, a12, 104
    211d:	f97c                                    	movi.n	a9, -1
    211f:	4f3c                                    	movi.n	a15, 52
    2121:	019910                                    	slli	a9, a9, 31
    2124:	c155e0                                    	mul16u	a5, a5, a14
    2127:	c133b0                                    	mul16u	a3, a3, a11
    212a:	11bc00                                    	slli	a11, a12, 16
    212d:	9c9a                                    	add.n	a9, a12, a9
    212f:	22df42                                    	addmi	a4, a15, 0x2200
    2132:	70d7d2                                    	addmi	a13, a7, 0x7000
    2135:	c0f9b0                                    	sub	a15, a9, a11
    2138:	415550                                    	srli	a5, a5, 5
    213b:	413530                                    	srli	a3, a3, 5
    213e:	7e0c                                    	movi.n	a14, 7
    2140:	e142a2                                    	s8i	a10, a2, 225
    2143:	00a472                                    	movi	a7, 0x400
    2146:	e04262                                    	s8i	a6, a2, 224
    2149:	3162f2                                    	s32i	a15, a2, 196
    214c:	6e5252                                    	s16i	a5, a2, 220
    214f:	802840                                    	add	a2, a8, a4
    2152:	6f5d32                                    	s16i	a3, a13, 222
    2155:	038e76                                    	loop	a14, 215c <Voice_EC_Init+0x2e4>
    2158:	627d                                    	ae_s16i.n	a7, a2, 0
    215a:	222b                                    	addi.n	a2, a2, 2

0000215c <Voice_EC_Init+0x2e4>:
    215c:	c1a322                                    	movi	a2, 0x3c1
    215f:	f7ef71                                    	l32r	a7, 11c (a5b0 <xt_memset>)
    2162:	1122c0                                    	slli	a2, a2, 4
    2165:	0b0c                                    	movi.n	a11, 0
    2167:	a82a                                    	add.n	a10, a8, a2
    2169:	0c5c                                    	movi.n	a12, 80
    216b:	cba332                                    	movi	a3, 0x3cb
    216e:	060c                                    	movi.n	a6, 0
    2170:	0007e0                                    	callx8	a7
    2173:	f7aa51                                    	l32r	a5, 1c (d8e8 <p_ecnr_mem>)
    2176:	1133c0                                    	slli	a3, a3, 4
    2179:	0b0c                                    	movi.n	a11, 0
    217b:	cc3c                                    	movi.n	a12, 60
    217d:	0528                                    	l32i.n	a2, a5, 0
    217f:	a23a                                    	add.n	a10, a2, a3
    2181:	0007e0                                    	callx8	a7
    2184:	0528                                    	l32i.n	a2, a5, 0
    2186:	f7a641                                    	l32r	a4, 20 (d8e0 <aec_nr_para>)
    2189:	22d232                                    	addmi	a3, a2, 0x2200
    218c:	261332                                    	l16ui	a3, a3, 76
    218f:	04a8                                    	l32i.n	a10, a4, 0
    2191:	432366                                    	bnei	a3, 2, 21d8 <Voice_EC_Init+0x360>
    2194:	31b8                                    	l32i.n	a11, a1, 12
    2196:	55a432                                    	movi	a3, 0x455
    2199:	f7f821                                    	l32r	a2, 17c (7e40 <TWO_MIC_WB_init>)
    219c:	1133c0                                    	slli	a3, a3, 4
    219f:	0002e0                                    	callx8	a2
    21a2:	0528                                    	l32i.n	a2, a5, 0
    21a4:	0b0c                                    	movi.n	a11, 0
    21a6:	0c2c                                    	movi.n	a12, 32
    21a8:	a23a                                    	add.n	a10, a2, a3
    21aa:	45d242                                    	addmi	a4, a2, 0x4500
    21ad:	2464a2                                    	s32i	a10, a4, 144
    21b0:	61a432                                    	movi	a3, 0x461
    21b3:	0007e0                                    	callx8	a7
    21b6:	0528                                    	l32i.n	a2, a5, 0
    21b8:	1133c0                                    	slli	a3, a3, 4
    21bb:	0b0c                                    	movi.n	a11, 0
    21bd:	cc3c                                    	movi.n	a12, 60
    21bf:	46d242                                    	addmi	a4, a2, 0x4600
    21c2:	223a                                    	add.n	a2, a2, a3
    21c4:	a24b                                    	addi.n	a10, a2, 4
    21c6:	44a9                                    	s32i.n	a10, a4, 16
    21c8:	f79641                                    	l32r	a4, 20 (d8e0 <aec_nr_para>)
    21cb:	0007e0                                    	callx8	a7
    21ce:	f7ec21                                    	l32r	a2, 180 (5da4 <NC_NOISE_EST_init>)
    21d1:	04a8                                    	l32i.n	a10, a4, 0
    21d3:	0002e0                                    	callx8	a2
    21d6:	0528                                    	l32i.n	a2, a5, 0

000021d8 <Voice_EC_Init+0x360>:
    21d8:	a8a032                                    	movi	a3, 168
    21db:	0448                                    	l32i.n	a4, a4, 0
    21dd:	70d332                                    	addmi	a3, a3, 0x7000
    21e0:	0b0c                                    	movi.n	a11, 0
    21e2:	223a                                    	add.n	a2, a2, a3
    21e4:	ec0c                                    	movi.n	a12, 14
    21e6:	02ad                                    	mov.n	a10, a2
    21e8:	0007e0                                    	callx8	a7
    21eb:	f78e31                                    	l32r	a3, 24 (a5c4 <xt_memcpy>)
    21ee:	4cc4b2                                    	addi	a11, a4, 76
    21f1:	7c0c                                    	movi.n	a12, 7
    21f3:	02ad                                    	mov.n	a10, a2
    21f5:	0003e0                                    	callx8	a3
    21f8:	0528                                    	l32i.n	a2, a5, 0
    21fa:	75d222                                    	addmi	a2, a2, 0x7500
    21fd:	246262                                    	s32i	a6, a2, 144
    2200:	f01d                                    	retw.n

00002202 <Voice_EC_Init+0x38a>:
	...

00002204 <Voice_EC_Inear_Init>:
    2204:	006136                                    	entry	a1, 48
    2207:	f79381                                    	l32r	a8, 54 (1e78 <Voice_EC_Init>)
    220a:	02ad                                    	mov.n	a10, a2
    220c:	03bd                                    	mov.n	a11, a3
    220e:	04cd                                    	mov.n	a12, a4
    2210:	05dd                                    	mov.n	a13, a5
    2212:	06ed                                    	mov.n	a14, a6
    2214:	07fd                                    	mov.n	a15, a7
    2216:	ada342                                    	movi	a4, 0x3ad
    2219:	0008e0                                    	callx8	a8
    221c:	1144b0                                    	slli	a4, a4, 5
    221f:	fec252                                    	addi	a5, a2, -2
    2222:	a34a                                    	add.n	a10, a3, a4
    2224:	170c                                    	movi.n	a7, 1
    2226:	f7bd41                                    	l32r	a4, 11c (a5b0 <xt_memset>)
    2229:	75d362                                    	addmi	a6, a3, 0x7500
    222c:	62f570                                    	saltu	a15, a5, a7
    222f:	0b0c                                    	movi.n	a11, 0
    2231:	4ca2c2                                    	movi	a12, 0x24c
    2234:	31f9                                    	s32i.n	a15, a1, 12
    2236:	2466a2                                    	s32i	a10, a6, 144
    2239:	854c                                    	movi.n	a5, 72
    223b:	0004e0                                    	callx8	a4
    223e:	f77871                                    	l32r	a7, 20 (d8e0 <aec_nr_para>)
    2241:	76d552                                    	addmi	a5, a5, 0x7600
    2244:	a35a                                    	add.n	a10, a3, a5
    2246:	78d3d2                                    	addmi	a13, a3, 0x7800
    2249:	0c2c                                    	movi.n	a12, 32
    224b:	6266a2                                    	s32i	a10, a6, 0x188
    224e:	0788                                    	l32i.n	a8, a7, 0
    2250:	0b0c                                    	movi.n	a11, 0
    2252:	58c8e2                                    	addi	a14, a8, 88
    2255:	e79882                                    	l16si	a8, a8, 0x1ce
    2258:	ff9ef2                                    	l16si	a15, a14, 0x1fe
    225b:	395d82                                    	s16i	a8, a13, 114
    225e:	385df2                                    	s16i	a15, a13, 112
    2261:	dca052                                    	movi	a5, 220
    2264:	0004e0                                    	callx8	a4
    2267:	77d552                                    	addmi	a5, a5, 0x7700
    226a:	0b0c                                    	movi.n	a11, 0
    226c:	a35a                                    	add.n	a10, a3, a5
    226e:	cc3c                                    	movi.n	a12, 60
    2270:	b666a2                                    	s32i	a10, a6, 0x2d8
    2273:	22d352                                    	addmi	a5, a3, 0x2200
    2276:	0004e0                                    	callx8	a4
    2279:	0788                                    	l32i.n	a8, a7, 0
    227b:	1d2552                                    	l32i	a5, a5, 116
    227e:	07fd                                    	mov.n	a15, a7
    2280:	7ad3b2                                    	addmi	a11, a3, 0x7a00
    2283:	52c8c2                                    	addi	a12, a8, 82
    2286:	170c                                    	movi.n	a7, 1
    2288:	28c5d2                                    	addi	a13, a5, 40
    228b:	50c5e2                                    	addi	a14, a5, 80
    228e:	d966d2                                    	s32i	a13, a6, 0x364
    2291:	ff1cd2                                    	l16ui	a13, a12, 0x1fe
    2294:	78c552                                    	addi	a5, a5, 120
    2297:	fe9cc2                                    	l16si	a12, a12, 0x1fc
    229a:	db6652                                    	s32i	a5, a6, 0x36c
    229d:	78d3a2                                    	addmi	a10, a3, 0x7800
    22a0:	414fd0                                    	srli	a4, a13, 15
    22a3:	f7b851                                    	l32r	a5, 184 (dfff <_end+0x713>)
    22a6:	364b42                                    	s8i	a4, a11, 54
    22a9:	2018b2                                    	l16ui	a11, a8, 64
    22ac:	da66e2                                    	s32i	a14, a6, 0x368
    22af:	01e790                                    	slli	a14, a7, 23
    22b2:	00a172                                    	movi	a7, 0x100
    22b5:	e4d0d0                                    	extui	a13, a13, 0, 15
    22b8:	539d70                                    	max	a9, a13, a7
    22bb:	53cc70                                    	max	a12, a12, a7
    22be:	6255b0                                    	saltu	a5, a5, a11
    22c1:	247c                                    	movi.n	a4, -14
    22c3:	270c                                    	movi.n	a7, 2
    22c5:	41bcb0                                    	srli	a11, a11, 12
    22c8:	937450                                    	movnez	a7, a4, a5
    22cb:	7ad3d2                                    	addmi	a13, a3, 0x7a00
    22ce:	57ba                                    	add.n	a5, a7, a11
    22d0:	2f5ac2                                    	s16i	a12, a10, 94
    22d3:	c29e90                                    	quou	a9, a14, a9
    22d6:	1155e0                                    	slli	a5, a5, 2
    22d9:	305a92                                    	s16i	a9, a10, 96
    22dc:	50a342                                    	movi	a4, 0x350
    22df:	1a5d52                                    	s16i	a5, a13, 52
    22e2:	b84a                                    	add.n	a11, a8, a4
    22e4:	282266                                    	bnei	a2, 2, 2310 <Voice_EC_Inear_Init+0x10c>
    22e7:	75d322                                    	addmi	a2, a3, 0x7500
    22ea:	75d3a2                                    	addmi	a10, a3, 0x7500
    22ed:	1f2252                                    	l32i	a5, a2, 124
    22f0:	1b22b2                                    	l32i	a11, a2, 108
    22f3:	c0a392                                    	movi	a9, 0x3c0
    22f6:	80a2c2                                    	movi	a12, 0x280
    22f9:	60a4d2                                    	movi	a13, 0x460
    22fc:	90a3e2                                    	movi	a14, 0x390
    22ff:	559a                                    	add.n	a5, a5, a9
    2301:	206252                                    	s32i	a5, a2, 128
    2304:	2bca                                    	add.n	a2, a11, a12
    2306:	5bda                                    	add.n	a5, a11, a13
    2308:	b8ea                                    	add.n	a11, a8, a14
    230a:	1c6a22                                    	s32i	a2, a10, 112
    230d:	1d6a52                                    	s32i	a5, a10, 116

00002310 <Voice_EC_Inear_Init+0x10c>:
    2310:	61a722                                    	movi	a2, 0x761
    2313:	3148                                    	l32i.n	a4, a1, 12
    2315:	1122c0                                    	slli	a2, a2, 4
    2318:	0f5d                                    	mov.n	a5, a15
    231a:	a32a                                    	add.n	a10, a3, a2
    231c:	f79521                                    	l32r	a2, 170 (1e28 <HP_coef_setup>)
    231f:	0002e0                                    	callx8	a2
    2322:	f79921                                    	l32r	a2, 188 (e74 <SBAEC_INIT_inear>)
    2325:	03ad                                    	mov.n	a10, a3
    2327:	04bd                                    	mov.n	a11, a4
    2329:	0002e0                                    	callx8	a2
    232c:	242642                                    	l32i	a4, a6, 144
    232f:	d8a222                                    	movi	a2, 0x2d8
    2332:	f77a61                                    	l32r	a6, 11c (a5b0 <xt_memset>)
    2335:	80a4e2                                    	movi	a14, 0x480
    2338:	0578                                    	l32i.n	a7, a5, 0
    233a:	0b0c                                    	movi.n	a11, 0
    233c:	a42a                                    	add.n	a10, a4, a2
    233e:	04d4f2                                    	addmi	a15, a4, 0x400
    2341:	d4a0c2                                    	movi	a12, 212
    2344:	31f9                                    	s32i.n	a15, a1, 12
    2346:	24ea                                    	add.n	a2, a4, a14
    2348:	050c                                    	movi.n	a5, 0
    234a:	0006e0                                    	callx8	a6
    234d:	02ad                                    	mov.n	a10, a2
    234f:	0b0c                                    	movi.n	a11, 0
    2351:	8c0c                                    	movi.n	a12, 8
    2353:	820c                                    	movi.n	a2, 8
    2355:	0006e0                                    	callx8	a6
    2358:	42d332                                    	addmi	a3, a3, 0x4200
    235b:	04d492                                    	addmi	a9, a4, 0x400
    235e:	172332                                    	l32i	a3, a3, 92
    2361:	02d7d2                                    	addmi	a13, a7, 0x200
    2364:	1e6932                                    	s32i	a3, a9, 120
    2367:	621d32                                    	l16ui	a3, a13, 196
    236a:	4d24a2                                    	l32i	a10, a4, 0x134
    236d:	e0a3b2                                    	movi	a11, 0x3e0
    2370:	1f69a2                                    	s32i	a10, a9, 124
    2373:	4b2482                                    	l32i	a8, a4, 0x12c
    2376:	a4ba                                    	add.n	a10, a4, a11
    2378:	f78561                                    	l32r	a6, 18c (7fff0000 <_end+0x7ffe2714>)
    237b:	1d6982                                    	s32i	a8, a9, 116
    237e:	02d7c2                                    	addmi	a12, a7, 0x200
    2381:	887c                                    	movi.n	a8, -8
    2383:	1c69a2                                    	s32i	a10, a9, 112
    2386:	f48080                                    	extui	a8, a8, 0, 16
    2389:	196962                                    	s32i	a6, a9, 100
    238c:	33a3e2                                    	movi	a14, 0x333
    238f:	186962                                    	s32i	a6, a9, 96
    2392:	a38c                                    	beqz.n	a3, 23a0 <Voice_EC_Inear_Init+0x19c>
    2394:	245030                                    	extui	a5, a3, 0, 3
    2397:	631c22                                    	l16ui	a2, a12, 198
    239a:	103380                                    	and	a3, a3, a8
    239d:	000086                                    	j	23a3 <Voice_EC_Inear_Init+0x19f>

000023a0 <Voice_EC_Inear_Init+0x19c>:
    23a0:	113ed0                                    	slli	a3, a14, 3
    23a3:	3168                                    	l32i.n	a6, a1, 12
    23a5:	04d4f2                                    	addmi	a15, a4, 0x400
    23a8:	415f52                                    	s16i	a5, a15, 130
    23ab:	345f22                                    	s16i	a2, a15, 104
    23ae:	405632                                    	s16i	a3, a6, 128
    23b1:	f01d                                    	retw.n

000023b3 <Voice_EC_Inear_Init+0x1af>:
	...

000023b4 <mic240_delay>:
    23b4:	004136                                    	entry	a1, 32
    23b7:	f71b61                                    	l32r	a6, 24 (a5c4 <xt_memcpy>)
    23ba:	02ad                                    	mov.n	a10, a2
    23bc:	04bd                                    	mov.n	a11, a4
    23be:	05cd                                    	mov.n	a12, a5
    23c0:	0006e0                                    	callx8	a6
    23c3:	f0a0f2                                    	movi	a15, 240
    23c6:	90a520                                    	addx2	a10, a5, a2
    23c9:	c0cf50                                    	sub	a12, a15, a5
    23cc:	03bd                                    	mov.n	a11, a3
    23ce:	1175f0                                    	slli	a7, a5, 1
    23d1:	0006e0                                    	callx8	a6
    23d4:	c02370                                    	sub	a2, a3, a7
    23d7:	e0a1f2                                    	movi	a15, 0x1e0
    23da:	b2fa                                    	add.n	a11, a2, a15
    23dc:	04ad                                    	mov.n	a10, a4
    23de:	05cd                                    	mov.n	a12, a5
    23e0:	0006e0                                    	callx8	a6
    23e3:	f01d                                    	retw.n

000023e5 <mic240_delay+0x31>:
    23e5:	000000                                        ...

000023e8 <sbiir2>:
    23e8:	004136                                    	entry	a1, 32
    23eb:	1306f3400489b02e                  	{ ae_l16x2m.i	aed0, a2, 0; or	a5, a3, a3 }
    23f3:	0e6ce97c0d2740d00700013c1c01925f 	{ ae_l32x2.ip	aed2, a5, 16; ae_l32.i	aed1, a4, 0; nop; ae_slai32	aed0, aed0, 8 }
    2403:	0e6cf17c2d3741210408213d1801f25f 	{ ae_l32x2.i	aed3, a5, -8; ae_l32.i	aed5, a4, 4; nop; ae_cvt48f32.h	aed4, aed2 }
    2413:	0e5533bb0d3c0c01c4007d1c10c02cef 	{ ae_cvt48f32.l	aed2, aed2; nop; ae_sel16i.n	aed6, aed0, aed3, 1; ae_sel16i	aed7, aed0, aed3, 3 }
    2423:	046d6169b52f59308914e13c1001325f 	{ ae_s32x2.i	aed0, a5, -16; ae_l32x2.ip	aed22, a5, 8; nop; ae_mulasf2d32ra.hh.ll	aed4, aed2, aed6, aed7, aed1, aed5 }
    2433:	0e6cf17cbd3e4220c40c213c1c0158ef 	{ ae_cvt48f32.h	aed21, aed3; ae_l32.i	aed23, a4, 8; nop; ae_cvt48f32.l	aed3, aed3 }
    2443:	0eace57cc52643a8c308413d1401b8ef 	{ ae_cvt48f32.h	aed27, aed22; ae_l32.i	aed24, a4, 12; nop; ae_round32x2f48sasym	aed2, aed4, aed2 }
    2453:	0e5573a9153f5906850addb41322b25f 	{ ae_s32x2.i	aed2, a5, -16; ae_l32x2.ip	aed2, a5, 8; ae_sel16i.n	aed25, aed2, aed22, 1; ae_sel16i	aed26, aed2, aed22, 3 }
    2463:	046cf57ce53e44c8eb63413d10011cef 	{ ae_cvt48f32.l	aed1, aed22; ae_l32.i	aed28, a4, 16; nop; ae_mulasf2d32ra.hh.ll	aed21, aed3, aed25, aed26, aed23, aed24 }
    2473:	0ead357b098d0ca8c380613b1c019d4f 	{ ae_l32.i	aed30, a4, 20; nop; nop; ae_round32x2f48sasym	aed0, aed21, aed3 }
    2483:	1a8103172840420e                  	{ ae_sel16i	aed29, aed0, aed2, 1; nop; ae_sel16i.n	aed2, aed0, aed2, 3 }
    248b:	046d3d7b0d250ce87778413c1001325f 	{ ae_s32x2.i	aed0, a5, -16; nop; nop; ae_mulasf2d32ra.hh.ll	aed27, aed1, aed29, aed2, aed28, aed30 }
    249b:	0ead197b08fd0ca8c2fc21380c01e2bf 	{ ae_round24x2f48sasym	aed2, aed27, aed1; nop; nop; ae_round32x2f48sasym	aed31, aed27, aed1 }
    24ab:	030692c010fcc33e                  	{ ae_movad32.h	a3, aed2; ae_movad32.l	a2, aed2 }
    24b3:	230700c718e5be5e                  	{ ae_s32x2.i	aed31, a5, -8; nop }
    24bb:	f01d                                    	retw.n

000024bd <sbiir2+0xd5>:
    24bd:	000000                                        ...

000024c0 <tx_downsample_by2_N>:
    24c0:	008136                                    	entry	a1, 64
    24c3:	010526411881016e                  	{ s32i	a6, a1, 28; ae_l32m.i	aed1, a6, 0 }
    24cb:	fec332                                    	addi	a3, a3, -2
    24ce:	5717a6                                    	blti	a7, 1, 2529 <tx_downsample_by2_N+0x69>
    24d1:	f72f61                                    	l32r	a6, 190 (23e8 <sbiir2>)
    24d4:	2302e2c0049fa04e                  	{ ae_l16x2m.i	aed0, a4, 0; addi	a2, a2, -2 }

000024dc <tx_downsample_by2_N+0x1c>:
    24dc:	1c807a0e3c002ece                  	{ l32r	a12, 194 (cc60 <wb_r01_v2>); nop; ae_mulaafd32s.hh.ll	aed1, aed0, aed0 }
    24e4:	04ad                                    	mov.n	a10, a4
    24e6:	05bd                                    	mov.n	a11, a5
    24e8:	360287c008ff9b1e                  	{ ae_s64.i	aed1, a1, 16; addi	a7, a7, -1 }
    24f0:	0006e0                                    	callx8	a6
    24f3:	8baa                                    	add.n	a8, a11, a10
    24f5:	c09ab0                                    	sub	a9, a10, a11
    24f8:	218180                                    	srai	a8, a8, 1
    24fb:	219190                                    	srai	a9, a9, 1
    24fe:	080678c00481d14e                  	{ ae_l16x2m.iu	aed0, a4, 4; ae_movda32x2	aed1, a8, a9 }
    2506:	0ead217b0d4c0cd0c50401380c01015f 	{ nop; nop; nop; ae_roundsp16f24asym	aed1, aed1 }
    2516:	030040c00cc1113e                  	{ ae_s16m.l.iu	aed1, a3, 2; ae_sel16i	aed1, aed1, aed1, 1 }
    251e:	2305c1400cc1012e                  	{ ae_s16m.l.iu	aed1, a2, 2; ae_l64.i	aed1, a1, 16 }
    2526:	fb2756                                    	bnez	a7, 24dc <tx_downsample_by2_N+0x1c>
    2529:	0ead017b09ec0cd0c50041381c01112f 	{ l32i	a2, a1, 28; nop; nop; ae_roundsq32f48asym	aed0, aed1 }
    2539:	220760c000c5b02e                  	{ ae_s32m.i	aed0, a2, 0; nop }
    2541:	f01d                                    	retw.n

00002543 <tx_downsample_by2_N+0x83>:
	...

00002544 <tx_downsample_by2>:
    2544:	004136                                    	entry	a1, 32
    2547:	f71471                                    	l32r	a7, 198 (24c0 <tx_downsample_by2_N>)
    254a:	4f1c                                    	movi.n	a15, 20
    254c:	02ad                                    	mov.n	a10, a2
    254e:	03bd                                    	mov.n	a11, a3
    2550:	04cd                                    	mov.n	a12, a4
    2552:	05dd                                    	mov.n	a13, a5
    2554:	06ed                                    	mov.n	a14, a6
    2556:	0007e0                                    	callx8	a7
    2559:	f01d                                    	retw.n

0000255b <tx_downsample_by2+0x17>:
	...

0000255c <tx_upsample_by2_N>:
    255c:	008136                                    	entry	a1, 64
    255f:	010526410883016e                  	{ s32i	a6, a1, 20; ae_l32m.i	aed3, a6, 0 }
    2567:	1cc182                                    	addi	a8, a1, 28
    256a:	6a17a6                                    	blti	a7, 1, 25d8 <tx_upsample_by2_N+0x7c>
    256d:	000473470461e46e                  	{ addi	a6, a4, -4; ae_l16m.i	aed1, a3, 0 }
    2575:	040460400480602e                  	{ ae_l16m.i	aed0, a2, 0; movi	a4, 0 }
    257d:	6189                                    	s32i.n	a8, a1, 24

0000257f <tx_upsample_by2_N+0x23>:
    257f:	0ea54027d9e655b0c1082008143f11af 	{ l32i	a10, a1, 24; or	a11, a5, a5; ae_sub24s	aed31, aed0, aed1; ae_add24s	aed2, aed0, aed1 }
    258f:	1e806b1e3c4201ce                  	{ l32r	a12, 194 (cc60 <wb_r01_v2>); nop; ae_mulaf32s.ll	aed3, aed2, aed2 }
    2597:	f6fe81                                    	l32r	a8, 190 (23e8 <sbiir2>)
    259a:	2402844018e0871e                  	{ ae_s64.i	aed3, a1, 8; addi	a4, a4, 2 }
    25a2:	220740c014c510ae                  	{ ae_s16m.l.i	aed2, a10, 0; nop }
    25aa:	220740c71cc511ae                  	{ ae_s16m.l.i	aed31, a10, 2; nop }
    25b2:	0008e0                                    	callx8	a8
    25b5:	0a061ac018e2171e                  	{ ae_l64.i	aed3, a1, 8; ae_movda32x2	aed2, a10, a11 }
    25bd:	0eace1710d3331d0c40801380801012f 	{ ae_l16m.iu	aed0, a2, 2; ae_l16m.iu	aed1, a3, 2; nop; ae_roundsp16f24asym	aed2, aed2 }
    25cd:	220740c014c5716e                  	{ ae_s16x2m.iu	aed2, a6, 4; nop }
    25d5:	a62477                                    	blt	a4, a7, 257f <tx_upsample_by2_N+0x23>
    25d8:	0ead017b09fc0cd0c50041380c01112f 	{ l32i	a2, a1, 20; nop; nop; ae_roundsq32f48asym	aed0, aed3 }
    25e8:	220760c000c5b02e                  	{ ae_s32m.i	aed0, a2, 0; nop }
    25f0:	f01d                                    	retw.n

000025f2 <tx_upsample_by2_N+0x96>:
	...

000025f4 <tx_upsample_by2>:
    25f4:	004136                                    	entry	a1, 32
    25f7:	f6e971                                    	l32r	a7, 19c (255c <tx_upsample_by2_N>)
    25fa:	8f2c                                    	movi.n	a15, 40
    25fc:	02ad                                    	mov.n	a10, a2
    25fe:	03bd                                    	mov.n	a11, a3
    2600:	04cd                                    	mov.n	a12, a4
    2602:	05dd                                    	mov.n	a13, a5
    2604:	06ed                                    	mov.n	a14, a6
    2606:	0007e0                                    	callx8	a7
    2609:	f01d                                    	retw.n

0000260b <tx_upsample_by2+0x17>:
	...

0000260c <emph_filter_N>:
    260c:	004136                                    	entry	a1, 32
    260f:	100474c00c60056e                  	{ addi	a6, a5, 1; ae_l16x2m.i	aed0, a4, 0 }
    2617:	b36550                                    	movgez	a6, a5, a5
    261a:	7225a6                                    	blti	a5, 2, 2690 <emph_filter_N+0x84>
    261d:	2302e2c00c9fb03e                  	{ ae_l16x2m.i	aed1, a3, 0; addi	a3, a2, -2 }
    2625:	215160                                    	srai	a5, a6, 1
    2628:	fcc222                                    	addi	a2, a2, -4
    262b:	f03d                                    	nop.n
    262d:	5f8576                                    	loop	a5, 2690 <emph_filter_N+0x84>
    2630:	220760c01485d12e                  	{ ae_l16x2m.iu	aed2, a2, 4; nop }
    2638:	0e5537bb0d340c2104083d0413a2396f 	{ ae_cvtq56p32s.h	aed3, aed2; nop; ae_sel16i.n	aed29, aed2, aed0, 1; ae_cvtq56p32s.l	aed4, aed2 }
    2648:	0e9d22fb0d440c088716ab200c22015f 	{ nop; nop; ae_mulaf32s.hh	aed4, aed1, aed2; ae_mulaf32s.hh	aed3, aed1, aed0 }
    2658:	0e1503fb0be40c0e062b3820103d002f 	{ ae_sel16i	aed0, aed2, aed2, 0; nop; ae_mulaafd32s.hh.ll	aed4, aed1, aed29; ae_mulaafd32s.hh.ll	aed3, aed1, aed0 }
    2668:	0ead217b0d5c0ce8c37861380c01015f 	{ nop; nop; nop; ae_roundsp16q48x2asym	aed30, aed3, aed3 }
    2678:	0ead257b0c450ce8c37c813b04018d3f 	{ ae_s16m.l.iu	aed30, a3, 2; nop; nop; ae_roundsp16q48x2asym	aed31, aed4, aed4 }
    2688:	230740c71cc5113e                  	{ ae_s16m.l.iu	aed31, a3, 2; nop }

00002690 <emph_filter_N+0x84>:
    2690:	230740c004c5504e                  	{ ae_s16x2m.i	aed0, a4, 0; nop }
    2698:	f01d                                    	retw.n

0000269a <emph_filter_N+0x8e>:
	...

0000269c <deemph_filter_N>:
    269c:	004136                                    	entry	a1, 32
    269f:	0c07204000c4604e                  	{ ae_l32m.i	aed0, a4, 0; ae_movi	aed4, 0 }
    26a7:	220720c008c5714e                  	{ ae_l32m.i	aed1, a4, 4; nop }
    26af:	1d0720200c0735ce                  	{ blti.w15	a5, 1, 2719 <deemph_filter_N+0x7d>; ae_mov	aed7, aed1 }
    26b7:	010472401486a03e                  	{ ae_l16x2m.i	aed2, a3, 0; ae_l16m.i	aed6, a2, 0 }
    26bf:	050061c21403a1fe                  	{ l32r	a15, 144 (b540 <immediate_num>); ae_sel16i	aed3, aed2, aed2, 1 }
    26c7:	26835b233403b13e                  	{ nop; nop; ae_mulsf48q32sp16s.l	aed4, aed0, aed3 }
    26cf:	2681bb242c030f3e                  	{ addi	a3, a15, 48; nop; ae_mulsf48q32sp16s.l	aed4, aed0, aed3 }
    26d7:	f03d                                    	nop.n
    26d9:	110453c700a5250e                  	{ loop	a5, 2719 <deemph_filter_N+0x7d>; ae_l16x2m.i	aed5, a3, 0 }
    26e1:	26837b2028e2000e                  	{ ae_mov	aed1, aed0; nop; ae_mulsf48q32sp16s.l	aed4, aed7, aed2 }
    26e9:	2a82232428c5612e                  	{ ae_l16m.iu	aed6, a2, 2; nop; ae_mulssfd32s.hh.ll	aed4, aed6, aed5 }
    26f1:	0ead051b09e40cd0c480412100e1400f 	{ ae_movi	aed4, 0; nop; ae_mov	aed7, aed1; ae_roundsq32f48asym	aed0, aed4 }
    2701:	0e9d205b0d440ce8c37c1a200c03015f 	{ nop; nop; ae_mulsf48q32sp16s.l	aed4, aed0, aed3; ae_roundsp16q48x2asym	aed31, aed0, aed0 }
    2711:	2682bb272c03ff2e                  	{ ae_s16m.l.i	aed31, a2, -2; nop; ae_mulsf48q32sp16s.l	aed4, aed0, aed3 }

00002719 <deemph_filter_N+0x7d>:
    2719:	220760c000c5b04e                  	{ ae_s32m.i	aed0, a4, 0; nop }
    2721:	220760c008c5b14e                  	{ ae_s32m.i	aed1, a4, 4; nop }
    2729:	f01d                                    	retw.n

0000272b <deemph_filter_N+0x8f>:
	...

0000272c <analy2_3band>:
    272c:	006136                                    	entry	a1, 48
    272f:	fec2b2                                    	addi	a11, a2, -2
    2732:	f69bc1                                    	l32r	a12, 1a0 (cbe0 <sb2_coef>)
    2735:	20c392                                    	addi	a9, a3, 32
    2738:	102322                                    	l32i	a2, a3, 64
    273b:	40c382                                    	addi	a8, a3, 64
    273e:	a70c                                    	movi.n	a7, 10
    2740:	2a0c                                    	movi.n	a10, 2
    2742:	fcc442                                    	addi	a4, a4, -4
    2745:	0e6ce087e4636600c60821221440f55f 	{ addi	a5, a5, -2; addi	a6, a6, -4; ae_movi	aed2, 0; ae_movi	aed3, 0 }
    2755:	f3f630                                    	wur.ae_cbegin0	a3
    2758:	3139                                    	s32i.n	a3, a1, 12
    275a:	40ccc2                                    	addi	a12, a12, 64
    275d:	f3f790                                    	wur.ae_cend0	a9
    2760:	f3f890                                    	wur.ae_cbegin1	a9
    2763:	f3f980                                    	wur.ae_cend1	a8
    2766:	20c292                                    	addi	a9, a2, 32
    2769:	430c                                    	movi.n	a3, 4

0000276b <analy2_3band+0x3f>:
    276b:	3d06fc40048b61be                  	{ ae_l16m.iu	aed0, a11, 2; or	a15, a12, a12 }
    2773:	11045b4004c13a2e                  	{ ae_s16m.l.xc	aed0, a2, a10; ae_l16m.iu	aed1, a11, 2 }
    277b:	0e6d7507f45f2220050821211c22629f 	{ ae_s16m.l.xc1	aed1, a9, a10; or	a14, a2, a2; ae_mov	aed1, aed2; ae_mov	aed0, aed2 }
    278b:	f68581                                    	l32r	a8, 1a0 (cbe0 <sb2_coef>)
    278e:	1806b94318eb74ee                  	{ ae_la16x4pos.pc	u0, a14; or	a13, a9, a9 }
    2796:	2e835090240067de                  	{ ae_la16x4pos.pc1	u1, a13; nop; nop }
    279e:	230720c318e5747e                  	{ nop; nop }
    27a6:	0020f0                                    	nop
    27a9:	f03d                                    	nop.n
    27ab:	f03d                                    	nop.n
    27ad:	2f8376                                    	loop	a3, 27e0 <analy2_3band+0xb4>
    27b0:	000081485442d9004a030322b80070ef 	{ ae_la16x4.ic	aed4, u0, a14; ae_la16x4.ic1	aed5, u1, a13; nop }
    27c0:	000080c950a3f10056031329b800128f 	{ ae_l16x4x2.ip	aed6, aed7, a8, 16; ae_l16x4x2.ip	aed8, aed9, a15, 16; nop }
    27d0:	0493a8a90a01082803a482199886680f 	{ nop; nop; ae_mulaaaa2q16	aed3, aed2, aed4, aed5, aed6, aed7; ae_mulaaaa2q16	aed1, aed0, aed5, aed4, aed8, aed9 }

000027e0 <analy2_3band+0xb4>:
    27e0:	0e64e827fd02774047802218149cd03f 	{ ae_add64	aed4, aed3, aed2; addi	a7, a7, -1; ae_sub64	aed28, aed2, aed3; ae_slai64	aed1, aed1, 16 }
    27f0:	0e6d696a19020447478081380401040f 	{ ae_slai64	aed0, aed0, 16; ae_movi	aed3, 0; nop; ae_slai64	aed29, aed4, 16 }
    2800:	0ead217b090d0ce8c3800138040184cf 	{ ae_slai64	aed2, aed28, 16; nop; nop; ae_roundsp16q48x2asym	aed0, aed1, aed0 }
    2810:	0ead416a10f304e8c2fc413f0c01fedf 	{ ae_round24x2f48sasym	aed30, aed29, aed29; ae_movi	aed2, 0; nop; ae_roundsp16q48x2asym	aed31, aed2, aed2 }
    2820:	220740c004c5716e                  	{ ae_s16x2m.iu	aed0, a6, 4; nop }
    2828:	230740c71cc5115e                  	{ ae_s16m.l.iu	aed31, a5, 2; nop }
    2830:	0502e44710c1414e                  	{ ae_s32f24.l.i	aed30, a4, 4; addi	a4, a4, 4 }
    2838:	f2f756                                    	bnez	a7, 276b <analy2_3band+0x3f>
    283b:	3138                                    	l32i.n	a3, a1, 12
    283d:	106322                                    	s32i	a2, a3, 64
    2840:	f01d                                    	retw.n

00002842 <analy2_3band+0x116>:
	...

00002844 <synth_3band>:
    2844:	004136                                    	entry	a1, 32
    2847:	b54b                                    	addi.n	a11, a5, 4
    2849:	f65671                                    	l32r	a7, 1a4 (b770 <sb_g10>)
    284c:	f3f6b0                                    	wur.ae_cbegin0	a11
    284f:	7cc5c2                                    	addi	a12, a5, 124
    2852:	f65581                                    	l32r	a8, 1a8 (b7f0 <sb_h2ir_v2>)
    2855:	05b8                                    	l32i.n	a11, a5, 0
    2857:	a90c                                    	movi.n	a9, 10
    2859:	f3f7c0                                    	wur.ae_cend0	a12
    285c:	4c0c                                    	movi.n	a12, 4
    285e:	0fa0a2                                    	movi	a10, 15
    2861:	fec222                                    	addi	a2, a2, -2
    2864:	fec332                                    	addi	a3, a3, -2
    2867:	fcc442                                    	addi	a4, a4, -4
    286a:	fec662                                    	addi	a6, a6, -2

0000286d <synth_3band+0x29>:
    286d:	110473400481712e                  	{ ae_l16m.iu	aed0, a2, 2; ae_l16m.iu	aed1, a3, 2 }
    2875:	0e64c017f8e241004788200808c2200f 	{ ae_sub24s	aed0, aed0, aed1; ae_l16x2m.iu	aed31, a4, 4; ae_add24s	aed2, aed0, aed1; ae_movi	aed1, 0 }
    2885:	010031c318e0647e                  	{ nop; ae_sel16i	aed0, aed2, aed0, 3 }
    288d:	1c07404004c09cbe                  	{ ae_s16x2m.xc	aed0, a11, a12; ae_mov	aed0, aed1 }
    2895:	220740c71cc59cbe                  	{ ae_s16x2m.xc	aed31, a11, a12; nop }
    289d:	110478c01c82a07e                  	{ ae_l16x2m.i	aed3, a7, 0; ae_l16x2m.i	aed2, a8, 0 }
    28a5:	278a76                                    	loop	a10, 28d0 <synth_3band+0x8c>
    28a8:	220760c10485fcbe                  	{ ae_l16x2m.xc	aed4, a11, a12; nop }
    28b0:	0e9ce6f71c427118809eab09046474bf 	{ ae_l16x2m.xc	aed5, a11, a12; ae_l16x2m.iu	aed3, a7, 4; ae_mulaf32s.hh	aed1, aed3, aed4; ae_mulaf32s.ll	aed0, aed3, aed4 }
    28c0:	0e1d231b0d350c2b41af4b080045818f 	{ ae_l16x2m.iu	aed2, a8, 4; nop; ae_mulaf32s.lh	aed1, aed2, aed5; ae_mulsf32s.lh	aed0, aed5, aed2 }

000028d0 <synth_3band+0x8c>:
    28d0:	0eace166246377e8c200013a1c01f99f 	{ addi	a9, a9, -1; addi	a7, a7, -60; nop; ae_roundsp16q48x2asym	aed0, aed0, aed0 }
    28e0:	0eace166244b88e8c30421390401016f 	{ ae_s16m.l.iu	aed0, a6, 2; addi	a8, a8, -60; nop; ae_roundsp16q48x2asym	aed1, aed1, aed1 }
    28f0:	230740c00cc5116e                  	{ ae_s16m.l.iu	aed1, a6, 2; nop }
    28f8:	f71956                                    	bnez	a9, 286d <synth_3band+0x29>
    28fb:	05b9                                    	s32i.n	a11, a5, 0
    28fd:	f01d                                    	retw.n

000028ff <synth_3band+0xbb>:
	...

00002900 <biquad_2cascade_24bitTxB>:
    2900:	004136                                    	entry	a1, 32
    2903:	1205134010e0023e                  	{ ae_l32x2.i	aed2, a3, 0; ae_l32x2.i	aed0, a3, 16 }
    290b:	047d                                    	mov.n	a7, a4
    290d:	110553240c01f6ce                  	{ blti.w15	a6, 1, 29d0 <biquad_2cascade_24bitTxB+0xd0>; ae_l32x2.i	aed1, a3, 8 }
    2915:	000492c018ea164e                  	{ ae_l32x2.i	aed3, a4, 8; ae_l32f24.ip	aed10, a2, 4 }
    291d:	130534410ca4c97e                  	{ ae_l32x2.ip	aed5, a7, 8; ae_l32x2.i	aed4, a4, 16 }
    2925:	10c7f2                                    	addi	a15, a7, 16
    2928:	fec542                                    	addi	a4, a5, -2
    292b:	1305174200e6027e                  	{ ae_l32x2.i	aed8, a7, 32; ae_l32x2.i	aed6, a7, 16 }
    2933:	16051fc118e90e7e                  	{ ae_l32x2.i	aed7, a7, 24; ae_l32.i	aed9, a15, 24 }
    293b:	f03d                                    	nop.n
    293d:	8f8676                                    	loop	a6, 29d0 <biquad_2cascade_24bitTxB+0xd0>
    2940:	0e1d013b0bf40c1fd62f3360108120af 	{ ae_sel16i	aed2, aed2, aed10, 0; nop; ae_mulzssfd32s.hl.lh	aed12, aed4, aed1; ae_mulzaafd32s.hl.lh	aed11, aed3, aed2 }
    2950:	0e1527fb0d440c0b572f59600ca2015f 	{ nop; nop; ae_mulaafd32s.hl.lh	aed12, aed5, aed2; ae_mulsf32s.lh	aed11, aed1, aed4 }
    2960:	0e1d213b0d4c0c3ffd2f33680d00015f 	{ nop; nop; ae_mulzssfd32s.hl.lh	aed13, aed8, aed0; ae_mulzaafd32s.hl.lh	aed30, aed7, aed1 }
    2970:	0e9d245b0d040cd0c58090f30408c7bf 	{ ae_add64	aed11, aed11, aed12; nop; ae_mulsf32s.lh	aed30, aed0, aed8; nop }
    2980:	2e82709238001c1e                  	{ ae_pksr24	aed1, aed11, 0; nop; nop }
    2988:	1c835b6b34c1b13e                  	{ nop; nop; ae_mulaafd32s.hl.lh	aed13, aed6, aed1 }
    2990:	0ead257b0d050cd0c580813b0c01c6ef 	{ ae_add64	aed10, aed30, aed13; nop; nop; nop }
    29a0:	2e82709230000c1e                  	{ ae_pksr24	aed0, aed10, 0; nop; nop }
    29a8:	010030c318ea647e                  	{ nop; ae_sel16i	aed10, aed0, aed0, 3 }
    29b0:	2a835953352ab13e                  	{ nop; nop; ae_mulzaafd32s.hh.ll	aed10, aed9, aed10 }
    29b8:	0ead297b0d340ce8c37d41381801892f 	{ ae_l32f24.ip	aed10, a2, 4; nop; nop; ae_roundsp16q48x2asym	aed31, aed10, aed10 }
    29c8:	230740c71cc5114e                  	{ ae_s16m.l.iu	aed31, a4, 2; nop }

000029d0 <biquad_2cascade_24bitTxB+0xd0>:
    29d0:	220700c010e5923e                  	{ ae_s32x2.i	aed2, a3, 0; nop }
    29d8:	220700c008e5963e                  	{ ae_s32x2.i	aed1, a3, 8; nop }
    29e0:	220700c000e59a3e                  	{ ae_s32x2.i	aed0, a3, 16; nop }
    29e8:	f01d                                    	retw.n

000029ea <biquad_2cascade_24bitTxB+0xea>:
	...

000029ec <conv_24_to_16>:
    29ec:	004136                                    	entry	a1, 32
    29ef:	05a042                                    	movi	a4, 5
    29f2:	fcc332                                    	addi	a3, a3, -4
    29f5:	1f8476                                    	loop	a4, 2a18 <conv_24_to_16+0x2c>
    29f8:	230720c004a5b92e                  	{ ae_l32x2f24.ip	aed0, a2, 8; nop }
    2a00:	0ead217b0d440cd0c50001380c01015f 	{ nop; nop; nop; ae_roundsp16f24asym	aed0, aed0 }
    2a10:	220740c004c5713e                  	{ ae_s16x2m.iu	aed0, a3, 4; nop }

00002a18 <conv_24_to_16+0x2c>:
    2a18:	f01d                                    	retw.n

00002a1a <conv_24_to_16+0x2e>:
	...

00002a1c <gain_after_ec>:
    2a1c:	00a136                                    	entry	a1, 80
    2a1f:	f57fe1                                    	l32r	a14, 1c (d8e8 <p_ecnr_mem>)
    2a22:	daa6f2                                    	movi	a15, 0x6da
    2a25:	9139                                    	s32i.n	a3, a1, 36
    2a27:	8129                                    	s32i.n	a2, a1, 32
    2a29:	042d                                    	mov.n	a2, a4
    2a2b:	0e38                                    	l32i.n	a3, a14, 0
    2a2d:	110415c104e52ffe                  	{ addx4	a4, a15, a15; ae_l16x2m.i	aed5, a5, 0 }
    2a35:	b169                                    	s32i.n	a6, a1, 44
    2a37:	07bd                                    	mov.n	a11, a7
    2a39:	24045340008601ae                  	{ movi	a10, 1; ae_l16m.x	aed6, a3, a4 }
    2a41:	110432c610a70a1e                  	{ slli	a10, a10, 15; ae_l16x2m.i	aed7, a2, 0 }
    2a49:	045716                                    	beqz	a7, 2a92 <gain_after_ec+0x76>
    2a4c:	f5c031                                    	l32r	a3, 14c (7270 <airoha_divide>)
    2a4f:	220700c110e59b1e                  	{ ae_s64.i	aed6, a1, 16; nop }
    2a57:	220700c118e5971e                  	{ ae_s64.i	aed7, a1, 8; nop }
    2a5f:	220700c108e59f1e                  	{ ae_s64.i	aed5, a1, 24; nop }
    2a67:	0003e0                                    	callx8	a3
    2a6a:	20070b4008e00b1e                  	{ ae_l64.i	aed1, a1, 16; ae_cvt48a32	aed0, a11 }
    2a72:	2283130320015f1e                  	{ ae_l64.i	aed5, a1, 24; nop; ae_mulf48q32sp16s.l	aed0, aed0, aed1 }
    2a7a:	2005814300a71a0e                  	{ ae_slaaq56	aed0, aed0, a10; ae_l64.i	aed7, a1, 8 }
    2a82:	0ead057b08e40cd0c48081380401f20f 	{ ae_round24x2f48sasym	aed6, aed0, aed0; nop; nop; nop }

00002a92 <gain_after_ec+0x76>:
    2a92:	8188                                    	l32i.n	a8, a1, 32
    2a94:	fec232                                    	addi	a3, a2, -2
    2a97:	9178                                    	l32i.n	a7, a1, 36
    2a99:	fec592                                    	addi	a9, a5, -2
    2a9c:	2129                                    	s32i.n	a2, a1, 8
    2a9e:	02ed                                    	mov.n	a14, a2
    2aa0:	fec8d2                                    	addi	a13, a8, -2
    2aa3:	a20c                                    	movi.n	a2, 10
    2aa5:	fec762                                    	addi	a6, a7, -2
    2aa8:	fec842                                    	addi	a4, a8, -2
    2aab:	fec7c2                                    	addi	a12, a7, -2
    2aae:	4b0c                                    	movi.n	a11, 4
    2ab0:	a159                                    	s32i.n	a5, a1, 40
    2ab2:	05fd                                    	mov.n	a15, a5
    2ab4:	037d                                    	mov.n	a7, a3
    2ab6:	098d                                    	mov.n	a8, a9
    2ab8:	06ad                                    	mov.n	a10, a6
    2aba:	205440                                    	or	a5, a4, a4
    2abd:	b78276                                    	loop	a2, 2b78 <gain_after_ec+0x15c>
    2ac0:	0e1ce651153bd134002b6d0808c7c1cf 	{ ae_l16m.iu	aed3, a12, 2; ae_l16m.iu	aed2, a13, 2; ae_mulf32s.ll	aed1, aed6, aed7; ae_mulf32s.hh	aed0, aed6, aed7 }
    2ad0:	0e1d265b0d2d0c3409ab6d1800c3c5ef 	{ ae_l16x2m.iu	aed7, a14, 4; nop; ae_mulf32s.ll	aed3, aed6, aed3; ae_mulf32s.hh	aed4, aed6, aed5 }
    2ae0:	0e1d265b090c0c3475ab6dd81cc22b0f 	{ ae_slaaq56	aed0, aed0, a11; nop; ae_mulf32s.ll	aed27, aed6, aed2; ae_mulf32s.ll	aed26, aed6, aed5 }
    2af0:	0ead217b09040cf0c38001381c016b1f 	{ ae_slaaq56	aed1, aed1, a11; nop; nop; ae_roundsp16q48x2sym	aed0, aed0, aed0 }
    2b00:	0ead217b0c4d0cf0c30421390401017f 	{ ae_s16m.l.iu	aed0, a7, 2; nop; nop; ae_roundsp16q48x2sym	aed1, aed1, aed1 }
    2b10:	220760c304a51b4e                  	{ ae_slaaq56	aed28, aed4, a11; nop }
    2b18:	0ead3d7b09050cf0c38b81381c012bbf 	{ ae_slaaq56	aed0, aed27, a11; nop; nop; ae_roundsp16q48x2sym	aed2, aed28, aed28 }
    2b28:	0ead217b09e50cf0c38001381c016baf 	{ ae_slaaq56	aed29, aed26, a11; nop; nop; ae_roundsp16q48x2sym	aed0, aed0, aed0 }
    2b38:	0ead3d7b090c0cf0c3fba1381c01eb3f 	{ ae_slaaq56	aed3, aed3, a11; nop; nop; ae_roundsp16q48x2sym	aed30, aed29, aed29 }
    2b48:	0ead217b0c5d0cf0c37c61390401417f 	{ ae_s16m.l.iu	aed1, a7, 2; nop; nop; ae_roundsp16q48x2sym	aed31, aed3, aed3 }
    2b58:	21045fc014c5118e                  	{ ae_s16m.l.iu	aed2, a8, 2; ae_l16x2m.iu	aed5, a15, 4 }
    2b60:	230740c714c5118e                  	{ ae_s16m.l.iu	aed30, a8, 2; nop }
    2b68:	230740c004c5115e                  	{ ae_s16m.l.iu	aed0, a5, 2; nop }
    2b70:	230740c71cc511ae                  	{ ae_s16m.l.iu	aed31, a10, 2; nop }

00002b78 <gain_after_ec+0x15c>:
    2b78:	b128                                    	l32i.n	a2, a1, 44
    2b7a:	6b4c                                    	movi.n	a11, 70
    2b7c:	a1a8                                    	l32i.n	a10, a1, 40
    2b7e:	4c4c                                    	movi.n	a12, 68
    2b80:	022152                                    	l32i	a5, a1, 8
    2b83:	082172                                    	l32i	a7, a1, 32
    2b86:	092182                                    	l32i	a8, a1, 36
    2b89:	021226                                    	beqi	a2, 1, 2b8f <gain_after_ec+0x173>
    2b8c:	003c06                                    	j	2c80 <gain_after_ec+0x264>
    2b8f:	f52321                                    	l32r	a2, 1c (d8e8 <p_ecnr_mem>)
    2b92:	49a4d2                                    	movi	a13, 0x449
    2b95:	110475c00c80a0ae                  	{ ae_l16x2m.i	aed1, a10, 0; ae_l16x2m.i	aed0, a5, 0 }
    2b9d:	22dcc2                                    	addmi	a12, a12, 0x2200
    2ba0:	11ddd0                                    	slli	a13, a13, 3
    2ba3:	0022e2                                    	l32i	a14, a2, 0
    2ba6:	fec722                                    	addi	a2, a7, -2
    2ba9:	0aa072                                    	movi	a7, 10
    2bac:	22dbb2                                    	addmi	a11, a11, 0x2200
    2baf:	fec882                                    	addi	a8, a8, -2
    2bb2:	02a0f2                                    	movi	a15, 2
    2bb5:	c78776                                    	loop	a7, 2c80 <gain_after_ec+0x264>
    2bb8:	2604664104939bee                  	{ ae_l16m.x	aed4, a14, a11; movi	a7, 0x4e6 }
    2bc0:	0e1ce2512d2a2124362b6de01481777f 	{ subx8	a7, a7, a7; ae_l16m.iu	aed5, a2, 2; ae_mulf32s.ll	aed28, aed4, aed1; ae_mulf32s.hh	aed27, aed4, aed1 }
    2bd0:	10047840148697ee                  	{ ae_l16m.x	aed2, a14, a7; ae_l16m.iu	aed6, a8, 2 }
    2bd8:	0e1ce2570103511407ab6dd01c40afbf 	{ ae_slaaq56	aed2, aed27, a15; ae_l16x2m.iu	aed0, a5, 4; ae_mulf32s.ll	aed26, aed2, aed0; ae_mulf32s.hh	aed3, aed2, aed0 }
    2be8:	0ead217b09150cf0c38841381c016fcf 	{ ae_slaaq56	aed1, aed28, a15; nop; nop; ae_roundsp16q48x2sym	aed2, aed2, aed2 }
    2bf8:	0ead217b090c0cf0c39c21381c01ef3f 	{ ae_slaaq56	aed3, aed3, a15; nop; nop; ae_roundsp16q48x2sym	aed7, aed1, aed1 }
    2c08:	0ead217b09fd0cf0c38c61381c016faf 	{ ae_slaaq56	aed29, aed26, a15; nop; nop; ae_roundsp16q48x2sym	aed3, aed3, aed3 }
    2c18:	0ead3d7b0c4d0cf0c313a1390401c13f 	{ ae_s16m.l.iu	aed3, a3, 2; nop; nop; ae_roundsp16q48x2sym	aed4, aed29, aed29 }
    2c28:	230740c104c5113e                  	{ ae_s16m.l.iu	aed4, a3, 2; nop }
    2c30:	2c047e401c849cee                  	{ ae_l16m.x	aed3, a14, a12; ae_l16m.x	aed4, a14, a13 }
    2c38:	0e1ce6570c4ba11c7d2b6df90486819f 	{ ae_s16m.l.iu	aed2, a9, 2; ae_l16x2m.iu	aed1, a10, 4; ae_mulf32s.ll	aed31, aed4, aed6; ae_mulf32s.ll	aed30, aed3, aed5 }
    2c48:	230740c11cc5119e                  	{ ae_s16m.l.iu	aed7, a9, 2; nop }
    2c50:	220700c300a5bfee                  	{ ae_slaaq56	aed2, aed30, a15; nop }
    2c58:	0ead217b09150cf0c38841381c01efff 	{ ae_slaaq56	aed3, aed31, a15; nop; nop; ae_roundsp16q48x2sym	aed2, aed2, aed2 }
    2c68:	0ead217b0c5d0cf0c30c61390401814f 	{ ae_s16m.l.iu	aed2, a4, 2; nop; nop; ae_roundsp16q48x2sym	aed3, aed3, aed3 }
    2c78:	230740c01cc5116e                  	{ ae_s16m.l.iu	aed3, a6, 2; nop }

00002c80 <gain_after_ec+0x264>:
    2c80:	f01d                                    	retw.n

00002c82 <gain_after_ec+0x266>:
	...

00002c84 <adjust_phase>:
    2c84:	004136                                    	entry	a1, 32
    2c87:	210702400ca0e33e                  	{ ae_cvtp24a16x2.ll	aed1, a3, a3; ae_cvt48a32	aed0, a2 }
    2c8f:	228353133401b13e                  	{ nop; nop; ae_mulf48q32sp16s.l	aed2, aed0, aed1 }
    2c97:	1e8354133401b13e                  	{ nop; nop; ae_mulaf48q32sp16s.l	aed2, aed0, aed1 }
    2c9f:	0ead217b0d540ce8c30041380c01015f 	{ nop; nop; nop; ae_roundsp16q48x2asym	aed0, aed2, aed2 }
    2caf:	0ead257b0e240cd0c40081391001720f 	{ ae_cvta32f24s.l	a2, aed0; nop; nop; nop }
    2cbf:	f01d                                    	retw.n

00002cc1 <adjust_phase+0x3d>:
    2cc1:	000000                                        ...

00002cc4 <adjust_bib_state>:
    2cc4:	004136                                    	entry	a1, 32
    2cc7:	fcc232                                    	addi	a3, a2, -4
    2cca:	840c                                    	movi.n	a4, 8
    2ccc:	0202a34000c1702e                  	{ ae_l32m.i	aed0, a2, 0; addi	a3, a3, 4 }
    2cd4:	0020f0                                    	nop
    2cd7:	0020f0                                    	nop
    2cda:	0020f0                                    	nop
    2cdd:	278476                                    	loop	a4, 2d08 <adjust_bib_state+0x44>
    2ce0:	0ead257b09040cd0c580813a0c01010f 	{ ae_srai64	aed0, aed0, 1; nop; nop; nop }
    2cf0:	0eacc57900e421d0c48081380401e10f 	{ ae_round24x2f48sasym	aed1, aed0, aed0; ae_l32m.iu	aed0, a2, 4; nop; nop }
    2d00:	220760c008c5713e                  	{ ae_s32f24.l.ip	aed1, a3, 4; nop }

00002d08 <adjust_bib_state+0x44>:
    2d08:	f01d                                    	retw.n

00002d0a <adjust_bib_state+0x46>:
	...

00002d0c <gain_ref>:
    2d0c:	004136                                    	entry	a1, 32
    2d0f:	fcc222                                    	addi	a2, a2, -4
    2d12:	5a14a6                                    	blti	a4, 1, 2d70 <gain_ref+0x64>
    2d15:	0304024004a0f33e                  	{ ae_cvtp24a16x2.ll	aed0, a3, a3; movi	a3, 2 }
    2d1d:	220760c00c85d12e                  	{ ae_l16x2m.iu	aed1, a2, 4; nop }
    2d25:	230720c318e5747e                  	{ nop; nop }
    2d2d:	3f8476                                    	loop	a4, 2d70 <gain_ref+0x64>
    2d30:	0e1d225b0d2d0c0445ab4d180020412f 	{ ae_l16x2m.iu	aed1, a2, 4; nop; ae_mulf32s.ll	aed3, aed1, aed0; ae_mulf32s.lh	aed2, aed0, aed1 }
    2d40:	220700c300a5932e                  	{ ae_slaaq56	aed2, aed2, a3; nop }
    2d48:	0ead217b09140ce8c38841381c01e33f 	{ ae_slaaq56	aed3, aed3, a3; nop; nop; ae_roundsp16q48x2asym	aed2, aed2, aed2 }
    2d58:	0ead217b0c5d0ce8c30c61381c01b22f 	{ ae_s16m.l.i	aed2, a2, -4; nop; nop; ae_roundsp16q48x2asym	aed3, aed3, aed3 }
    2d68:	220740c01cc51f2e                  	{ ae_s16m.l.i	aed3, a2, -2; nop }

00002d70 <gain_ref+0x64>:
    2d70:	f01d                                    	retw.n

00002d72 <gain_ref+0x66>:
	...

00002d74 <TxRef_VAD_V2>:
    2d74:	006136                                    	entry	a1, 48
    2d77:	024d                                    	mov.n	a4, a2
    2d79:	f0a052                                    	movi	a5, 240
    2d7c:	020c                                    	movi.n	a2, 0
    2d7e:	088576                                    	loop	a5, 2d8a <TxRef_VAD_V2+0x16>
    2d81:	235d                                    	ae_l16si.n	a5, a3, 0
    2d83:	332b                                    	addi.n	a3, a3, 2
    2d85:	605150                                    	abs	a5, a5
    2d88:	252a                                    	add.n	a2, a5, a2

00002d8a <TxRef_VAD_V2+0x16>:
    2d8a:	f57c                                    	movi.n	a5, -1
    2d8c:	761c                                    	movi.n	a6, 23
    2d8e:	015510                                    	slli	a5, a5, 31
    2d91:	e2ac                                    	beqz.n	a2, 2dc3 <TxRef_VAD_V2+0x4f>
    2d93:	40e230                                    	nsa	a3, a2
    2d96:	401300                                    	ssl	a3
    2d99:	c0b630                                    	sub	a11, a6, a3
    2d9c:	a1a200                                    	sll	a10, a2
    2d9f:	f50321                                    	l32r	a2, 1ac (824 <Log2_norm>)
    2da2:	0002e0                                    	callx8	a2
    2da5:	d1a422                                    	movi	a2, 0x4d1
    2da8:	d1a462                                    	movi	a6, 0x4d1
    2dab:	1122c0                                    	slli	a2, a2, 4
    2dae:	1166f0                                    	slli	a6, a6, 1
    2db1:	b23a20                                    	mulsh	a3, a10, a2
    2db4:	822a20                                    	mull	a2, a10, a2
    2db7:	336a                                    	add.n	a3, a3, a6
    2db9:	f25a                                    	add.n	a15, a2, a5
    2dbb:	622f20                                    	saltu	a2, a15, a2
    2dbe:	223a                                    	add.n	a2, a2, a3
    2dc0:	000046                                    	j	2dc5 <TxRef_VAD_V2+0x51>

00002dc3 <TxRef_VAD_V2+0x4f>:
    2dc3:	020c                                    	movi.n	a2, 0
    2dc5:	190432                                    	l8ui	a3, a4, 25
    2dc8:	029472                                    	l16si	a7, a4, 4
    2dcb:	f60c                                    	movi.n	a6, 15
    2dcd:	031492                                    	l16ui	a9, a4, 6
    2dd0:	051482                                    	l16ui	a8, a4, 10
    2dd3:	c31b                                    	addi.n	a12, a3, 1
    2dd5:	532270                                    	max	a2, a2, a7
    2dd8:	c0d630                                    	sub	a13, a6, a3
    2ddb:	083367                                    	bltu	a3, a6, 2de7 <TxRef_VAD_V2+0x73>
    2dde:	031462                                    	l16ui	a6, a4, 6
    2de1:	041432                                    	l16ui	a3, a4, 8
    2de4:	0013c6                                    	j	2e37 <TxRef_VAD_V2+0xc3>

00002de7 <TxRef_VAD_V2+0x73>:
    2de7:	0f03144004a1e98e                  	{ ae_cvtp24a16x2.ll	aed0, a9, a8; l16ui	a14, a4, 8 }
    2def:	2f0314400ca1fcde                  	{ ae_cvtp24a16x2.ll	aed1, a12, a13; l16ui	a15, a4, 12 }
    2df7:	2a83300030203efe                  	{ ae_cvtp24a16x2.ll	aed2, a14, a15; nop; ae_mulzaad32.hh.ll	aed0, aed1, aed0 }
    2dff:	2a82100a242294ce                  	{ s8i	a12, a4, 25; nop; ae_mulzaad32.hh.ll	aed1, aed1, aed2 }
    2e07:	0ead257b09040cd0c580813a0c01100f 	{ ae_srai64	aed0, aed0, 4; nop; nop; nop }
    2e17:	0e6d217b0d3c0c604600213b0c01660f 	{ ae_trunca32q48	a6, aed0; nop; nop; ae_srai64	aed1, aed1, 4 }
    2e27:	0ead257b0d240cd0c400813b0c01631f 	{ ae_trunca32q48	a3, aed1; nop; nop; nop }
    2e37:	866d                                    	ae_sext16	a6, a6
    2e39:	833d                                    	ae_sext16	a3, a3
    2e3b:	117600                                    	slli	a7, a6, 16
    2e3e:	306650                                    	xor	a6, a6, a5
    2e41:	118300                                    	slli	a8, a3, 16
    2e44:	303350                                    	xor	a3, a3, a5
    2e47:	c06670                                    	sub	a6, a6, a7
    2e4a:	c03380                                    	sub	a3, a3, a8
    2e4d:	2169                                    	s32i.n	a6, a1, 8
    2e4f:	44a8                                    	l32i.n	a10, a4, 16
    2e51:	3139                                    	s32i.n	a3, a1, 12
    2e53:	318b                                    	addi.n	a3, a1, 8
    2e55:	f4d661                                    	l32r	a6, 1b0 (890 <siir_safr>)
    2e58:	02bd                                    	mov.n	a11, a2
    2e5a:	03cd                                    	mov.n	a12, a3
    2e5c:	0006e0                                    	callx8	a6
    2e5f:	059472                                    	l16si	a7, a4, 10
    2e62:	44a9                                    	s32i.n	a10, a4, 16
    2e64:	069482                                    	l16si	a8, a4, 12
    2e67:	02bd                                    	mov.n	a11, a2
    2e69:	54a8                                    	l32i.n	a10, a4, 20
    2e6b:	03cd                                    	mov.n	a12, a3
    2e6d:	119700                                    	slli	a9, a7, 16
    2e70:	307750                                    	xor	a7, a7, a5
    2e73:	30f850                                    	xor	a15, a8, a5
    2e76:	118800                                    	slli	a8, a8, 16
    2e79:	c07790                                    	sub	a7, a7, a9
    2e7c:	c05f80                                    	sub	a5, a15, a8
    2e7f:	2179                                    	s32i.n	a7, a1, 8
    2e81:	3159                                    	s32i.n	a5, a1, 12
    2e83:	0006e0                                    	callx8	a6
    2e86:	4428                                    	l32i.n	a2, a4, 16
    2e88:	243d                                    	ae_l16si.n	a3, a4, 0
    2e8a:	180472                                    	l8ui	a7, a4, 24
    2e8d:	54a9                                    	s32i.n	a10, a4, 20
    2e8f:	0d9452                                    	l16si	a5, a4, 26
    2e92:	346d                                    	ae_l16si.n	a6, a4, 2
    2e94:	223a                                    	add.n	a2, a2, a3
    2e96:	030c                                    	movi.n	a3, 0
    2e98:	07a2a7                                    	bge	a2, a10, 2ea3 <TxRef_VAD_V2+0x12f>
    2e9b:	120c                                    	movi.n	a2, 1
    2e9d:	184422                                    	s8i	a2, a4, 24
    2ea0:	000546                                    	j	2eb9 <TxRef_VAD_V2+0x145>

00002ea3 <TxRef_VAD_V2+0x12f>:
    2ea3:	053d                                    	mov.n	a3, a5
    2ea5:	072d                                    	mov.n	a2, a7
    2ea7:	0c1766                                    	bnei	a7, 1, 2eb7 <TxRef_VAD_V2+0x143>
    2eaa:	09a637                                    	bge	a6, a3, 2eb7 <TxRef_VAD_V2+0x143>
    2ead:	020c                                    	movi.n	a2, 0
    2eaf:	184422                                    	s8i	a2, a4, 24
    2eb2:	0d5422                                    	s16i	a2, a4, 26
    2eb5:	f01d                                    	retw.n

00002eb7 <TxRef_VAD_V2+0x143>:
    2eb7:	331b                                    	addi.n	a3, a3, 1
    2eb9:	0d5432                                    	s16i	a3, a4, 26
    2ebc:	f01d                                    	retw.n

00002ebe <TxRef_VAD_V2+0x14a>:
	...

00002ec0 <PEC_Switch>:
    2ec0:	004136                                    	entry	a1, 32
    2ec3:	436230                                    	min	a6, a2, a3
    2ec6:	740b                                    	addi.n	a7, a4, -1
    2ec8:	535230                                    	max	a5, a2, a3
    2ecb:	836370                                    	moveqz	a6, a3, a7
    2ece:	fec4f2                                    	addi	a15, a4, -2
    2ed1:	8365f0                                    	moveqz	a6, a5, a15
    2ed4:	932640                                    	movnez	a2, a6, a4
    2ed7:	f01d                                    	retw.n

00002ed9 <PEC_Switch+0x19>:
    2ed9:	000000                                        ...

00002edc <mic480_delay>:
    2edc:	004136                                    	entry	a1, 32
    2edf:	f45161                                    	l32r	a6, 24 (a5c4 <xt_memcpy>)
    2ee2:	02ad                                    	mov.n	a10, a2
    2ee4:	04bd                                    	mov.n	a11, a4
    2ee6:	05cd                                    	mov.n	a12, a5
    2ee8:	0006e0                                    	callx8	a6
    2eeb:	e0a1f2                                    	movi	a15, 0x1e0
    2eee:	90a520                                    	addx2	a10, a5, a2
    2ef1:	c0cf50                                    	sub	a12, a15, a5
    2ef4:	03bd                                    	mov.n	a11, a3
    2ef6:	1175f0                                    	slli	a7, a5, 1
    2ef9:	0006e0                                    	callx8	a6
    2efc:	c02370                                    	sub	a2, a3, a7
    2eff:	c0a3f2                                    	movi	a15, 0x3c0
    2f02:	b2fa                                    	add.n	a11, a2, a15
    2f04:	04ad                                    	mov.n	a10, a4
    2f06:	05cd                                    	mov.n	a12, a5
    2f08:	0006e0                                    	callx8	a6
    2f0b:	f01d                                    	retw.n

00002f0d <mic480_delay+0x31>:
    2f0d:	000000                                        ...

00002f10 <Voice_SWB_EC_Init>:
    2f10:	006136                                    	entry	a1, 48
    2f13:	f44381                                    	l32r	a8, 20 (d8e0 <aec_nr_para>)
    2f16:	04bd                                    	mov.n	a11, a4
    2f18:	f44171                                    	l32r	a7, 1c (d8e8 <p_ecnr_mem>)
    2f1b:	06cd                                    	mov.n	a12, a6
    2f1d:	08a8                                    	l32i.n	a10, a8, 0
    2f1f:	0729                                    	s32i.n	a2, a7, 0
    2f21:	f4a421                                    	l32r	a2, 1b4 (62c <ECNR_SWB_PARA_init>)
    2f24:	0002e0                                    	callx8	a2
    2f27:	07b8                                    	l32i.n	a11, a7, 0
    2f29:	f1cb                                    	addi.n	a15, a1, 12
    2f2b:	f44a21                                    	l32r	a2, 54 (1e78 <Voice_EC_Init>)
    2f2e:	2a0c                                    	movi.n	a10, 2
    2f30:	03cd                                    	mov.n	a12, a3
    2f32:	04dd                                    	mov.n	a13, a4
    2f34:	05ed                                    	mov.n	a14, a5
    2f36:	0002e0                                    	callx8	a2
    2f39:	f01d                                    	retw.n

00002f3b <Voice_SWB_EC_Init+0x2b>:
	...

00002f3c <Voice_SWB_EC_Inear_Init>:
    2f3c:	006136                                    	entry	a1, 48
    2f3f:	f43881                                    	l32r	a8, 20 (d8e0 <aec_nr_para>)
    2f42:	04bd                                    	mov.n	a11, a4
    2f44:	f43671                                    	l32r	a7, 1c (d8e8 <p_ecnr_mem>)
    2f47:	06cd                                    	mov.n	a12, a6
    2f49:	08a8                                    	l32i.n	a10, a8, 0
    2f4b:	0729                                    	s32i.n	a2, a7, 0
    2f4d:	f49921                                    	l32r	a2, 1b4 (62c <ECNR_SWB_PARA_init>)
    2f50:	0002e0                                    	callx8	a2
    2f53:	07b8                                    	l32i.n	a11, a7, 0
    2f55:	f1cb                                    	addi.n	a15, a1, 12
    2f57:	f45121                                    	l32r	a2, 9c (2204 <Voice_EC_Inear_Init>)
    2f5a:	2a0c                                    	movi.n	a10, 2
    2f5c:	03cd                                    	mov.n	a12, a3
    2f5e:	04dd                                    	mov.n	a13, a4
    2f60:	05ed                                    	mov.n	a14, a5
    2f62:	0002e0                                    	callx8	a2
    2f65:	f01d                                    	retw.n

00002f67 <Voice_SWB_EC_Inear_Init+0x2b>:
	...

00002f68 <gain_after_ec_ch5>:
    2f68:	008136                                    	entry	a1, 64
    2f6b:	f42c51                                    	l32r	a5, 1c (d8e8 <p_ecnr_mem>)
    2f6e:	daa672                                    	movi	a7, 0x6da
    2f71:	110412c11ce3277e                  	{ addx4	a7, a7, a7; ae_l16x2m.i	aed3, a2, 0 }
    2f79:	0568                                    	l32i.n	a6, a5, 0
    2f7b:	1a0c                                    	movi.n	a10, 1
    2f7d:	2006ea401486976e                  	{ ae_l16m.x	aed2, a6, a7; slli	a10, a10, 15 }
    2f85:	04bd                                    	mov.n	a11, a4
    2f87:	c4bc                                    	beqz.n	a4, 2fc7 <gain_after_ec_ch5+0x5f>
    2f89:	f47061                                    	l32r	a6, 14c (7270 <airoha_divide>)
    2f8c:	220700c010e59b1e                  	{ ae_s64.i	aed2, a1, 16; nop }
    2f94:	220700c018e59f1e                  	{ ae_s64.i	aed3, a1, 24; nop }
    2f9c:	0006e0                                    	callx8	a6
    2f9f:	20070b4008e00b1e                  	{ ae_l64.i	aed1, a1, 16; ae_cvt48a32	aed0, a11 }
    2fa7:	2283130320013f1e                  	{ ae_l64.i	aed3, a1, 24; nop; ae_mulf48q32sp16s.l	aed0, aed0, aed1 }
    2faf:	220700c300a51a0e                  	{ ae_slaaq56	aed0, aed0, a10; nop }
    2fb7:	0ead057b08e40cd0c48081380401e20f 	{ ae_round24x2f48sasym	aed2, aed0, aed0; nop; nop; nop }

00002fc7 <gain_after_ec_ch5+0x5f>:
    2fc7:	fec242                                    	addi	a4, a2, -2
    2fca:	491c                                    	movi.n	a9, 20
    2fcc:	027d                                    	mov.n	a7, a2
    2fce:	460c                                    	movi.n	a6, 4
    2fd0:	048d                                    	mov.n	a8, a4
    2fd2:	230720c318e5747e                  	{ nop; nop }
    2fda:	0020f0                                    	nop
    2fdd:	3f8976                                    	loop	a9, 3020 <gain_after_ec_ch5+0xb8>
    2fe0:	0e1d225b0d3d0c1401ab6d080043c17f 	{ ae_l16x2m.iu	aed3, a7, 4; nop; ae_mulf32s.ll	aed1, aed2, aed3; ae_mulf32s.hh	aed0, aed2, aed3 }
    2ff0:	220700c300a5160e                  	{ ae_slaaq56	aed0, aed0, a6; nop }
    2ff8:	0ead217b09040cf0c38001381c01661f 	{ ae_slaaq56	aed1, aed1, a6; nop; nop; ae_roundsp16q48x2sym	aed0, aed0, aed0 }
    3008:	0ead217b0c4d0cf0c37c21390401018f 	{ ae_s16m.l.iu	aed0, a8, 2; nop; nop; ae_roundsp16q48x2sym	aed31, aed1, aed1 }
    3018:	230740c71cc5118e                  	{ ae_s16m.l.iu	aed31, a8, 2; nop }

00003020 <gain_after_ec_ch5+0xb8>:
    3020:	0578                                    	l32i.n	a7, a5, 0
    3022:	5a1366                                    	bnei	a3, 1, 3080 <gain_after_ec_ch5+0x118>
    3025:	88a0f2                                    	movi	a15, 136
    3028:	461c                                    	movi.n	a6, 20
    302a:	110472c50c616f5e                  	{ addmi	a5, a15, 0x7500; ae_l16x2m.i	aed1, a2, 0 }
    3032:	020462400480957e                  	{ ae_l16m.x	aed0, a7, a5; movi	a3, 2 }
    303a:	0020f0                                    	nop
    303d:	3f8676                                    	loop	a6, 3080 <gain_after_ec_ch5+0x118>
    3040:	0e1d225b0d2d0c0405ab6d180001412f 	{ ae_l16x2m.iu	aed1, a2, 4; nop; ae_mulf32s.ll	aed3, aed0, aed1; ae_mulf32s.hh	aed2, aed0, aed1 }
    3050:	220700c300a5932e                  	{ ae_slaaq56	aed2, aed2, a3; nop }
    3058:	0ead217b09140cf0c38841381c01e33f 	{ ae_slaaq56	aed3, aed3, a3; nop; nop; ae_roundsp16q48x2sym	aed2, aed2, aed2 }
    3068:	0ead217b0c5d0cf0c37c61390401814f 	{ ae_s16m.l.iu	aed2, a4, 2; nop; nop; ae_roundsp16q48x2sym	aed31, aed3, aed3 }
    3078:	230740c71cc5114e                  	{ ae_s16m.l.iu	aed31, a4, 2; nop }

00003080 <gain_after_ec_ch5+0x118>:
    3080:	f01d                                    	retw.n

00003082 <gain_after_ec_ch5+0x11a>:
	...

00003084 <hb_buf_delay>:
    3084:	004136                                    	entry	a1, 32
    3087:	f3e771                                    	l32r	a7, 24 (a5c4 <xt_memcpy>)
    308a:	06ad                                    	mov.n	a10, a6
    308c:	04bd                                    	mov.n	a11, a4
    308e:	03cd                                    	mov.n	a12, a3
    3090:	0007e0                                    	callx8	a7
    3093:	c05530                                    	sub	a5, a5, a3
    3096:	90b340                                    	addx2	a11, a3, a4
    3099:	04ad                                    	mov.n	a10, a4
    309b:	05cd                                    	mov.n	a12, a5
    309d:	0007e0                                    	callx8	a7
    30a0:	90a540                                    	addx2	a10, a5, a4
    30a3:	02bd                                    	mov.n	a11, a2
    30a5:	03cd                                    	mov.n	a12, a3
    30a7:	0007e0                                    	callx8	a7
    30aa:	02ad                                    	mov.n	a10, a2
    30ac:	06bd                                    	mov.n	a11, a6
    30ae:	03cd                                    	mov.n	a12, a3
    30b0:	0007e0                                    	callx8	a7
    30b3:	f01d                                    	retw.n

000030b5 <hb_buf_delay+0x31>:
    30b5:	000000                                        ...

000030b8 <downsample_by4>:
    30b8:	004136                                    	entry	a1, 32
    30bb:	20a440                                    	or	a10, a4, a4
    30be:	4426a6                                    	blti	a6, 2, 3106 <downsample_by4+0x4e>
    30c1:	f8c472                                    	addi	a7, a4, -8
    30c4:	218160                                    	srai	a8, a6, 1
    30c7:	fcc222                                    	addi	a2, a2, -4
    30ca:	08c772                                    	addi	a7, a7, 8
    30cd:	0f8876                                    	loop	a8, 30e0 <downsample_by4+0x28>
    30d0:	220760c00485d12e                  	{ ae_l16x2m.iu	aed0, a2, 4; nop }
    30d8:	220700c004e5997e                  	{ ae_s32x2f24.ip	aed0, a7, 8; nop }

000030e0 <downsample_by4+0x28>:
    30e0:	f436c1                                    	l32r	a12, 1b8 (c540 <hpf_band5_coef>)
    30e3:	04ad                                    	mov.n	a10, a4
    30e5:	f43521                                    	l32r	a2, 1bc (2900 <biquad_2cascade_24bitTxB>)
    30e8:	05bd                                    	mov.n	a11, a5
    30ea:	03dd                                    	mov.n	a13, a3
    30ec:	06ed                                    	mov.n	a14, a6
    30ee:	0002e0                                    	callx8	a2
    30f1:	214260                                    	srai	a4, a6, 2
    30f4:	0c46a6                                    	blti	a6, 4, 3104 <downsample_by4+0x4c>
    30f7:	032d                                    	mov.n	a2, a3
    30f9:	078476                                    	loop	a4, 3104 <downsample_by4+0x4c>
    30fc:	234d                                    	ae_l16si.n	a4, a3, 0
    30fe:	338b                                    	addi.n	a3, a3, 8
    3100:	624d                                    	ae_s16i.n	a4, a2, 0
    3102:	222b                                    	addi.n	a2, a2, 2

00003104 <downsample_by4+0x4c>:
    3104:	f01d                                    	retw.n

00003106 <downsample_by4+0x4e>:
    3106:	f42cc1                                    	l32r	a12, 1b8 (c540 <hpf_band5_coef>)
    3109:	05bd                                    	mov.n	a11, a5
    310b:	f42c21                                    	l32r	a2, 1bc (2900 <biquad_2cascade_24bitTxB>)
    310e:	03dd                                    	mov.n	a13, a3
    3110:	06ed                                    	mov.n	a14, a6
    3112:	0002e0                                    	callx8	a2
    3115:	f01d                                    	retw.n

00003117 <downsample_by4+0x5f>:
	...

00003118 <conv_16_to_24_x2>:
    3118:	004136                                    	entry	a1, 32
    311b:	f8c332                                    	addi	a3, a3, -8
    311e:	1e14a6                                    	blti	a4, 1, 3140 <conv_16_to_24_x2+0x28>
    3121:	fcc222                                    	addi	a2, a2, -4
    3124:	338b                                    	addi.n	a3, a3, 8
    3126:	0020f0                                    	nop
    3129:	f03d                                    	nop.n
    312b:	f03d                                    	nop.n
    312d:	0f8476                                    	loop	a4, 3140 <conv_16_to_24_x2+0x28>
    3130:	220760c00485d12e                  	{ ae_l16x2m.iu	aed0, a2, 4; nop }
    3138:	220700c004e5993e                  	{ ae_s32x2f24.ip	aed0, a3, 8; nop }

00003140 <conv_16_to_24_x2+0x28>:
    3140:	f01d                                    	retw.n

00003142 <conv_16_to_24_x2+0x2a>:
	...

00003144 <Voice_EC_Prcs_common>:
    3144:	01c136                                    	entry	a1, 224
    3147:	f3f581                                    	l32r	a8, 11c (a5b0 <xt_memset>)
    314a:	10c1a2                                    	addi	a10, a1, 16
    314d:	0b0c                                    	movi.n	a11, 0
    314f:	2c5c                                    	movi.n	a12, 82
    3151:	2d6162                                    	s32i	a6, a1, 180
    3154:	060c                                    	movi.n	a6, 0
    3156:	2f6152                                    	s32i	a5, a1, 188
    3159:	0008e0                                    	callx8	a8
    315c:	f3b091                                    	l32r	a9, 1c (d8e8 <p_ecnr_mem>)
    315f:	62b640                                    	saltu	a11, a6, a4
    3162:	1fa3c2                                    	movi	a12, 0x31f
    3165:	2941b2                                    	s8i	a11, a1, 41
    3168:	01a382                                    	movi	a8, 0x301
    316b:	284162                                    	s8i	a6, a1, 40
    316e:	09a8                                    	l32i.n	a10, a9, 0
    3170:	09ed                                    	mov.n	a14, a9
    3172:	119cc0                                    	slli	a9, a12, 4
    3175:	1c0c                                    	movi.n	a12, 1
    3177:	1188c0                                    	slli	a8, a8, 4
    317a:	22dad2                                    	addmi	a13, a10, 0x2200
    317d:	9a9a                                    	add.n	a9, a10, a9
    317f:	261db2                                    	l16ui	a11, a13, 76
    3182:	44dad2                                    	addmi	a13, a10, 0x4400
    3185:	1c6192                                    	s32i	a9, a1, 112
    3188:	511d92                                    	l16ui	a9, a13, 162
    318b:	8a8a                                    	add.n	a8, a10, a8
    318d:	2f21d2                                    	l32i	a13, a1, 188
    3190:	fecbf2                                    	addi	a15, a11, -2
    3193:	1b6182                                    	s32i	a8, a1, 108
    3196:	93bcf0                                    	movnez	a11, a12, a15
    3199:	1d6182                                    	s32i	a8, a1, 116
    319c:	83bc30                                    	moveqz	a11, a12, a3
    319f:	2d2152                                    	l32i	a5, a1, 180
    31a2:	1551b2                                    	s16i	a11, a1, 42
    31a5:	42dab2                                    	addmi	a11, a10, 0x4200
    31a8:	382182                                    	l32i	a8, a1, 224
    31ab:	0d2916                                    	beqz	a9, 3281 <Voice_EC_Prcs_common+0x13d>
    31ae:	2e6172                                    	s32i	a7, a1, 184
    31b1:	3edaf2                                    	addmi	a15, a10, 0x3e00
    31b4:	296172                                    	s32i	a7, a1, 164
    31b7:	42da72                                    	addmi	a7, a10, 0x4200
    31ba:	216122                                    	s32i	a2, a1, 132
    31bd:	226132                                    	s32i	a3, a1, 136
    31c0:	2461d2                                    	s32i	a13, a1, 144
    31c3:	286152                                    	s32i	a5, a1, 160
    31c6:	236142                                    	s32i	a4, a1, 140
    31c9:	e769                                    	s32i.n	a6, a7, 56
    31cb:	f769                                    	s32i.n	a6, a7, 60
    31cd:	0e7d                                    	mov.n	a7, a14
    31cf:	0dcd                                    	mov.n	a12, a13
    31d1:	1e6b62                                    	s32i	a6, a11, 120
    31d4:	2e6b62                                    	s32i	a6, a11, 184
    31d7:	3e6b62                                    	s32i	a6, a11, 248
    31da:	0c3d                                    	mov.n	a3, a12
    31dc:	1f6b62                                    	s32i	a6, a11, 124
    31df:	2f6b62                                    	s32i	a6, a11, 188
    31e2:	3f6b62                                    	s32i	a6, a11, 252
    31e5:	10c1b2                                    	addi	a11, a1, 16
    31e8:	745f62                                    	s16i	a6, a15, 232
    31eb:	2a6182                                    	s32i	a8, a1, 168
    31ee:	b48c                                    	beqz.n	a4, 31fd <Voice_EC_Prcs_common+0xb9>
    31f0:	f3f421                                    	l32r	a2, 1c0 (32a4 <Inear_pre_commom>)
    31f3:	f0a0c2                                    	movi	a12, 240
    31f6:	0002e0                                    	callx8	a2
    31f9:	03cd                                    	mov.n	a12, a3
    31fb:	07a8                                    	l32i.n	a10, a7, 0

000031fd <Voice_EC_Prcs_common+0xb9>:
    31fd:	f3f131                                    	l32r	a3, 1c4 (3498 <VAD_commom>)
    3200:	10c122                                    	addi	a2, a1, 16
    3203:	02bd                                    	mov.n	a11, a2
    3205:	0c5d                                    	mov.n	a5, a12
    3207:	0003e0                                    	callx8	a3
    320a:	0738                                    	l32i.n	a3, a7, 0
    320c:	445c                                    	movi.n	a4, 84
    320e:	20d442                                    	addmi	a4, a4, 0x2000
    3211:	1d21a2                                    	l32i	a10, a1, 116
    3214:	05bd                                    	mov.n	a11, a5
    3216:	70d362                                    	addmi	a6, a3, 0x7000
    3219:	c34a                                    	add.n	a12, a3, a4
    321b:	5316d2                                    	l16ui	a13, a6, 166
    321e:	f3ea31                                    	l32r	a3, 1c8 (23b4 <mic240_delay>)
    3221:	0003e0                                    	callx8	a3
    3224:	1d2132                                    	l32i	a3, a1, 116
    3227:	07a8                                    	l32i.n	a10, a7, 0
    3229:	246132                                    	s32i	a3, a1, 144
    322c:	02bd                                    	mov.n	a11, a2
    322e:	f3e731                                    	l32r	a3, 1cc (3540 <EC_block_common>)
    3231:	0003e0                                    	callx8	a3
    3234:	07a8                                    	l32i.n	a10, a7, 0
    3236:	02bd                                    	mov.n	a11, a2
    3238:	f3e631                                    	l32r	a3, 1d0 (49c4 <sum_commom>)
    323b:	0003e0                                    	callx8	a3
    323e:	07a8                                    	l32i.n	a10, a7, 0
    3240:	22da22                                    	addmi	a2, a10, 0x2200
    3243:	05a232                                    	movi	a3, 0x205
    3246:	550222                                    	l8ui	a2, a2, 85
    3249:	09a442                                    	movi	a4, 0x409
    324c:	1163c0                                    	slli	a6, a3, 4
    324f:	1144d0                                    	slli	a4, a4, 3
    3252:	1d6207                                    	bbci	a2, 0, 3273 <Voice_EC_Prcs_common+0x12f>
    3255:	2e2152                                    	l32i	a5, a1, 184
    3258:	f3df21                                    	l32r	a2, 1d4 (5dc4 <NC_NOISE_EST_Prcs>)
    325b:	05bd                                    	mov.n	a11, a5
    325d:	0002e0                                    	callx8	a2
    3260:	0728                                    	l32i.n	a2, a7, 0
    3262:	f0a0d2                                    	movi	a13, 240
    3265:	b26a                                    	add.n	a11, a2, a6
    3267:	c24a                                    	add.n	a12, a2, a4
    3269:	f3db21                                    	l32r	a2, 1d8 (269c <deemph_filter_N>)
    326c:	05ad                                    	mov.n	a10, a5
    326e:	0002e0                                    	callx8	a2
    3271:	07a8                                    	l32i.n	a10, a7, 0
    3273:	f3da21                                    	l32r	a2, 1dc (4d78 <avc_commom>)
    3276:	10c1b2                                    	addi	a11, a1, 16
    3279:	2d21c2                                    	l32i	a12, a1, 180
    327c:	0002e0                                    	callx8	a2
    327f:	f01d                                    	retw.n

00003281 <Voice_EC_Prcs_common+0x13d>:
    3281:	f36841                                    	l32r	a4, 24 (a5c4 <xt_memcpy>)
    3284:	f0a0c2                                    	movi	a12, 240
    3287:	2d21a2                                    	l32i	a10, a1, 180
    328a:	02bd                                    	mov.n	a11, a2
    328c:	0004e0                                    	callx8	a4
    328f:	151122                                    	l16ui	a2, a1, 42
    3292:	092266                                    	bnei	a2, 2, 329f <Voice_EC_Prcs_common+0x15b>
    3295:	f0a0c2                                    	movi	a12, 240
    3298:	07ad                                    	mov.n	a10, a7
    329a:	03bd                                    	mov.n	a11, a3
    329c:	0004e0                                    	callx8	a4
    329f:	f01d                                    	retw.n

000032a1 <Voice_EC_Prcs_common+0x15d>:
    32a1:	000000                                        ...

000032a4 <Inear_pre_commom>:
    32a4:	008136                                    	entry	a1, 64
    32a7:	75d2f2                                    	addmi	a15, a2, 0x7500
    32aa:	025d                                    	mov.n	a5, a2
    32ac:	242f22                                    	l32i	a2, a15, 144
    32af:	060c                                    	movi.n	a6, 0
    32b1:	1f23a2                                    	l32i	a10, a3, 124
    32b4:	20c440                                    	or	a12, a4, a4
    32b7:	02d272                                    	addmi	a7, a2, 0x200
    32ba:	446262                                    	s32i	a6, a2, 0x110
    32bd:	546262                                    	s32i	a6, a2, 0x150
    32c0:	5f97b2                                    	l16si	a11, a7, 190
    32c3:	646262                                    	s32i	a6, a2, 0x190
    32c6:	746262                                    	s32i	a6, a2, 0x1d0
    32c9:	456262                                    	s32i	a6, a2, 0x114
    32cc:	556262                                    	s32i	a6, a2, 0x154
    32cf:	656262                                    	s32i	a6, a2, 0x194
    32d2:	756262                                    	s32i	a6, a2, 0x1d4
    32d5:	f3c261                                    	l32r	a6, 1e0 (572c <vector_gain_Q9_15>)
    32d8:	0006e0                                    	callx8	a6
    32db:	1f23d2                                    	l32i	a13, a3, 124
    32de:	216140                                    	srai	a6, a4, 1
    32e1:	f8c592                                    	addi	a9, a5, -8
    32e4:	1824a6                                    	blti	a4, 2, 3300 <Inear_pre_commom+0x5c>
    32e7:	fccd82                                    	addi	a8, a13, -4
    32ea:	08c992                                    	addi	a9, a9, 8
    32ed:	0f8676                                    	loop	a6, 3300 <Inear_pre_commom+0x5c>
    32f0:	220760c00485d18e                  	{ ae_l16x2m.iu	aed0, a8, 4; nop }
    32f8:	220700c004e5999e                  	{ ae_s32x2f24.ip	aed0, a9, 8; nop }

00003300 <Inear_pre_commom+0x5c>:
    3300:	f3af81                                    	l32r	a8, 1bc (2900 <biquad_2cascade_24bitTxB>)
    3303:	70c2c2                                    	addi	a12, a2, 112
    3306:	05ad                                    	mov.n	a10, a5
    3308:	02bd                                    	mov.n	a11, a2
    330a:	04ed                                    	mov.n	a14, a4
    330c:	0008e0                                    	callx8	a8
    330f:	180382                                    	l8ui	a8, a3, 24
    3312:	0c0c                                    	movi.n	a12, 0
    3314:	05a2a2                                    	movi	a10, 0x205
