
Build/lib/pisplit_ec_rxnr_swb_position_independent.splitload.lib:     file format elf32-xtensa-le


Disassembly of section .text:

00000000 <_init-0x380>:
       0:	000003d0 0000a58c 0000b21c 00000000     ................
      10:	0000b1e4 00000000 0000b204 0000d8e8     ................
      20:	0000d8e0 0000a5c4 0000c7a0 0000c9c0     ................
      30:	0000c8b0 0000cad0 000007b4 0000b5d0     ................
      40:	0000b640 0000d8e4 0000b298 00001de8     @...............
      50:	0000b2b1 00001e78 0000b2c5 00005418     ....x........T..
      60:	0000b2d9 00005228 0000b2f1 000055d0     ....(R.......U..
      70:	0000b30c 00005cac 0000b320 00005488     .....\.. ....T..
      80:	0000b337 00005a14 0000b34b 000054f0     7....Z..K....T..
      90:	0000b362 00001df4 0000b381 00002204     b............"..
      a0:	0000b39b 00005434 0000b3b5 00005628     ....4T......(V..
      b0:	0000b3d6 00001de0 0000b3e9 00005650     ............PV..
      c0:	0000b407 000056c0 0000b429 00002f10     .....V..)..../..
      d0:	0000b441 00005450 0000b459 00002f3c     A...PT..Y...</..
      e0:	0000b477 0000546c 0000b495 000053cc     w...lT.......S..
      f0:	0000b4b1 00005fe8 0000b4c6 00005560     ....._......`U..
     100:	0000b4de 000056d0 0000b4ff 000056a0     .....V.......V..
     110:	0000b520 00005708 0000b230 0000a5b0      ....W..0.......
     120:	00300040 00200018 00c00100 00600040     @.0... .....@.`.
     130:	00155555 0000101c 00001000 000010a4     UU..............
     140:	002aaa00 0000b540 00007324 00007270     ..*.@...$s..pr..
     150:	000010b4 00001894 000019bc 00001194     ................
     160:	000012dc 000013ec 01507ca0 00000424     .........|P.$...
     170:	00001e28 00000a18 00005d80 00007e40     (........]..@~..
     180:	00005da4 0000dfff 00000e74 7fff0000     .]......t.......
     190:	000023e8 0000cc60 000024c0 0000255c     .#..`....$..\%..
     1a0:	0000cbe0 0000b770 0000b7f0 00000824     ....p.......$...
     1b0:	00000890 0000062c 0000c540 00002900     ....,...@....)..
     1c0:	000032a4 00003498 000023b4 00003540     .2...4...#..@5..
     1d0:	000049c4 00005dc4 0000269c 00004d78     .I...]...&..xM..
     1e0:	0000572c 0000260c 0000c500 7f800080     ,W...&..........
     1f0:	78000800 00017fff 7c000400 00002d74     ...x.......|t-..
     200:	000014f8 00002f68 0000272c 00001a10     ....h/..,'......
     210:	00002a1c 00008724 000030b8 000082e4     .*..$....0......
     220:	00008b30 00008924 000091b8 00002d0c     0...$........-..
     230:	00009404 0000980c 00009a44 00002844     ........D...D(..
     240:	00003084 0006ffff 00008fb8 00001d54     .0..........T...
     250:	00001d98 00002edc 0000523c 0000a394     ........<R......
     260:	0000a10c 4ec4ec4f 00003144 00005070     ....O..ND1..pP..
     270:	00005cec 00005a5c 0000603c 00009ef8     .\..\Z..<`......
     280:	00009ee4 00009ec0 0000c580 ffe9ffe9     ................
     290:	0000c0c0 0000b910 00009f7c 00000524     ........|...$...
     2a0:	000057b4 00005aac 000061a4 000063a4     .W...Z...a...c..
     2b0:	0000658c 0000680c 000069b4 00006ae4     .e...h...i...j..
     2c0:	00007070 0000bb30 00005af0 00005d3c     pp..0....Z..<]..
     2d0:	000060f8 035e5100 0000cc80 0000755c     .`...Q^.....\u..
     2e0:	00006134 0000b8d0 0000b900 0000bc60     4a..........`...
     2f0:	0000b5b0 00006090 12492500 0000b8f0     .....`...%I.....
     300:	0ccccd00 0000bc40 0e38e400 0000b8b0     ....@.....8.....
     310:	80000001 0000d480 00007a80 00007ad0     .........z...z..
     320:	00007aa8 00007360 00007a58 00007c60     .z..`s..Xz..`|..
     330:	00007af8 00007bf0 00007c88 5a820000     .z...{...|.....Z
     340:	0e390000 0d330000 0ccccc00 00393e4b     ..9...3.....K>9.
     350:	15555500 00175e97 00007cc0 00008280     .UU..^...|......
     360:	c0010000 3fff0000 0000d880 0000d8a0     .......?........
     370:	000006b0 0000a200 0000b1ec 00000398     ................

00000380 <_init>:
     380:	008136                                    	entry	a1, 64
     383:	ff1f81                                    	l32r	a8, 0 (3d0 <frame_dummy>)
     386:	f03d                                    	nop.n
     388:	0008e0                                    	callx8	a8
     38b:	ff1e81                                    	l32r	a8, 4 (a58c <__do_global_ctors_aux>)
     38e:	f03d                                    	nop.n
     390:	0008e0                                    	callx8	a8
     393:	f01d                                    	retw.n

00000395 <_init+0x15>:
     395:	000000                                        ...

00000398 <__do_global_dtors_aux>:
     398:	004136                                    	entry	a1, 32
     39b:	ff1b21                                    	l32r	a2, 8 (b21c <__do_global_dtors_aux.completed>)
     39e:	000232                                    	l8ui	a3, a2, 0
     3a1:	63ec                                    	bnez.n	a3, 3cb <__do_global_dtors_aux+0x33>

000003a3 <__do_global_dtors_aux+0xb>:
     3a3:	1248                                    	l32i.n	a4, a2, 4
     3a5:	0438                                    	l32i.n	a3, a4, 0
     3a7:	04028424000163ae                  	{ beqz.w15	a3, 3b8 <__do_global_dtors_aux+0x20>; addi	a4, a4, 4 }
     3af:	1249                                    	s32i.n	a4, a2, 4
     3b1:	0003e0                                    	callx8	a3
     3b4:	fffac6                                    	j	3a3 <__do_global_dtors_aux+0xb>

000003b7 <__do_global_dtors_aux+0x1f>:
	...

000003b8 <__do_global_dtors_aux+0x20>:
     3b8:	ff1531                                    	l32r	a3, c (0 <_text_start>)
     3bb:	ff15a1                                    	l32r	a10, 10 (b1e4 <__FRAME_END__>)
     3be:	438c                                    	beqz.n	a3, 3c6 <__do_global_dtors_aux+0x2e>
     3c0:	ff1381                                    	l32r	a8, c (0 <_text_start>)
     3c3:	0008e0                                    	callx8	a8
     3c6:	130c                                    	movi.n	a3, 1
     3c8:	004232                                    	s8i	a3, a2, 0
     3cb:	f01d                                    	retw.n

000003cd <__do_global_dtors_aux+0x35>:
     3cd:	000000                                        ...

000003d0 <frame_dummy>:
     3d0:	004136                                    	entry	a1, 32
     3d3:	ff1021                                    	l32r	a2, 14 (0 <_text_start>)
     3d6:	ff0ea1                                    	l32r	a10, 10 (b1e4 <__FRAME_END__>)
     3d9:	ff0fb1                                    	l32r	a11, 18 (b204 <frame_dummy.object>)
     3dc:	428c                                    	beqz.n	a2, 3e4 <frame_dummy+0x14>
     3de:	ff0d81                                    	l32r	a8, 14 (0 <_text_start>)
     3e1:	0008e0                                    	callx8	a8

000003e4 <frame_dummy+0x14>:
     3e4:	f01d                                    	retw.n

000003e6 <frame_dummy+0x16>:
	...

000003f0 <SWB_EQ_apply>:
     3f0:	004136                                    	entry	a1, 32
     3f3:	00a142                                    	movi	a4, 0x100
     3f6:	fec332                                    	addi	a3, a3, -2
     3f9:	078476                                    	loop	a4, 404 <SWB_EQ_apply+0x14>
     3fc:	334d                                    	ae_l16si.n	a4, a3, 2
     3fe:	332b                                    	addi.n	a3, a3, 2
     400:	624d                                    	ae_s16i.n	a4, a2, 0
     402:	222b                                    	addi.n	a2, a2, 2

00000404 <SWB_EQ_apply+0x14>:
     404:	80a042                                    	movi	a4, 128
     407:	148476                                    	loop	a4, 41f <SWB_EQ_apply+0x2f>
     40a:	434d                                    	ae_l16ui.n	a4, a3, 0
     40c:	535d                                    	ae_l16ui.n	a5, a3, 2
     40e:	445a                                    	add.n	a4, a4, a5
     410:	441b                                    	addi.n	a4, a4, 1
     412:	414140                                    	srli	a4, a4, 1
     415:	624d                                    	ae_s16i.n	a4, a2, 0
     417:	334d                                    	ae_l16si.n	a4, a3, 2
     419:	332b                                    	addi.n	a3, a3, 2
     41b:	724d                                    	ae_s16i.n	a4, a2, 2
     41d:	224b                                    	addi.n	a2, a2, 4
     41f:	f01d                                    	retw.n

00000421 <SWB_EQ_apply+0x31>:
     421:	000000                                        ...

00000424 <TX_ECNR_PARA_init>:
     424:	006136                                    	entry	a1, 48
     427:	3129                                    	s32i.n	a2, a1, 12
     429:	0c3c                                    	movi.n	a12, 48
     42b:	fefc21                                    	l32r	a2, 1c (d8e8 <p_ecnr_mem>)
     42e:	03bd                                    	mov.n	a11, a3
     430:	fefc71                                    	l32r	a7, 20 (d8e0 <aec_nr_para>)
     433:	0268                                    	l32i.n	a6, a2, 0
     435:	0769                                    	s32i.n	a6, a7, 0
     437:	a68b                                    	addi.n	a10, a6, 8
     439:	fefa61                                    	l32r	a6, 24 (a5c4 <xt_memcpy>)
     43c:	0006e0                                    	callx8	a6
     43f:	0738                                    	l32i.n	a3, a7, 0
     441:	88a182                                    	movi	a8, 0x188
     444:	a1a0c2                                    	movi	a12, 161
     447:	05bd                                    	mov.n	a11, a5
     449:	a38a                                    	add.n	a10, a3, a8
     44b:	0006e0                                    	callx8	a6
     44e:	0738                                    	l32i.n	a3, a7, 0
     450:	90a0c2                                    	movi	a12, 144
     453:	04bd                                    	mov.n	a11, a4
     455:	050c                                    	movi.n	a5, 0
     457:	68c3a2                                    	addi	a10, a3, 104
     45a:	0006e0                                    	callx8	a6
     45d:	0248                                    	l32i.n	a4, a2, 0
     45f:	580c                                    	movi.n	a8, 5
     461:	0349                                    	s32i.n	a4, a3, 0
     463:	cc7c                                    	movi.n	a12, -4
     465:	0738                                    	l32i.n	a3, a7, 0
     467:	0248                                    	l32i.n	a4, a2, 0
     469:	feefe1                                    	l32r	a14, 28 (c7a0 <HPF_4K_COEF>)
     46c:	f4c0c0                                    	extui	a12, a12, 0, 16
     46f:	cca2f2                                    	movi	a15, 0x2cc
     472:	3128                                    	l32i.n	a2, a1, 12
     474:	69c3a2                                    	addi	a10, a3, 105
     477:	22d442                                    	addmi	a4, a4, 0x2200
     47a:	ff0aa2                                    	l8ui	a10, a10, 255
     47d:	1e93b2                                    	l16si	a11, a3, 60
     480:	049392                                    	l16si	a9, a3, 8
     483:	2b54b2                                    	s16i	a11, a4, 86
     486:	1313b2                                    	l16ui	a11, a3, 38
     489:	2a5492                                    	s16i	a9, a4, 84
     48c:	90daa0                                    	addx2	a13, a10, a10
     48f:	6288a0                                    	saltu	a8, a8, a10
     492:	e09da0                                    	subx4	a9, a13, a10
     495:	835980                                    	moveqz	a5, a9, a8
     498:	104bc0                                    	and	a4, a11, a12
     49b:	a3fa                                    	add.n	a10, a3, a15
     49d:	a0b5e0                                    	addx4	a11, a5, a14
     4a0:	6c1c                                    	movi.n	a12, 22
     4a2:	135342                                    	s16i	a4, a3, 38
     4a5:	0006e0                                    	callx8	a6
     4a8:	fee141                                    	l32r	a4, 2c (c9c0 <HPF_16K_COEF>)
     4ab:	50a382                                    	movi	a8, 0x350
     4ae:	0738                                    	l32i.n	a3, a7, 0
     4b0:	6c1c                                    	movi.n	a12, 22
     4b2:	a0b540                                    	addx4	a11, a5, a4
     4b5:	074d                                    	mov.n	a4, a7
     4b7:	a38a                                    	add.n	a10, a3, a8
     4b9:	10a452                                    	movi	a5, 0x410
     4bc:	0006e0                                    	callx8	a6
     4bf:	062266                                    	bnei	a2, 2, 4c9 <TX_ECNR_PARA_init+0xa5>
     4c2:	0738                                    	l32i.n	a3, a7, 0
     4c4:	235a                                    	add.n	a2, a3, a5
     4c6:	000446                                    	j	4db <TX_ECNR_PARA_init+0xb7>

000004c9 <TX_ECNR_PARA_init+0xa5>:
     4c9:	0738                                    	l32i.n	a3, a7, 0
     4cb:	051266                                    	bnei	a2, 1, 4d4 <TX_ECNR_PARA_init+0xb0>
     4ce:	2ca122                                    	movi	a2, 0x12c
     4d1:	000086                                    	j	4d7 <TX_ECNR_PARA_init+0xb3>

000004d4 <TX_ECNR_PARA_init+0xb0>:
     4d4:	2aa122                                    	movi	a2, 0x12a

000004d7 <TX_ECNR_PARA_init+0xb3>:
     4d7:	232a                                    	add.n	a2, a3, a2
     4d9:	047d                                    	mov.n	a7, a4
     4db:	fed061                                    	l32r	a6, 1c (d8e8 <p_ecnr_mem>)
     4de:	454c                                    	movi.n	a5, 68
     4e0:	222d                                    	ae_l16si.n	a2, a2, 0
     4e2:	50a1f2                                    	movi	a15, 0x150
     4e5:	025322                                    	s16i	a2, a3, 4
     4e8:	22d552                                    	addmi	a5, a5, 0x2200
     4eb:	0648                                    	l32i.n	a4, a6, 0
     4ed:	b3fa                                    	add.n	a11, a3, a15
     4ef:	fecd21                                    	l32r	a2, 24 (a5c4 <xt_memcpy>)
     4f2:	4c0c                                    	movi.n	a12, 4
     4f4:	a45a                                    	add.n	a10, a4, a5
     4f6:	0002e0                                    	callx8	a2
     4f9:	0738                                    	l32i.n	a3, a7, 0
     4fb:	0648                                    	l32i.n	a4, a6, 0
     4fd:	04d3e2                                    	addmi	a14, a3, 0x400
     500:	231322                                    	l16ui	a2, a3, 70
     503:	0d1e52                                    	l16ui	a5, a14, 26
     506:	70d462                                    	addmi	a6, a4, 0x7000
     509:	0e9ef2                                    	l16si	a15, a14, 28
     50c:	75d432                                    	addmi	a3, a4, 0x7500
     50f:	535622                                    	s16i	a2, a6, 166
     512:	1122f0                                    	slli	a2, a2, 1
     515:	4553f2                                    	s16i	a15, a3, 138
     518:	058c                                    	beqz.n	a5, 51c <TX_ECNR_PARA_init+0xf8>
     51a:	f01d                                    	retw.n

0000051c <TX_ECNR_PARA_init+0xf8>:
     51c:	455322                                    	s16i	a2, a3, 138
     51f:	f01d                                    	retw.n

00000521 <TX_ECNR_PARA_init+0xfd>:
     521:	000000                                        ...

00000524 <RX_ECNR_PARA_init>:
     524:	006136                                    	entry	a1, 48
     527:	febd71                                    	l32r	a7, 1c (d8e8 <p_ecnr_mem>)
     52a:	90a0c2                                    	movi	a12, 144
     52d:	3129                                    	s32i.n	a2, a1, 12
     52f:	03bd                                    	mov.n	a11, a3
     531:	febb21                                    	l32r	a2, 20 (d8e0 <aec_nr_para>)
     534:	0758                                    	l32i.n	a5, a7, 0
     536:	febb61                                    	l32r	a6, 24 (a5c4 <xt_memcpy>)
     539:	0259                                    	s32i.n	a5, a2, 0
     53b:	68c5a2                                    	addi	a10, a5, 104
     53e:	0006e0                                    	callx8	a6
     541:	0738                                    	l32i.n	a3, a7, 0
     543:	ffa592                                    	movi	a9, 0x5ff
     546:	0539                                    	s32i.n	a3, a5, 0
     548:	070c                                    	movi.n	a7, 0
     54a:	0238                                    	l32i.n	a3, a2, 0
     54c:	f8a2f2                                    	movi	a15, 0x2f8
     54f:	feb781                                    	l32r	a8, 2c (c9c0 <HPF_16K_COEF>)
     552:	6c1c                                    	movi.n	a12, 22
     554:	b413d2                                    	l16ui	a13, a3, 0x168
     557:	41a8d0                                    	srli	a10, a13, 8
     55a:	6259d0                                    	saltu	a5, a9, a13
     55d:	90eaa0                                    	addx2	a14, a10, a10
     560:	e09ea0                                    	subx4	a9, a14, a10
     563:	a3fa                                    	add.n	a10, a3, a15
     565:	837950                                    	moveqz	a7, a9, a5
     568:	a0b780                                    	addx4	a11, a7, a8
     56b:	0006e0                                    	callx8	a6
     56e:	0238                                    	l32i.n	a3, a2, 0
     570:	24a382                                    	movi	a8, 0x324
     573:	feaf51                                    	l32r	a5, 30 (c8b0 <HPF_8K_COEF>)
     576:	6c1c                                    	movi.n	a12, 22
     578:	3128                                    	l32i.n	a2, a1, 12
     57a:	a38a                                    	add.n	a10, a3, a8
     57c:	1ea432                                    	movi	a3, 0x41e
     57f:	a0b750                                    	addx4	a11, a7, a5
     582:	065d                                    	mov.n	a5, a6
     584:	0006e0                                    	callx8	a6
     587:	92bc                                    	beqz.n	a2, 5c4 <RX_ECNR_PARA_init+0xa0>
     589:	b42b                                    	addi.n	a11, a4, 2
     58b:	4c2266                                    	bnei	a2, 2, 5db <RX_ECNR_PARA_init+0xb7>
     58e:	fea421                                    	l32r	a2, 20 (d8e0 <aec_nr_para>)
     591:	1ea432                                    	movi	a3, 0x41e
     594:	00a152                                    	movi	a5, 0x100
     597:	0228                                    	l32i.n	a2, a2, 0
     599:	323a                                    	add.n	a3, a2, a3
     59b:	078576                                    	loop	a5, 5a6 <RX_ECNR_PARA_init+0x82>
     59e:	345d                                    	ae_l16si.n	a5, a4, 2
     5a0:	442b                                    	addi.n	a4, a4, 2
     5a2:	635d                                    	ae_s16i.n	a5, a3, 0
     5a4:	332b                                    	addi.n	a3, a3, 2

000005a6 <RX_ECNR_PARA_init+0x82>:
     5a6:	80a052                                    	movi	a5, 128
     5a9:	148576                                    	loop	a5, 5c1 <RX_ECNR_PARA_init+0x9d>
     5ac:	445d                                    	ae_l16ui.n	a5, a4, 0
     5ae:	546d                                    	ae_l16ui.n	a6, a4, 2
     5b0:	556a                                    	add.n	a5, a5, a6
     5b2:	551b                                    	addi.n	a5, a5, 1
     5b4:	415150                                    	srli	a5, a5, 1
     5b7:	635d                                    	ae_s16i.n	a5, a3, 0
     5b9:	345d                                    	ae_l16si.n	a5, a4, 2
     5bb:	442b                                    	addi.n	a4, a4, 2
     5bd:	735d                                    	ae_s16i.n	a5, a3, 2
     5bf:	334b                                    	addi.n	a3, a3, 4
     5c1:	000e46                                    	j	5fe <RX_ECNR_PARA_init+0xda>

000005c4 <RX_ECNR_PARA_init+0xa0>:
     5c4:	fe9761                                    	l32r	a6, 20 (d8e0 <aec_nr_para>)
     5c7:	1ea432                                    	movi	a3, 0x41e
     5ca:	b42b                                    	addi.n	a11, a4, 2
     5cc:	00a2c2                                    	movi	a12, 0x200
     5cf:	0628                                    	l32i.n	a2, a6, 0
     5d1:	a23a                                    	add.n	a10, a2, a3
     5d3:	0005e0                                    	callx8	a5
     5d6:	0628                                    	l32i.n	a2, a6, 0
     5d8:	000886                                    	j	5fe <RX_ECNR_PARA_init+0xda>

000005db <RX_ECNR_PARA_init+0xb7>:
     5db:	fe9161                                    	l32r	a6, 20 (d8e0 <aec_nr_para>)
     5de:	80a0c2                                    	movi	a12, 128
     5e1:	1ea572                                    	movi	a7, 0x51e
     5e4:	0628                                    	l32i.n	a2, a6, 0
     5e6:	a23a                                    	add.n	a10, a2, a3
     5e8:	130c                                    	movi.n	a3, 1
     5ea:	0005e0                                    	callx8	a5
     5ed:	0628                                    	l32i.n	a2, a6, 0
     5ef:	80a052                                    	movi	a5, 128
     5f2:	113340                                    	slli	a3, a3, 12
     5f5:	427a                                    	add.n	a4, a2, a7
     5f7:	038576                                    	loop	a5, 5fe <RX_ECNR_PARA_init+0xda>
     5fa:	643d                                    	ae_s16i.n	a3, a4, 0
     5fc:	442b                                    	addi.n	a4, a4, 2

000005fe <RX_ECNR_PARA_init+0xda>:
     5fe:	fe8731                                    	l32r	a3, 1c (d8e8 <p_ecnr_mem>)
     601:	229222                                    	l16si	a2, a2, 68
     604:	0338                                    	l32i.n	a3, a3, 0
     606:	220b                                    	addi.n	a2, a2, -1
     608:	70d332                                    	addmi	a3, a3, 0x7000
     60b:	525322                                    	s16i	a2, a3, 164
     60e:	f01d                                    	retw.n

00000610 <EQ_update>:
     610:	004136                                    	entry	a1, 32
     613:	fe8241                                    	l32r	a4, 1c (d8e8 <p_ecnr_mem>)
     616:	852c                                    	movi.n	a5, 40
     618:	70d552                                    	addmi	a5, a5, 0x7000
     61b:	2c0c                                    	movi.n	a12, 2
     61d:	a25a                                    	add.n	a10, a2, a5
     61f:	03bd                                    	mov.n	a11, a3
     621:	0429                                    	s32i.n	a2, a4, 0
     623:	fe8021                                    	l32r	a2, 24 (a5c4 <xt_memcpy>)
     626:	0002e0                                    	callx8	a2
     629:	f01d                                    	retw.n

0000062b <EQ_update+0x1b>:
	...

0000062c <ECNR_SWB_PARA_init>:
     62c:	004136                                    	entry	a1, 32
     62f:	fe7b21                                    	l32r	a2, 1c (d8e8 <p_ecnr_mem>)
     632:	7ea362                                    	movi	a6, 0x37e
     635:	b42b                                    	addi.n	a11, a4, 2
     637:	0c5c                                    	movi.n	a12, 80
     639:	0258                                    	l32i.n	a5, a2, 0
     63b:	01d332                                    	addmi	a3, a3, 0x100
     63e:	fe7921                                    	l32r	a2, 24 (a5c4 <xt_memcpy>)
     641:	570c                                    	movi.n	a7, 5
     643:	a56a                                    	add.n	a10, a5, a6
     645:	040c                                    	movi.n	a4, 0
     647:	0002e0                                    	callx8	a2
     64a:	000362                                    	l8ui	a6, a3, 0
     64d:	90a3f2                                    	movi	a15, 0x390
     650:	fe7991                                    	l32r	a9, 34 (cad0 <HPF_32K_COEF>)
     653:	a5fa                                    	add.n	a10, a5, a15
     655:	6c1c                                    	movi.n	a12, 22
     657:	908660                                    	addx2	a8, a6, a6
     65a:	627760                                    	saltu	a7, a7, a6
     65d:	e06860                                    	subx4	a6, a8, a6
     660:	936470                                    	movnez	a6, a4, a7
     663:	ffa572                                    	movi	a7, 0x5ff
     666:	a0b690                                    	addx4	a11, a6, a9
     669:	0002e0                                    	callx8	a2
     66c:	010362                                    	l8ui	a6, a3, 1
     66f:	bca3e2                                    	movi	a14, 0x3bc
     672:	0003d2                                    	l8ui	a13, a3, 0
     675:	6c1c                                    	movi.n	a12, 22
     677:	fe6ff1                                    	l32r	a15, 34 (cad0 <HPF_32K_COEF>)
     67a:	a5ea                                    	add.n	a10, a5, a14
     67c:	116680                                    	slli	a6, a6, 8
     67f:	36da                                    	add.n	a3, a6, a13
     681:	416830                                    	srli	a6, a3, 8
     684:	623730                                    	saltu	a3, a7, a3
     687:	908660                                    	addx2	a8, a6, a6
     68a:	e06860                                    	subx4	a6, a8, a6
     68d:	936430                                    	movnez	a6, a4, a3
     690:	a0b6f0                                    	addx4	a11, a6, a15
     693:	0002e0                                    	callx8	a2
     696:	fe6131                                    	l32r	a3, 1c (d8e8 <p_ecnr_mem>)
     699:	04d522                                    	addmi	a2, a5, 0x400
     69c:	079222                                    	l16si	a2, a2, 14
     69f:	0338                                    	l32i.n	a3, a3, 0
     6a1:	75d332                                    	addmi	a3, a3, 0x7500
     6a4:	445322                                    	s16i	a2, a3, 136
     6a7:	f01d                                    	retw.n

000006a9 <ECNR_SWB_PARA_init+0x7d>:
     6a9:	00000000                                 .......

000006b0 <comfort_noise_gen_wb2>:
     6b0:	008136                                    	entry	a1, 64
     6b3:	3f2232                                    	l32i	a3, a2, 252
     6b6:	452242                                    	l32i	a4, a2, 0x114
     6b9:	5149                                    	s32i.n	a4, a1, 20
     6bb:	0d070045188002fe                  	{ l16ui	a15, a2, 46; ae_movi	aed0, 0 }
     6c3:	799252                                    	l16si	a5, a2, 242
     6c6:	961272                                    	l16ui	a7, a2, 0x12c
     6c9:	fcc342                                    	addi	a4, a3, -4
     6cc:	37046fc000dfa14e                  	{ ae_s32m.iu	aed0, a4, 4; movi	a6, -1 }
     6d4:	3302e5c000dfb14e                  	{ ae_s32m.iu	aed0, a4, 4; addi	a3, a5, -1 }
     6dc:	1903624000c5b14e                  	{ ae_s32m.iu	aed0, a4, 4; l16si	a9, a2, 42 }
     6e4:	6129                                    	s32i.n	a2, a1, 24
     6e6:	41f9                                    	s32i.n	a15, a1, 16
     6e8:	0f03e14000c1a14e                  	{ ae_s32m.iu	aed0, a4, 4; l32i	a14, a1, 16 }
     6f0:	022ff6                                    	bgeui	a15, 2, 6f6 <comfort_noise_gen_wb2+0x46>
     6f3:	002106                                    	j	77b <comfort_noise_gen_wb2+0xcb>
     6f6:	51f8                                    	l32i.n	a15, a1, 20
     6f8:	7139                                    	s32i.n	a3, a1, 28
     6fa:	5e0b                                    	addi.n	a5, a14, -1
     6fc:	fccf22                                    	addi	a2, a15, -4

000006ff <comfort_noise_gen_wb2+0x4f>:
     6ff:	51f8                                    	l32i.n	a15, a1, 20
     701:	028d                                    	mov.n	a8, a2
     703:	71a8                                    	l32i.n	a10, a1, 28
     705:	093d                                    	mov.n	a3, a9
     707:	a38f60                                    	movltz	a8, a15, a6
     70a:	08b8                                    	l32i.n	a11, a8, 0
     70c:	fe4b81                                    	l32r	a8, 38 (7b4 <HIFI_sqrt>)
     70f:	0008e0                                    	callx8	a8
     712:	75a0d2                                    	movi	a13, 117
     715:	039d                                    	mov.n	a9, a3
     717:	bbdd32                                    	addmi	a3, a13, 0xffffbb00
     71a:	f1a3e2                                    	movi	a14, 0x3f1
     71d:	828730                                    	mull	a8, a7, a3
     720:	21070b441ce12eee                  	{ addx8	a3, a14, a14; ae_cvt48a32	aed1, a11 }
     728:	827730                                    	mull	a7, a7, a3
     72b:	39068a4004b3f87e                  	{ ae_cvtp24a16x2.ll	aed0, a8, a7; add	a15, a10, a9 }
     733:	228113003020400e                  	{ ae_sel16i	aed2, aed0, aed0, 1; nop; ae_mulf48q32sp16s.l	aed0, aed1, aed0 }
     73b:	550b                                    	addi.n	a5, a5, -1
     73d:	04c222                                    	addi	a2, a2, 4
     740:	2281b30c2022166e                  	{ addi	a6, a6, 1; nop; ae_mulf48q32sp16s.l	aed1, aed1, aed2 }
     748:	220700c010a51f0e                  	{ ae_slaasq56s	aed0, aed0, a15; nop }
     750:	0ead217b09040cd0c58061381c017f1f 	{ ae_slaasq56s	aed1, aed1, a15; nop; nop; ae_roundsq32f48sym	aed0, aed0 }
     760:	0ead217b0d2c0cd0c58461390801014f 	{ ae_s32m.iu	aed0, a4, 4; nop; nop; ae_roundsq32f48sym	aed1, aed1 }
     770:	230760c008c5b14e                  	{ ae_s32m.iu	aed1, a4, 4; nop }
     778:	f83556                                    	bnez	a5, 6ff <comfort_noise_gen_wb2+0x4f>
     77b:	6168                                    	l32i.n	a6, a1, 24
     77d:	ffa032                                    	movi	a3, 255
     780:	0421f2                                    	l32i	a15, a1, 16
     783:	0c07404118800f5e                  	{ movi	a5, 127; ae_movi	aed0, 0 }
     78b:	330622                                    	l8ui	a2, a6, 51
     78e:	965672                                    	s16i	a7, a6, 0x12c
     791:	412320                                    	srli	a2, a2, 3
     794:	935320                                    	movnez	a5, a3, a2
     797:	c025f0                                    	sub	a2, a5, a15
     79a:	1212a6                                    	blti	a2, 1, 7b0 <comfort_noise_gen_wb2+0x100>
     79d:	0f8276                                    	loop	a2, 7b0 <comfort_noise_gen_wb2+0x100>
     7a0:	230760c000c5b14e                  	{ ae_s32m.iu	aed0, a4, 4; nop }
     7a8:	230760c000c5b14e                  	{ ae_s32m.iu	aed0, a4, 4; nop }

000007b0 <comfort_noise_gen_wb2+0x100>:
     7b0:	f01d                                    	retw.n

000007b2 <comfort_noise_gen_wb2+0x102>:
	...

000007b4 <HIFI_sqrt>:
     7b4:	004136                                    	entry	a1, 32
     7b7:	070c                                    	movi.n	a7, 0
     7b9:	6113a6                                    	blti	a3, 1, 81e <HIFI_sqrt+0x6a>
     7bc:	40e340                                    	nsa	a4, a3
     7bf:	c02240                                    	sub	a2, a2, a4
     7c2:	401400                                    	ssl	a4
     7c5:	044020                                    	extui	a4, a2, 0, 1
     7c8:	a1d300                                    	sll	a13, a3
     7cb:	400400                                    	ssr	a4
     7ce:	fe1b51                                    	l32r	a5, 3c (b5d0 <TABLE_SQRT>)
     7d1:	b130d0                                    	sra	a3, a13
     7d4:	242a                                    	add.n	a2, a4, a2
     7d6:	656930                                    	extui	a6, a3, 25, 7
     7d9:	413930                                    	srli	a3, a3, 9
     7dc:	070286c004bce33e                  	{ ae_cvtp24a16x2.ll	aed0, a3, a3; addi	a6, a6, -16 }
     7e4:	536670                                    	max	a6, a6, a7
     7e7:	905650                                    	addx2	a5, a6, a5
     7ea:	456d                                    	ae_l16ui.n	a6, a5, 0
     7ec:	355d                                    	ae_l16si.n	a5, a5, 2
     7ee:	11f600                                    	slli	a15, a6, 16
     7f1:	21070f4314e1456e                  	{ sub	a14, a5, a6; ae_cvt48a32	aed1, a15 }
     7f9:	113e00                                    	slli	a3, a14, 16
     7fc:	2107234010a2212e                  	{ srai	a2, a2, 1; ae_cvt48a32	aed2, a3 }
     804:	20834f0b3440b13e                  	{ nop; nop; ae_mulaq32sp16u.l	aed1, aed2, aed0 }
     80c:	0ead257b0d240cd0c400813b0c01631f 	{ ae_trunca32q48	a3, aed1; nop; nop; nop }
     81c:	f01d                                    	retw.n

0000081e <HIFI_sqrt+0x6a>:
     81e:	020c                                    	movi.n	a2, 0
     820:	030c                                    	movi.n	a3, 0
     822:	f01d                                    	retw.n

00000824 <Log2_norm>:
     824:	004136                                    	entry	a1, 32
     827:	024d                                    	mov.n	a4, a2
     829:	ff7c                                    	movi.n	a15, -1
     82b:	156c                                    	movi.n	a5, -31
     82d:	012f10                                    	slli	a2, a15, 31
     830:	062c                                    	movi.n	a6, 32
     832:	5714a6                                    	blti	a4, 1, 88d <Log2_norm+0x69>
     835:	040634801802a35e                  	{ blt.w15	a3, a5, 88d <Log2_norm+0x69>; ae_movda32x2	aed2, a4, a4 }
     83d:	552840                                    	extui	a2, a4, 24, 6
     840:	06a637                                    	bge	a6, a3, 84a <Log2_norm+0x26>
     843:	f27c                                    	movi.n	a2, -1
     845:	412120                                    	srli	a2, a2, 1
     848:	f01d                                    	retw.n

0000084a <Log2_norm+0x26>:
     84a:	fdfd51                                    	l32r	a5, 40 (b640 <TABLE_LOG2_1530>)
     84d:	1122e0                                    	slli	a2, a2, 2
     850:	3606a34000c0a25e                  	{ ae_l32m.xu	aed0, a5, a2; slli	a3, a3, 26 }
     858:	220720c008c5715e                  	{ ae_l32m.i	aed1, a5, 4; nop }
     860:	0ead057b08e40cd0c58081380001e11f 	{ ae_sub64	aed1, aed1, aed0; nop; nop; nop }
     870:	20834f033422b13e                  	{ nop; nop; ae_mulaq32sp16u.l	aed0, aed1, aed2 }
     878:	0ead257b0d240cd0c400813b0c016f0f 	{ ae_trunca32q48	a15, aed0; nop; nop; nop }
     888:	2125f0                                    	srai	a2, a15, 5
     88b:	223a                                    	add.n	a2, a2, a3
     88d:	f01d                                    	retw.n

0000088f <Log2_norm+0x6b>:
	...

00000890 <siir_safr>:
     890:	004136                                    	entry	a1, 32
     893:	0aa237                                    	bge	a2, a3, 8a1 <siir_safr+0x11>
     896:	230760c00485b04e                  	{ ae_l16x2m.i	aed0, a4, 0; nop }
     89e:	0001c6                                    	j	8a9 <siir_safr+0x19>

000008a1 <siir_safr+0x11>:
     8a1:	230760c00485b14e                  	{ ae_l16x2m.i	aed0, a4, 4; nop }
     8a9:	0e9547abf9e133d0c4809d010040120f 	{ ae_cvt48a32	aed1, a2; ae_cvt48a32	aed31, a3; ae_sel16i.n	aed2, aed0, aed0, 1; nop }
     8b9:	228353f33420b13e                  	{ nop; nop; ae_mulf48q32sp16s.l	aed30, aed1, aed0 }
     8c1:	1e8354f337e2b13e                  	{ nop; nop; ae_mulaf48q32sp16s.l	aed30, aed31, aed2 }
     8c9:	0ead3d7b0d540cd0c50041380c01015f 	{ nop; nop; nop; ae_roundsq32f48asym	aed0, aed30 }
     8d9:	0ead257b0d240cd0c400813b0c01620f 	{ ae_trunca32q48	a2, aed0; nop; nop; nop }
     8e9:	f01d                                    	retw.n

000008eb <siir_safr+0x5b>:
	...

000008ec <_start>:
     8ec:	004136                                    	entry	a1, 32
     8ef:	fdd531                                    	l32r	a3, 44 (d8e4 <printf_ptr>)
     8f2:	0228                                    	l32i.n	a2, a2, 0
     8f4:	fdd5a1                                    	l32r	a10, 48 (b298 <export_parameter_array+0x68>)
     8f7:	fdd5b1                                    	l32r	a11, 4c (1de8 <get_aec_nr_memsize>)
     8fa:	0329                                    	s32i.n	a2, a3, 0
     8fc:	0002e0                                    	callx8	a2
     8ff:	0328                                    	l32i.n	a2, a3, 0
     901:	fdd3a1                                    	l32r	a10, 50 (b2b1 <export_parameter_array+0x81>)
     904:	fdd4b1                                    	l32r	a11, 54 (1e78 <Voice_EC_Init>)
     907:	0002e0                                    	callx8	a2
     90a:	0328                                    	l32i.n	a2, a3, 0
     90c:	fdd3a1                                    	l32r	a10, 58 (b2c5 <export_parameter_array+0x95>)
     90f:	fdd3b1                                    	l32r	a11, 5c (5418 <Voice_EC_Prcs>)
     912:	0002e0                                    	callx8	a2
     915:	0328                                    	l32i.n	a2, a3, 0
     917:	fdd2a1                                    	l32r	a10, 60 (b2d9 <export_parameter_array+0xa9>)
     91a:	fdd2b1                                    	l32r	a11, 64 (5228 <Voice_PostEC_Prcs>)
     91d:	0002e0                                    	callx8	a2
     920:	0328                                    	l32i.n	a2, a3, 0
     922:	fdd1a1                                    	l32r	a10, 68 (b2f1 <export_parameter_array+0xc1>)
     925:	fdd1b1                                    	l32r	a11, 6c (55d0 <EC_REF_GAIN_READBACK>)
     928:	0002e0                                    	callx8	a2
     92b:	0328                                    	l32i.n	a2, a3, 0
     92d:	fdd0a1                                    	l32r	a10, 70 (b30c <export_parameter_array+0xdc>)
     930:	fdd1b1                                    	l32r	a11, 74 (5cac <NB_RX_NR_init>)
     933:	0002e0                                    	callx8	a2
     936:	0328                                    	l32i.n	a2, a3, 0
     938:	fdd0a1                                    	l32r	a10, 78 (b320 <export_parameter_array+0xf0>)
     93b:	fdd0b1                                    	l32r	a11, 7c (5488 <Voice_NB_RX_Prcs>)
     93e:	0002e0                                    	callx8	a2
     941:	0328                                    	l32i.n	a2, a3, 0
     943:	fdcfa1                                    	l32r	a10, 80 (b337 <export_parameter_array+0x107>)
     946:	fdcfb1                                    	l32r	a11, 84 (5a14 <WB_RX_NR_init>)
     949:	0002e0                                    	callx8	a2
     94c:	0328                                    	l32i.n	a2, a3, 0
     94e:	fdcea1                                    	l32r	a10, 88 (b34b <export_parameter_array+0x11b>)
     951:	fdceb1                                    	l32r	a11, 8c (54f0 <Voice_WB_RX_Prcs>)
     954:	0002e0                                    	callx8	a2
     957:	0328                                    	l32i.n	a2, a3, 0
     959:	fdcda1                                    	l32r	a10, 90 (b362 <export_parameter_array+0x132>)
     95c:	fdceb1                                    	l32r	a11, 94 (1df4 <get_aec_nr_inear_memsize>)
     95f:	0002e0                                    	callx8	a2
     962:	0328                                    	l32i.n	a2, a3, 0
     964:	fdcda1                                    	l32r	a10, 98 (b381 <export_parameter_array+0x151>)
     967:	fdcdb1                                    	l32r	a11, 9c (2204 <Voice_EC_Inear_Init>)
     96a:	0002e0                                    	callx8	a2
     96d:	0328                                    	l32i.n	a2, a3, 0
     96f:	fdcca1                                    	l32r	a10, a0 (b39b <export_parameter_array+0x16b>)
     972:	fdccb1                                    	l32r	a11, a4 (5434 <Voice_EC_Inear_Prcs>)
     975:	0002e0                                    	callx8	a2
     978:	0328                                    	l32i.n	a2, a3, 0
     97a:	fdcba1                                    	l32r	a10, a8 (b3b5 <export_parameter_array+0x185>)
     97d:	fdcbb1                                    	l32r	a11, ac (5628 <EC_Inear_REF_GAIN_READBACK>)
     980:	0002e0                                    	callx8	a2
     983:	0328                                    	l32i.n	a2, a3, 0
     985:	fdcaa1                                    	l32r	a10, b0 (b3d6 <export_parameter_array+0x1a6>)
     988:	fdcbb1                                    	l32r	a11, b4 (1de0 <get_ECNR_SVN>)
     98b:	0002e0                                    	callx8	a2
     98e:	0328                                    	l32i.n	a2, a3, 0
     990:	fdcaa1                                    	l32r	a10, b8 (b3e9 <export_parameter_array+0x1b9>)
     993:	fdcab1                                    	l32r	a11, bc (5650 <EC_PreLim_Coef_READBACK>)
     996:	0002e0                                    	callx8	a2
     999:	0328                                    	l32i.n	a2, a3, 0
     99b:	fdc9a1                                    	l32r	a10, c0 (b407 <export_parameter_array+0x1d7>)
     99e:	fdc9b1                                    	l32r	a11, c4 (56c0 <DaulMIC_power_Coef_READBACK>)
     9a1:	0002e0                                    	callx8	a2
     9a4:	0328                                    	l32i.n	a2, a3, 0
     9a6:	fdc8a1                                    	l32r	a10, c8 (b429 <export_parameter_array+0x1f9>)
     9a9:	fdc8b1                                    	l32r	a11, cc (2f10 <Voice_SWB_EC_Init>)
     9ac:	0002e0                                    	callx8	a2
     9af:	0328                                    	l32i.n	a2, a3, 0
     9b1:	fdc7a1                                    	l32r	a10, d0 (b441 <export_parameter_array+0x211>)
     9b4:	fdc8b1                                    	l32r	a11, d4 (5450 <Voice_SWB_EC_Prcs>)
     9b7:	0002e0                                    	callx8	a2
     9ba:	0328                                    	l32i.n	a2, a3, 0
     9bc:	fdc7a1                                    	l32r	a10, d8 (b459 <export_parameter_array+0x229>)
     9bf:	fdc7b1                                    	l32r	a11, dc (2f3c <Voice_SWB_EC_Inear_Init>)
     9c2:	0002e0                                    	callx8	a2
     9c5:	0328                                    	l32i.n	a2, a3, 0
     9c7:	fdc6a1                                    	l32r	a10, e0 (b477 <export_parameter_array+0x247>)
     9ca:	fdc6b1                                    	l32r	a11, e4 (546c <Voice_SWB_EC_Inear_Prcs>)
     9cd:	0002e0                                    	callx8	a2
     9d0:	0328                                    	l32i.n	a2, a3, 0
     9d2:	fdc5a1                                    	l32r	a10, e8 (b495 <export_parameter_array+0x265>)
     9d5:	fdc5b1                                    	l32r	a11, ec (53cc <Voice_SWB_PostEC_Prcs>)
     9d8:	0002e0                                    	callx8	a2
     9db:	0328                                    	l32i.n	a2, a3, 0
     9dd:	fdc4a1                                    	l32r	a10, f0 (b4b1 <export_parameter_array+0x281>)
     9e0:	fdc5b1                                    	l32r	a11, f4 (5fe8 <SWB_RX_NR_init>)
     9e3:	0002e0                                    	callx8	a2
     9e6:	0328                                    	l32i.n	a2, a3, 0
     9e8:	fdc4a1                                    	l32r	a10, f8 (b4c6 <export_parameter_array+0x296>)
     9eb:	fdc4b1                                    	l32r	a11, fc (5560 <Voice_SWB_RX_Prcs>)
     9ee:	0002e0                                    	callx8	a2
     9f1:	0328                                    	l32i.n	a2, a3, 0
     9f3:	fdc3a1                                    	l32r	a10, 100 (b4de <export_parameter_array+0x2ae>)
     9f6:	fdc3b1                                    	l32r	a11, 104 (56d0 <BAND5_EC_REF_GAIN_READBACK>)
     9f9:	0002e0                                    	callx8	a2
     9fc:	0328                                    	l32i.n	a2, a3, 0
     9fe:	fdc2a1                                    	l32r	a10, 108 (b4ff <export_parameter_array+0x2cf>)
     a01:	fdc2b1                                    	l32r	a11, 10c (56a0 <BAND5_PreLim_Coef_READBACK>)
     a04:	0002e0                                    	callx8	a2
     a07:	0328                                    	l32i.n	a2, a3, 0
     a09:	fdc1a1                                    	l32r	a10, 110 (b520 <export_parameter_array+0x2f0>)
     a0c:	fdc2b1                                    	l32r	a11, 114 (5708 <PF_GAIN_FB_READBACK>)
     a0f:	0002e0                                    	callx8	a2
     a12:	fdc121                                    	l32r	a2, 118 (b230 <export_parameter_array>)
     a15:	f01d                                    	retw.n

00000a17 <_start+0x12b>:
	...

00000a18 <SBAEC_INIT>:
     a18:	00c136                                    	entry	a1, 96
     a1b:	fd8071                                    	l32r	a7, 1c (d8e8 <p_ecnr_mem>)
     a1e:	d8a042                                    	movi	a4, 216
     a21:	41d442                                    	addmi	a4, a4, 0x4100
     a24:	13a252                                    	movi	a5, 0x213
     a27:	11a2f2                                    	movi	a15, 0x211
     a2a:	15a262                                    	movi	a6, 0x215
     a2d:	0738                                    	l32i.n	a3, a7, 0
     a2f:	0b0c                                    	movi.n	a11, 0
     a31:	f129                                    	s32i.n	a2, a1, 60
     a33:	74a1c2                                    	movi	a12, 0x174
     a36:	112fb0                                    	slli	a2, a15, 5
     a39:	1155b0                                    	slli	a5, a5, 5
     a3c:	a34a                                    	add.n	a10, a3, a4
     a3e:	fdb741                                    	l32r	a4, 11c (a5b0 <xt_memset>)
     a41:	b1a9                                    	s32i.n	a10, a1, 44
     a43:	1166b0                                    	slli	a6, a6, 5
     a46:	0004e0                                    	callx8	a4
     a49:	0778                                    	l32i.n	a7, a7, 0
     a4b:	29a282                                    	movi	a8, 0x229
     a4e:	1188c0                                    	slli	a8, a8, 4
     a51:	0b0c                                    	movi.n	a11, 0
     a53:	c0a4c2                                    	movi	a12, 0x4c0
     a56:	a78a                                    	add.n	a10, a7, a8
     a58:	c70c                                    	movi.n	a7, 12
     a5a:	0004e0                                    	callx8	a4
     a5d:	fd7041                                    	l32r	a4, 20 (d8e0 <aec_nr_para>)
     a60:	0448                                    	l32i.n	a4, a4, 0
     a62:	041482                                    	l16ui	a8, a4, 8
     a65:	107870                                    	and	a7, a8, a7
     a68:	06a726                                    	beqi	a7, 12, a72 <SBAEC_INIT+0x5a>
     a6b:	071c                                    	movi.n	a7, 16
     a6d:	107870                                    	and	a7, a8, a7
     a70:	479c                                    	beqz.n	a7, a88 <SBAEC_INIT+0x70>

00000a72 <SBAEC_INIT+0x5a>:
     a72:	777c                                    	movi.n	a7, -9
     a74:	131492                                    	l16ui	a9, a4, 38
     a77:	f47070                                    	extui	a7, a7, 0, 16
     a7a:	108870                                    	and	a8, a8, a7
     a7d:	871c                                    	movi.n	a7, 24
     a7f:	045482                                    	s16i	a8, a4, 8
     a82:	023977                                    	bltu	a9, a7, a88 <SBAEC_INIT+0x70>
     a85:	135472                                    	s16i	a7, a4, 38
     a88:	41d372                                    	addmi	a7, a3, 0x4100
     a8b:	17a2f2                                    	movi	a15, 0x217
     a8e:	8179                                    	s32i.n	a7, a1, 32
     a90:	732a                                    	add.n	a7, a3, a2
     a92:	112fb0                                    	slli	a2, a15, 5
     a95:	d35a                                    	add.n	a13, a3, a5
     a97:	e36a                                    	add.n	a14, a3, a6
     a99:	232a                                    	add.n	a2, a3, a2
     a9b:	44d3f2                                    	addmi	a15, a3, 0x4400
     a9e:	51d9                                    	s32i.n	a13, a1, 20
     aa0:	61e9                                    	s32i.n	a14, a1, 24
     aa2:	60a052                                    	movi	a5, 96
     aa5:	7129                                    	s32i.n	a2, a1, 28
     aa7:	4c0c                                    	movi.n	a12, 4
     aa9:	78a092                                    	movi	a9, 120
     aac:	5be837                                    	bbsi	a8, 3, b0b <SBAEC_INIT+0xf3>
     aaf:	251452                                    	l16ui	a5, a4, 74
     ab2:	44d3e2                                    	addmi	a14, a3, 0x4400
     ab5:	131462                                    	l16ui	a6, a4, 38
     ab8:	44d3f2                                    	addmi	a15, a3, 0x4400
     abb:	fd9921                                    	l32r	a2, 120 (300040 <_end+0x2f2754>)
     abe:	348050                                    	extui	a8, a5, 0, 4
     ac1:	055516                                    	beqz	a5, b1a <SBAEC_INIT+0x102>
     ac4:	34a450                                    	extui	a10, a5, 4, 4
     ac7:	34f850                                    	extui	a15, a5, 8, 4
     aca:	1188e0                                    	slli	a8, a8, 2
     acd:	11aad0                                    	slli	a10, a10, 3
     ad0:	41bc50                                    	srli	a11, a5, 12
     ad3:	115fe0                                    	slli	a5, a15, 2
     ad6:	884b                                    	addi.n	a8, a8, 4
     ad8:	a0bbc0                                    	addx4	a11, a11, a12
     adb:	d54b                                    	addi.n	a13, a5, 4
     add:	aa8b                                    	addi.n	a10, a10, 8
     adf:	108890                                    	and	a8, a8, a9
     ae2:	575ea2                                    	s16i	a10, a14, 174
     ae5:	105b90                                    	and	a5, a11, a9
     ae8:	109d90                                    	and	a9, a13, a9
     aeb:	41a1a0                                    	srli	a10, a10, 1
     aee:	436680                                    	min	a6, a6, a8
     af1:	43aa90                                    	min	a10, a10, a9
     af4:	595e52                                    	s16i	a5, a14, 178
     af7:	4366a0                                    	min	a6, a6, a10
     afa:	565e82                                    	s16i	a8, a14, 172
     afd:	43f650                                    	min	a15, a6, a5
     b00:	862c                                    	movi.n	a6, 40
     b02:	585e92                                    	s16i	a9, a14, 176
     b05:	1354f2                                    	s16i	a15, a4, 38
     b08:	0006c6                                    	j	b27 <SBAEC_INIT+0x10f>

00000b0b <SBAEC_INIT+0xf3>:
     b0b:	fd8761                                    	l32r	a6, 128 (c00100 <_end+0xbf2814>)
     b0e:	fd8781                                    	l32r	a8, 12c (600040 <_end+0x5f2754>)
     b11:	2b6f62                                    	s32i	a6, a15, 172
     b14:	78a062                                    	movi	a6, 120
     b17:	000246                                    	j	b24 <SBAEC_INIT+0x10c>

00000b1a <SBAEC_INIT+0x102>:
     b1a:	fd8281                                    	l32r	a8, 124 (200018 <_end+0x1f272c>)
     b1d:	862c                                    	movi.n	a6, 40
     b1f:	2b6f22                                    	s32i	a2, a15, 172
     b22:	052c                                    	movi.n	a5, 32
     b24:	2c6f82                                    	s32i	a8, a15, 176
     b27:	131482                                    	l16ui	a8, a4, 38
     b2a:	42d392                                    	addmi	a9, a3, 0x4200
     b2d:	435982                                    	s16i	a8, a9, 134
     b30:	daa0e2                                    	movi	a14, 218
     b33:	635982                                    	s16i	a8, a9, 198
     b36:	b4eb                                    	addi.n	a11, a4, 14
     b38:	235982                                    	s16i	a8, a9, 70
     b3b:	1188f0                                    	slli	a8, a8, 1
     b3e:	435850                                    	min	a5, a8, a5
     b41:	fd3841                                    	l32r	a4, 24 (a5c4 <xt_memcpy>)
     b44:	835952                                    	s16i	a5, a9, 0x106
     b47:	41de52                                    	addmi	a5, a14, 0x4100
     b4a:	44d3f2                                    	addmi	a15, a3, 0x4400
     b4d:	44d322                                    	addmi	a2, a3, 0x4400
     b50:	a35a                                    	add.n	a10, a3, a5
     b52:	ec0c                                    	movi.n	a12, 14
     b54:	a1f9                                    	s32i.n	a15, a1, 40
     b56:	9129                                    	s32i.n	a2, a1, 36
     b58:	5a5262                                    	s16i	a6, a2, 180
     b5b:	41d362                                    	addmi	a6, a3, 0x4100
     b5e:	0004e0                                    	callx8	a4
     b61:	fd2f21                                    	l32r	a2, 20 (d8e0 <aec_nr_para>)
     b64:	3ed3a2                                    	addmi	a10, a3, 0x3e00
     b67:	fd2db1                                    	l32r	a11, 1c (d8e8 <p_ecnr_mem>)
     b6a:	fd7151                                    	l32r	a5, 130 (155555 <_end+0x147c69>)
     b6d:	0248                                    	l32i.n	a4, a2, 0
     b6f:	5128                                    	l32i.n	a2, a1, 20
     b71:	fa6a52                                    	s32i	a5, a10, 0x3e8
     b74:	0bc8                                    	l32i.n	a12, a11, 0
     b76:	fd6f51                                    	l32r	a5, 134 (101c <Fill_CH_MEM_WB>)
     b79:	061482                                    	l16ui	a8, a4, 12
     b7c:	2014d2                                    	l16ui	a13, a4, 64
     b7f:	219492                                    	l16si	a9, a4, 66
     b82:	7d5692                                    	s16i	a9, a6, 250
     b85:	04e8                                    	l32i.n	a14, a4, 0
     b87:	1188c0                                    	slli	a8, a8, 4
     b8a:	29a262                                    	movi	a6, 0x229
     b8d:	ff6a82                                    	s32i	a8, a10, 0x3fc
     b90:	41d392                                    	addmi	a9, a3, 0x4100
     b93:	1f94a2                                    	l16si	a10, a4, 62
     b96:	b480d0                                    	extui	a8, a13, 0, 12
     b99:	1146c0                                    	slli	a4, a6, 4
     b9c:	7b59a2                                    	s16i	a10, a9, 246
     b9f:	7c5982                                    	s16i	a8, a9, 248
     ba2:	fc4a                                    	add.n	a15, a12, a4
     ba4:	04de92                                    	addmi	a9, a14, 0x400
     ba7:	d1e9                                    	s32i.n	a14, a1, 52
     ba9:	61c8                                    	l32i.n	a12, a1, 24
     bab:	b1e8                                    	l32i.n	a14, a1, 44
     bad:	71d8                                    	l32i.n	a13, a1, 28
     baf:	07ad                                    	mov.n	a10, a7
     bb1:	02bd                                    	mov.n	a11, a2
     bb3:	0199                                    	s32i.n	a9, a1, 0
     bb5:	0005e0                                    	callx8	a5
     bb8:	fd1941                                    	l32r	a4, 1c (d8e8 <p_ecnr_mem>)
     bbb:	44d3f2                                    	addmi	a15, a3, 0x4400
     bbe:	fd1861                                    	l32r	a6, 20 (d8e0 <aec_nr_para>)
     bc1:	43d382                                    	addmi	a8, a3, 0x4300
     bc4:	569fb2                                    	l16si	a11, a15, 172
     bc7:	1d0c                                    	movi.n	a13, 1
     bc9:	0458                                    	l32i.n	a5, a4, 0
     bcb:	e1f9                                    	s32i.n	a15, a1, 56
     bcd:	0698                                    	l32i.n	a9, a6, 0
     bcf:	fd5a61                                    	l32r	a6, 138 (1000 <Fill_sbco>)
     bd2:	22d542                                    	addmi	a4, a5, 0x2200
     bd5:	22d552                                    	addmi	a5, a5, 0x2200
     bd8:	1824a2                                    	l32i	a10, a4, 96
     bdb:	1699c2                                    	l16si	a12, a9, 44
     bde:	58a9                                    	s32i.n	a10, a8, 20
     be0:	1c2552                                    	l32i	a5, a5, 112
     be3:	07ad                                    	mov.n	a10, a7
     be5:	6859                                    	s32i.n	a5, a8, 24
     be7:	0006e0                                    	callx8	a6
     bea:	fd0d41                                    	l32r	a4, 20 (d8e0 <aec_nr_para>)
     bed:	44d352                                    	addmi	a5, a3, 0x4400
     bf0:	579572                                    	l16si	a7, a5, 174
     bf3:	1d0c                                    	movi.n	a13, 1
     bf5:	02ad                                    	mov.n	a10, a2
     bf7:	44d322                                    	addmi	a2, a3, 0x4400
     bfa:	0488                                    	l32i.n	a8, a4, 0
     bfc:	971b                                    	addi.n	a9, a7, 1
     bfe:	b39770                                    	movgez	a9, a7, a7
     c01:	1798c2                                    	l16si	a12, a8, 46
     c04:	21b190                                    	srai	a11, a9, 1
     c07:	0006e0                                    	callx8	a6
     c0a:	0478                                    	l32i.n	a7, a4, 0
     c0c:	5895b2                                    	l16si	a11, a5, 176
     c0f:	61a8                                    	l32i.n	a10, a1, 24
     c11:	1d0c                                    	movi.n	a13, 1
     c13:	5129                                    	s32i.n	a2, a1, 20
     c15:	1897c2                                    	l16si	a12, a7, 48
     c18:	0006e0                                    	callx8	a6
     c1b:	a128                                    	l32i.n	a2, a1, 40
     c1d:	0478                                    	l32i.n	a7, a4, 0
     c1f:	71a8                                    	l32i.n	a10, a1, 28
     c21:	1d0c                                    	movi.n	a13, 1
     c23:	5992b2                                    	l16si	a11, a2, 178
     c26:	1997c2                                    	l16si	a12, a7, 50
     c29:	0006e0                                    	callx8	a6
     c2c:	fcfc21                                    	l32r	a2, 1c (d8e8 <p_ecnr_mem>)
     c2f:	ffa0a2                                    	movi	a10, 255
     c32:	0488                                    	l32i.n	a8, a4, 0
     c34:	7fdaa2                                    	addmi	a10, a10, 0x7f00
     c37:	42d3b2                                    	addmi	a11, a3, 0x4200
     c3a:	5055a2                                    	s16i	a10, a5, 160
     c3d:	0278                                    	l32i.n	a7, a2, 0
     c3f:	6bad                                    	ae_s16i.n	a10, a11, 0
     c41:	159842                                    	l16si	a4, a8, 42
     c44:	059862                                    	l16si	a6, a8, 10
     c47:	22d7a2                                    	addmi	a10, a7, 0x2200
     c4a:	0418e2                                    	l16ui	a14, a8, 8
     c4d:	215a42                                    	s16i	a4, a10, 66
     c50:	8148                                    	l32i.n	a4, a1, 32
     c52:	7b6d                                    	ae_s16i.n	a6, a11, 2
     c54:	3898f2                                    	l16si	a15, a8, 112
     c57:	162a62                                    	l32i	a6, a10, 88
     c5a:	029822                                    	l16si	a2, a8, 4
     c5d:	5255f2                                    	s16i	a15, a5, 164
     c60:	04c0e0                                    	extui	a12, a14, 0, 1
     c63:	14f1e0                                    	extui	a15, a14, 1, 2
     c66:	2a6562                                    	s32i	a6, a5, 168
     c69:	265af2                                    	s16i	a15, a10, 76
     c6c:	249882                                    	l16si	a8, a8, 72
     c6f:	6c5422                                    	s16i	a2, a4, 216
     c72:	052d                                    	mov.n	a2, a5
     c74:	5792a2                                    	l16si	a10, a2, 174
     c77:	5155c2                                    	s16i	a12, a5, 162
     c7a:	535582                                    	s16i	a8, a5, 166
     c7d:	18a522                                    	movi	a2, 0x518
     c80:	1fa2b2                                    	movi	a11, 0x21f
     c83:	022f26                                    	beqi	a15, 2, c89 <SBAEC_INIT+0x271>
     c86:	003e46                                    	j	d83 <SBAEC_INIT+0x36b>
     c89:	c159                                    	s32i.n	a5, a1, 48
     c8b:	1ba282                                    	movi	a8, 0x21b
     c8e:	e158                                    	l32i.n	a5, a1, 56
     c90:	a148                                    	l32i.n	a4, a1, 40
     c92:	51e8                                    	l32i.n	a14, a1, 20
     c94:	29a2f2                                    	movi	a15, 0x229
     c97:	d168                                    	l32i.n	a6, a1, 52
     c99:	1188b0                                    	slli	a8, a8, 5
     c9c:	569592                                    	l16si	a9, a5, 172
     c9f:	5994d2                                    	l16si	a13, a4, 178
     ca2:	589ec2                                    	l16si	a12, a14, 176
     ca5:	21a2e2                                    	movi	a14, 0x221
     ca8:	9a9a                                    	add.n	a9, a10, a9
     caa:	662a                                    	add.n	a6, a6, a2
     cac:	ccda                                    	add.n	a12, a12, a13
     cae:	112eb0                                    	slli	a2, a14, 5
     cb1:	11abb0                                    	slli	a10, a11, 5
     cb4:	99ca                                    	add.n	a9, a9, a12
     cb6:	1da2b2                                    	movi	a11, 0x21d
     cb9:	d32a                                    	add.n	a13, a3, a2
     cbb:	a09970                                    	addx4	a9, a9, a7
     cbe:	112fc0                                    	slli	a2, a15, 4
     cc1:	11bbb0                                    	slli	a11, a11, 5
     cc4:	f92a                                    	add.n	a15, a9, a2
     cc6:	738a                                    	add.n	a7, a3, a8
     cc8:	b1e8                                    	l32i.n	a14, a1, 44
     cca:	c3aa                                    	add.n	a12, a3, a10
     ccc:	fd1a21                                    	l32r	a2, 134 (101c <Fill_CH_MEM_WB>)
     ccf:	b3ba                                    	add.n	a11, a3, a11
     cd1:	07ad                                    	mov.n	a10, a7
     cd3:	81b9                                    	s32i.n	a11, a1, 32
     cd5:	61c9                                    	s32i.n	a12, a1, 24
     cd7:	71d9                                    	s32i.n	a13, a1, 28
     cd9:	0169                                    	s32i.n	a6, a1, 0
     cdb:	0002e0                                    	callx8	a2
     cde:	fccf21                                    	l32r	a2, 1c (d8e8 <p_ecnr_mem>)
     ce1:	42d382                                    	addmi	a8, a3, 0x4200
     ce4:	162882                                    	l32i	a8, a8, 88
     ce7:	43d392                                    	addmi	a9, a3, 0x4300
     cea:	42d3a2                                    	addmi	a10, a3, 0x4200
     ced:	266982                                    	s32i	a8, a9, 152
     cf0:	0268                                    	l32i.n	a6, a2, 0
     cf2:	362ac2                                    	l32i	a12, a10, 216
     cf5:	fcca21                                    	l32r	a2, 20 (d8e0 <aec_nr_para>)
     cf8:	44d3b2                                    	addmi	a11, a3, 0x4400
     cfb:	262af2                                    	l32i	a15, a10, 152
     cfe:	6bc9                                    	s32i.n	a12, a11, 24
     d00:	22d6e2                                    	addmi	a14, a6, 0x2200
     d03:	3669f2                                    	s32i	a15, a9, 216
     d06:	0288                                    	l32i.n	a8, a2, 0
     d08:	22d662                                    	addmi	a6, a6, 0x2200
     d0b:	44d3d2                                    	addmi	a13, a3, 0x4400
     d0e:	5994c2                                    	l16si	a12, a4, 178
     d11:	1a2e92                                    	l32i	a9, a14, 104
     d14:	43d3a2                                    	addmi	a10, a3, 0x4300
     d17:	1318b2                                    	l16ui	a11, a8, 38
     d1a:	1c2662                                    	l32i	a6, a6, 112
     d1d:	156d92                                    	s32i	a9, a13, 84
     d20:	44d3f2                                    	addmi	a15, a3, 0x4400
     d23:	166d62                                    	s32i	a6, a13, 88
     d26:	11ebf0                                    	slli	a14, a11, 1
     d29:	435ab2                                    	s16i	a11, a10, 134
     d2c:	635ab2                                    	s16i	a11, a10, 198
     d2f:	436ec0                                    	min	a6, a14, a12
     d32:	035db2                                    	s16i	a11, a13, 6
     d35:	07ad                                    	mov.n	a10, a7
     d37:	5695b2                                    	l16si	a11, a5, 172
     d3a:	1a98c2                                    	l16si	a12, a8, 52
     d3d:	fcfe71                                    	l32r	a7, 138 (1000 <Fill_sbco>)
     d40:	0d0c                                    	movi.n	a13, 0
     d42:	235f62                                    	s16i	a6, a15, 70
     d45:	0007e0                                    	callx8	a7
     d48:	c148                                    	l32i.n	a4, a1, 48
     d4a:	0258                                    	l32i.n	a5, a2, 0
     d4c:	81a8                                    	l32i.n	a10, a1, 32
     d4e:	0d0c                                    	movi.n	a13, 0
     d50:	579442                                    	l16si	a4, a4, 174
     d53:	1b95c2                                    	l16si	a12, a5, 54
     d56:	641b                                    	addi.n	a6, a4, 1
     d58:	b36440                                    	movgez	a6, a4, a4
     d5b:	21b160                                    	srai	a11, a6, 1
     d5e:	0007e0                                    	callx8	a7
     d61:	5158                                    	l32i.n	a5, a1, 20
     d63:	0248                                    	l32i.n	a4, a2, 0
     d65:	61a8                                    	l32i.n	a10, a1, 24
     d67:	0d0c                                    	movi.n	a13, 0
     d69:	5895b2                                    	l16si	a11, a5, 176
     d6c:	1c94c2                                    	l16si	a12, a4, 56
     d6f:	0007e0                                    	callx8	a7
     d72:	a148                                    	l32i.n	a4, a1, 40
     d74:	0228                                    	l32i.n	a2, a2, 0
     d76:	71a8                                    	l32i.n	a10, a1, 28
     d78:	0d0c                                    	movi.n	a13, 0
     d7a:	5994b2                                    	l16si	a11, a4, 178
     d7d:	1d92c2                                    	l16si	a12, a2, 58
     d80:	0007e0                                    	callx8	a7
     d83:	f128                                    	l32i.n	a2, a1, 60
     d85:	19a292                                    	movi	a9, 0x219
     d88:	fca651                                    	l32r	a5, 20 (d8e0 <aec_nr_para>)
     d8b:	0fa7a2                                    	movi	a10, 0x70f
     d8e:	9148                                    	l32i.n	a4, a1, 36
     d90:	1199b0                                    	slli	a9, a9, 5
     d93:	43d3f2                                    	addmi	a15, a3, 0x4300
     d96:	0d5216                                    	beqz	a2, e6f <SBAEC_INIT+0x457>
     d99:	fca071                                    	l32r	a7, 1c (d8e8 <p_ecnr_mem>)
     d9c:	11aac0                                    	slli	a10, a10, 4
     d9f:	0528                                    	l32i.n	a2, a5, 0
     da1:	5a94b2                                    	l16si	a11, a4, 180
     da4:	0768                                    	l32i.n	a6, a7, 0
     da6:	131252                                    	l16ui	a5, a2, 38
     da9:	0288                                    	l32i.n	a8, a2, 0
     dab:	c6aa                                    	add.n	a12, a6, a10
     dad:	11e5e0                                    	slli	a14, a5, 2
     db0:	fce351                                    	l32r	a5, 13c (10a4 <Fill_CH_MEM_CH5>)
     db3:	432eb0                                    	min	a2, a14, a11
     db6:	0cd8d2                                    	addmi	a13, a8, 0xc00
     db9:	235f22                                    	s16i	a2, a15, 70
     dbc:	239a                                    	add.n	a2, a3, a9
     dbe:	02ad                                    	mov.n	a10, a2
     dc0:	43d362                                    	addmi	a6, a3, 0x4300
     dc3:	0005e0                                    	callx8	a5
     dc6:	fc9681                                    	l32r	a8, 20 (d8e0 <aec_nr_para>)
     dc9:	02ad                                    	mov.n	a10, a2
     dcb:	0758                                    	l32i.n	a5, a7, 0
     dcd:	5a94b2                                    	l16si	a11, a4, 180
     dd0:	fcda21                                    	l32r	a2, 138 (1000 <Fill_sbco>)
     dd3:	1d0c                                    	movi.n	a13, 1
     dd5:	0888                                    	l32i.n	a8, a8, 0
     dd7:	75d572                                    	addmi	a7, a5, 0x7500
     dda:	75d552                                    	addmi	a5, a5, 0x7500
     ddd:	122772                                    	l32i	a7, a7, 72
     de0:	03d8f2                                    	addmi	a15, a8, 0x300
     de3:	142552                                    	l32i	a5, a5, 80
     de6:	3f9fc2                                    	l16si	a12, a15, 126
     de9:	156672                                    	s32i	a7, a6, 84
     dec:	166652                                    	s32i	a5, a6, 88
     def:	19a772                                    	movi	a7, 0x719
     df2:	0002e0                                    	callx8	a2
     df5:	fc8921                                    	l32r	a2, 1c (d8e8 <p_ecnr_mem>)
     df8:	fc8a41                                    	l32r	a4, 20 (d8e0 <aec_nr_para>)
     dfb:	91f8                                    	l32i.n	a15, a1, 36
     dfd:	0228                                    	l32i.n	a2, a2, 0
     dff:	04a8                                    	l32i.n	a10, a4, 0
     e01:	22d252                                    	addmi	a5, a2, 0x2200
     e04:	261552                                    	l16ui	a5, a5, 76
     e07:	44d3e2                                    	addmi	a14, a3, 0x4400
     e0a:	fccc41                                    	l32r	a4, 13c (10a4 <Fill_CH_MEM_CH5>)
     e0d:	5e2566                                    	bnei	a5, 2, e6f <SBAEC_INIT+0x457>
     e10:	1177c0                                    	slli	a7, a7, 4
     e13:	23a292                                    	movi	a9, 0x223
     e16:	c27a                                    	add.n	a12, a2, a7
     e18:	c5a062                                    	movi	a6, 197
     e1b:	1129b0                                    	slli	a2, a9, 5
     e1e:	5a9fb2                                    	l16si	a11, a15, 180
     e21:	232a                                    	add.n	a2, a3, a2
     e23:	1166c0                                    	slli	a6, a6, 4
     e26:	131a82                                    	l16ui	a8, a10, 38
     e29:	44d332                                    	addmi	a3, a3, 0x4400
     e2c:	0a58                                    	l32i.n	a5, a10, 0
     e2e:	11a8e0                                    	slli	a10, a8, 2
     e31:	43fab0                                    	min	a15, a10, a11
     e34:	d56a                                    	add.n	a13, a5, a6
     e36:	02ad                                    	mov.n	a10, a2
     e38:	435ef2                                    	s16i	a15, a14, 134
     e3b:	0004e0                                    	callx8	a4
     e3e:	fc7851                                    	l32r	a5, 20 (d8e0 <aec_nr_para>)
     e41:	02ad                                    	mov.n	a10, a2
     e43:	fc7641                                    	l32r	a4, 1c (d8e8 <p_ecnr_mem>)
     e46:	0d0c                                    	movi.n	a13, 0
     e48:	9168                                    	l32i.n	a6, a1, 36
     e4a:	0558                                    	l32i.n	a5, a5, 0
     e4c:	0448                                    	l32i.n	a4, a4, 0
     e4e:	5a96b2                                    	l16si	a11, a6, 180
     e51:	fcb921                                    	l32r	a2, 138 (1000 <Fill_sbco>)
     e54:	03d552                                    	addmi	a5, a5, 0x300
     e57:	75d4f2                                    	addmi	a15, a4, 0x7500
     e5a:	75d442                                    	addmi	a4, a4, 0x7500
     e5d:	132f62                                    	l32i	a6, a15, 76
     e60:	4095c2                                    	l16si	a12, a5, 128
     e63:	142442                                    	l32i	a4, a4, 80
     e66:	256362                                    	s32i	a6, a3, 148
     e69:	266342                                    	s32i	a4, a3, 152
     e6c:	0002e0                                    	callx8	a2
     e6f:	f01d                                    	retw.n

00000e71 <SBAEC_INIT+0x459>:
     e71:	000000                                        ...

00000e74 <SBAEC_INIT_inear>:
     e74:	00a136                                    	entry	a1, 80
     e77:	fc6ab1                                    	l32r	a11, 20 (d8e0 <aec_nr_para>)
     e7a:	44d2d2                                    	addmi	a13, a2, 0x4400
     e7d:	579d92                                    	l16si	a9, a13, 174
     e80:	44d252                                    	addmi	a5, a2, 0x4400
     e83:	589da2                                    	l16si	a10, a13, 176
     e86:	44d242                                    	addmi	a4, a2, 0x4400
     e89:	0b88                                    	l32i.n	a8, a11, 0
     e8b:	599d62                                    	l16si	a6, a13, 178
     e8e:	569db2                                    	l16si	a11, a13, 172
     e91:	75d2e2                                    	addmi	a14, a2, 0x7500
     e94:	a149                                    	s32i.n	a4, a1, 40
     e96:	242e42                                    	l32i	a4, a14, 144
     e99:	131872                                    	l16ui	a7, a8, 38
     e9c:	99aa                                    	add.n	a9, a9, a10
     e9e:	fb6a                                    	add.n	a15, a11, a6
     ea0:	0888                                    	l32i.n	a8, a8, 0
     ea2:	b139                                    	s32i.n	a3, a1, 44
     ea4:	9f9a                                    	add.n	a9, a15, a9
     ea6:	29a232                                    	movi	a3, 0x229
     ea9:	d8a0c2                                    	movi	a12, 216
     eac:	9159                                    	s32i.n	a5, a1, 36
     eae:	e0a552                                    	movi	a5, 0x5e0
     eb1:	11b3c0                                    	slli	a11, a3, 4
     eb4:	b09920                                    	addx8	a9, a9, a2
     eb7:	8f5472                                    	s16i	a7, a4, 0x11e
     eba:	f8a0a2                                    	movi	a10, 248
     ebd:	af5472                                    	s16i	a7, a4, 0x15e
     ec0:	41dcc2                                    	addmi	a12, a12, 0x4100
     ec3:	cf5472                                    	s16i	a7, a4, 0x19e
     ec6:	1177f0                                    	slli	a7, a7, 1
     ec9:	436760                                    	min	a6, a7, a6
     ecc:	74aa                                    	add.n	a7, a4, a10
     ece:	51d9                                    	s32i.n	a13, a1, 20
     ed0:	b8a1d2                                    	movi	a13, 0x1b8
     ed3:	f9ba                                    	add.n	a15, a9, a11
     ed5:	585a                                    	add.n	a5, a8, a5
     ed7:	38a1b2                                    	movi	a11, 0x138
     eda:	78a132                                    	movi	a3, 0x178
     edd:	e2ca                                    	add.n	a14, a2, a12
     edf:	fc9581                                    	l32r	a8, 134 (101c <Fill_CH_MEM_WB>)
     ee2:	b4ba                                    	add.n	a11, a4, a11
     ee4:	c43a                                    	add.n	a12, a4, a3
     ee6:	d4da                                    	add.n	a13, a4, a13
     ee8:	07ad                                    	mov.n	a10, a7
     eea:	ef5462                                    	s16i	a6, a4, 0x1de
     eed:	61b9                                    	s32i.n	a11, a1, 24
     eef:	71c9                                    	s32i.n	a12, a1, 28
     ef1:	81d9                                    	s32i.n	a13, a1, 32
     ef3:	0159                                    	s32i.n	a5, a1, 0
     ef5:	22d252                                    	addmi	a5, a2, 0x2200
     ef8:	0008e0                                    	callx8	a8
     efb:	fc4931                                    	l32r	a3, 20 (d8e0 <aec_nr_para>)
     efe:	42d292                                    	addmi	a9, a2, 0x4200
     f01:	1c2552                                    	l32i	a5, a5, 112
     f04:	5168                                    	l32i.n	a6, a1, 20
     f06:	7c6452                                    	s32i	a5, a4, 0x1f0
     f09:	42d2b2                                    	addmi	a11, a2, 0x4200
     f0c:	03c8                                    	l32i.n	a12, a3, 0
     f0e:	162992                                    	l32i	a9, a9, 88
     f11:	42d2d2                                    	addmi	a13, a2, 0x4200
     f14:	4c6492                                    	s32i	a9, a4, 0x130
     f17:	262b52                                    	l32i	a5, a11, 152
     f1a:	5696b2                                    	l16si	a11, a6, 172
     f1d:	70cce2                                    	addi	a14, a12, 112
     f20:	5c6452                                    	s32i	a5, a4, 0x170
     f23:	ff9ec2                                    	l16si	a12, a14, 0x1fe
     f26:	07ad                                    	mov.n	a10, a7
     f28:	fc8451                                    	l32r	a5, 138 (1000 <Fill_sbco>)
     f2b:	362df2                                    	l32i	a15, a13, 216
     f2e:	b22482                                    	l32i	a8, a4, 0x2c8
     f31:	4d0c                                    	movi.n	a13, 4
     f33:	7b6482                                    	s32i	a8, a4, 0x1ec
     f36:	6c64f2                                    	s32i	a15, a4, 0x1b0
     f39:	0005e0                                    	callx8	a5
     f3c:	5796f2                                    	l16si	a15, a6, 174
     f3f:	0378                                    	l32i.n	a7, a3, 0
     f41:	61a8                                    	l32i.n	a10, a1, 24
     f43:	4d0c                                    	movi.n	a13, 4
     f45:	8f1b                                    	addi.n	a8, a15, 1
     f47:	72c772                                    	addi	a7, a7, 114
     f4a:	b38ff0                                    	movgez	a8, a15, a15
     f4d:	ff97c2                                    	l16si	a12, a7, 0x1fe
     f50:	21b180                                    	srai	a11, a8, 1
     f53:	057d                                    	mov.n	a7, a5
     f55:	0005e0                                    	callx8	a5
     f58:	0358                                    	l32i.n	a5, a3, 0
     f5a:	9168                                    	l32i.n	a6, a1, 36
     f5c:	71a8                                    	l32i.n	a10, a1, 28
     f5e:	4d0c                                    	movi.n	a13, 4
     f60:	74c552                                    	addi	a5, a5, 116
     f63:	5896b2                                    	l16si	a11, a6, 176
     f66:	ff95c2                                    	l16si	a12, a5, 0x1fe
     f69:	0007e0                                    	callx8	a7
     f6c:	0358                                    	l32i.n	a5, a3, 0
     f6e:	a168                                    	l32i.n	a6, a1, 40
     f70:	81a8                                    	l32i.n	a10, a1, 32
     f72:	4d0c                                    	movi.n	a13, 4
     f74:	76c552                                    	addi	a5, a5, 118
     f77:	5996b2                                    	l16si	a11, a6, 178
     f7a:	ff95c2                                    	l16si	a12, a5, 0x1fe
     f7d:	b4a262                                    	movi	a6, 0x2b4
     f80:	0007e0                                    	callx8	a7
     f83:	0358                                    	l32i.n	a5, a3, 0
     f85:	48a272                                    	movi	a7, 0x248
     f88:	3c0c                                    	movi.n	a12, 3
     f8a:	a46a                                    	add.n	a10, a4, a6
     f8c:	b57a                                    	add.n	a11, a5, a7
     f8e:	fc2551                                    	l32r	a5, 24 (a5c4 <xt_memcpy>)
     f91:	0005e0                                    	callx8	a5
     f94:	5138                                    	l32i.n	a3, a1, 20
     f96:	b1f8                                    	l32i.n	a15, a1, 44
     f98:	fc2271                                    	l32r	a7, 20 (d8e0 <aec_nr_para>)
     f9b:	44d262                                    	addmi	a6, a2, 0x4400
     f9e:	65a082                                    	movi	a8, 101
     fa1:	23a792                                    	movi	a9, 0x723
     fa4:	2e6342                                    	s32i	a4, a3, 184
     fa7:	1158b0                                    	slli	a5, a8, 5
     faa:	0738                                    	l32i.n	a3, a7, 0
     fac:	04ef16                                    	beqz	a15, ffe <SBAEC_INIT_inear+0x18a>
     faf:	5a96b2                                    	l16si	a11, a6, 180
     fb2:	f8a182                                    	movi	a8, 0x1f8
     fb5:	1199c0                                    	slli	a9, a9, 4
     fb8:	20c4f2                                    	addi	a15, a4, 32
     fbb:	131372                                    	l16ui	a7, a3, 38
     fbe:	c29a                                    	add.n	a12, a2, a9
     fc0:	03a8                                    	l32i.n	a10, a3, 0
     fc2:	11e7e0                                    	slli	a14, a7, 2
     fc5:	75d272                                    	addmi	a7, a2, 0x7500
     fc8:	da5a                                    	add.n	a13, a10, a5
     fca:	433eb0                                    	min	a3, a14, a11
     fcd:	fc5b51                                    	l32r	a5, 13c (10a4 <Fill_CH_MEM_CH5>)
     fd0:	ff5f32                                    	s16i	a3, a15, 0x1fe
     fd3:	348a                                    	add.n	a3, a4, a8
     fd5:	03ad                                    	mov.n	a10, a3
     fd7:	0005e0                                    	callx8	a5
     fda:	fc1151                                    	l32r	a5, 20 (d8e0 <aec_nr_para>)
     fdd:	4d0c                                    	movi.n	a13, 4
     fdf:	142722                                    	l32i	a2, a7, 80
     fe2:	5a96b2                                    	l16si	a11, a6, 180
     fe5:	8c6422                                    	s32i	a2, a4, 0x230
     fe8:	1527f2                                    	l32i	a15, a7, 84
     feb:	0558                                    	l32i.n	a5, a5, 0
     fed:	03ad                                    	mov.n	a10, a3
     fef:	fc5221                                    	l32r	a2, 138 (1000 <Fill_sbco>)
     ff2:	8b64f2                                    	s32i	a15, a4, 0x22c
     ff5:	03d552                                    	addmi	a5, a5, 0x300
     ff8:	4195c2                                    	l16si	a12, a5, 130
     ffb:	0002e0                                    	callx8	a2

00000ffe <SBAEC_INIT_inear+0x18a>:
     ffe:	f01d                                    	retw.n

00001000 <Fill_sbco>:
    1000:	004136                                    	entry	a1, 32
    1003:	ffa062                                    	movi	a6, 255
    1006:	11f400                                    	slli	a15, a4, 16
    1009:	7fd662                                    	addmi	a6, a6, 0x7f00
    100c:	115232                                    	s16i	a3, a2, 34
    100f:	105262                                    	s16i	a6, a2, 32
    1012:	125252                                    	s16i	a5, a2, 36
    1015:	52f9                                    	s32i.n	a15, a2, 20
    1017:	42f9                                    	s32i.n	a15, a2, 16
    1019:	f01d                                    	retw.n

0000101b <Fill_sbco+0x1b>:
	...

0000101c <Fill_CH_MEM_WB>:
    101c:	004136                                    	entry	a1, 32
    101f:	8188                                    	l32i.n	a8, a1, 32
    1021:	8ca092                                    	movi	a9, 140
    1024:	a0a0a2                                    	movi	a10, 160
    1027:	d389                                    	s32i.n	a8, a3, 52
    1029:	c8a0e2                                    	movi	a14, 200
    102c:	a279                                    	s32i.n	a7, a2, 40
    102e:	50c8c2                                    	addi	a12, a8, 80
    1031:	64c8f2                                    	addi	a15, a8, 100
    1034:	28c8b2                                    	addi	a11, a8, 40
    1037:	d2c9                                    	s32i.n	a12, a2, 52
    1039:	d4f9                                    	s32i.n	a15, a4, 52
    103b:	02d6f2                                    	addmi	a15, a6, 0x200
    103e:	f3b9                                    	s32i.n	a11, a3, 60
    1040:	f0a0c2                                    	movi	a12, 240
    1043:	78c8d2                                    	addi	a13, a8, 120
    1046:	b8ea                                    	add.n	a11, a8, a14
    1048:	989a                                    	add.n	a9, a8, a9
    104a:	a8aa                                    	add.n	a10, a8, a10
    104c:	f2d9                                    	s32i.n	a13, a2, 60
    104e:	6a9fe2                                    	l16si	a14, a15, 212
    1051:	c8ca                                    	add.n	a12, a8, a12
    1053:	f499                                    	s32i.n	a9, a4, 60
    1055:	f5a9                                    	s32i.n	a10, a5, 60
    1057:	6b9fa2                                    	l16si	a10, a15, 214
    105a:	02d6d2                                    	addmi	a13, a6, 0x200
    105d:	e3b9                                    	s32i.n	a11, a3, 56
    105f:	e2c9                                    	s32i.n	a12, a2, 56
    1061:	6c9fc2                                    	l16si	a12, a15, 216
    1064:	6d9d62                                    	l16si	a6, a13, 218
    1067:	90fe70                                    	addx2	a15, a14, a7
    106a:	907af0                                    	addx2	a7, a10, a15
    106d:	a3f9                                    	s32i.n	a15, a3, 40
    106f:	a479                                    	s32i.n	a7, a4, 40
    1071:	907c70                                    	addx2	a7, a12, a7
    1074:	906670                                    	addx2	a6, a6, a7
    1077:	a579                                    	s32i.n	a7, a5, 40
    1079:	b269                                    	s32i.n	a6, a2, 44
    107b:	906e60                                    	addx2	a6, a14, a6
    107e:	04a192                                    	movi	a9, 0x104
    1081:	a3b8                                    	l32i.n	a11, a3, 40
    1083:	a2d8                                    	l32i.n	a13, a2, 40
    1085:	90fa60                                    	addx2	a15, a10, a6
    1088:	889a                                    	add.n	a8, a8, a9
    108a:	c3b9                                    	s32i.n	a11, a3, 48
    108c:	c2d9                                    	s32i.n	a13, a2, 48
    108e:	a4e8                                    	l32i.n	a14, a4, 40
    1090:	902cf0                                    	addx2	a2, a12, a15
    1093:	b369                                    	s32i.n	a6, a3, 44
    1095:	c4e9                                    	s32i.n	a14, a4, 48
    1097:	b4f9                                    	s32i.n	a15, a4, 44
    1099:	e489                                    	s32i.n	a8, a4, 56
    109b:	c579                                    	s32i.n	a7, a5, 48
    109d:	b529                                    	s32i.n	a2, a5, 44
    109f:	f01d                                    	retw.n

000010a1 <Fill_CH_MEM_WB+0x85>:
    10a1:	000000                                        ...

000010a4 <Fill_CH_MEM_CH5>:
    10a4:	004136                                    	entry	a1, 32
    10a7:	903340                                    	addx2	a3, a3, a4
    10aa:	a249                                    	s32i.n	a4, a2, 40
    10ac:	c249                                    	s32i.n	a4, a2, 48
    10ae:	f259                                    	s32i.n	a5, a2, 60
    10b0:	b239                                    	s32i.n	a3, a2, 44
    10b2:	f01d                                    	retw.n

000010b4 <common_x_pow>:
    10b4:	004136                                    	entry	a1, 32
    10b7:	0ead456b09e143d0c48081390001030f 	{ ae_cvt48a32	aed0, a3; ae_cvt48a32	aed1, a4; nop; nop }
    10c7:	0eace870052912c8c50c20071262322f 	{ or	a3, a2, a2; movi	a2, 1; ae_abs64	aed2, aed0; ae_abs64	aed3, aed1 }
    10d7:	0ea5442510c62bd0c50083101884042f 	{ ae_lt64	b0, aed2, aed3; slli	a2, a2, 21; ae_sub64	aed4, aed3, aed2; nop }
    10e7:	20074240009f012e                  	{ movi	a2, 1; ae_cvt48a32	aed31, a2 }
    10ef:	0ead057b08c50cd0c5008139000114ff 	{ ae_lt64	b1, aed31, aed4; nop; nop; nop }
    10ff:	2a0076                                    	bf	b0, 112d <common_x_pow+0x79>
    1102:	1c0760400401ef4e                  	{ l32r	a4, 140 (2aaa00 <_end+0x29d114>); ae_mov	aed1, aed0 }
    110a:	210176                                    	bf	b1, 112f <common_x_pow+0x7b>
    110d:	050634c318e1647e                  	{ nop; ae_movda32x2	aed1, a4, a4 }
    1115:	2283530b3401b13e                  	{ nop; nop; ae_mulf48q32sp16s.l	aed1, aed0, aed1 }
    111d:	0ead017b08ec0cd0c50441381801020f 	{ j	112f <common_x_pow+0x7b>; nop; nop; ae_roundsq32f48asym	aed1, aed1 }

0000112d <common_x_pow+0x79>:
    112d:	020c                                    	movi.n	a2, 0
    112f:	fc0541                                    	l32r	a4, 144 (b540 <immediate_num>)
    1132:	220720c010c5723e                  	{ ae_l32m.i	aed2, a3, 8; nop }
    113a:	220720c100c5733e                  	{ ae_l32m.i	aed4, a3, 12; nop }
    1142:	230760c01c85b04e                  	{ ae_l16x2m.i	aed3, a4, 0; nop }
    114a:	0e1d029b0bfc0c25862b4e101843513f 	{ ae_sel16i	aed5, aed3, aed3, 1; nop; ae_mulf48q32sp16s.l	aed2, aed2, aed3; ae_mulf48q32sp16s.l	aed3, aed4, aed3 }
    115a:	0e9d241b0d4c0c0887130e100c05015f 	{ nop; nop; ae_mulaf48q32sp16s.l	aed2, aed0, aed5; ae_mulaf48q32sp16s.l	aed3, aed1, aed5 }
    116a:	0ead217b0d540cd0c50041380c01015f 	{ nop; nop; nop; ae_roundsq32f48asym	aed0, aed2 }
    117a:	0ead217b0d3d0cd0c58441390001023f 	{ ae_s32m.i	aed0, a3, 8; nop; nop; ae_roundsq32f48asym	aed1, aed3 }
    118a:	220760c008c5b33e                  	{ ae_s32m.i	aed1, a3, 12; nop }
    1192:	f01d                                    	retw.n

00001194 <ref_gain_adapt>:
    1194:	004136                                    	entry	a1, 32
    1197:	200704410c81037e                  	{ l32i	a7, a3, 20; ae_cvt48a32	aed1, a4 }
    119f:	210767471400c96e                  	{ l32r	a6, 144 (b540 <immediate_num>); ae_cvt48a32	aed0, a7 }
    11a7:	0955d6                                    	bgez	a5, 1240 <ref_gain_adapt+0xac>
    11aa:	100416c10883125e                  	{ l16si	a5, a2, 10; ae_l16x2m.i	aed3, a6, 4 }
    11b2:	070021c318e2747e                  	{ nop; ae_sel16i	aed2, aed3, aed3, 1 }
    11ba:	228313222422f50e                  	{ slli	a15, a5, 16; nop; ae_mulf48q32sp16s.l	aed4, aed1, aed2 }
    11c2:	21072f4318e2647e                  	{ nop; ae_cvt48a32	aed2, a15 }
    11ca:	0ead057b08c40cd0c50081390001042f 	{ ae_lt64	b0, aed2, aed4; nop; nop; nop }
    11da:	2a1076                                    	bt	b0, 1208 <ref_gain_adapt+0x74>
    11dd:	230760c01c85b26e                  	{ ae_l16x2m.i	aed3, a6, 8; nop }
    11e5:	070021c318e4747e                  	{ nop; ae_sel16i	aed4, aed3, aed3, 1 }
    11ed:	228353233424b13e                  	{ nop; nop; ae_mulf48q32sp16s.l	aed4, aed1, aed4 }
    11f5:	0ead057b08c40cd0c50081390001042f 	{ ae_lt64	b0, aed2, aed4; nop; nop; nop }
    1205:	730076                                    	bf	b0, 127c <ref_gain_adapt+0xe8>

00001208 <ref_gain_adapt+0x74>:
    1208:	2283530b3403b13e                  	{ nop; nop; ae_mulf48q32sp16s.l	aed1, aed0, aed3 }
    1210:	1e83540b3403b13e                  	{ nop; nop; ae_mulaf48q32sp16s.l	aed1, aed0, aed3 }
    1218:	220740c000e5116e                  	{ ae_mov	aed0, aed1; nop }
    1220:	0ead217b0d440cd0c50041380c01015f 	{ nop; nop; nop; ae_roundsq32f48asym	aed0, aed0 }
    1230:	0ead257b0d240cd0c400813b0c01670f 	{ ae_trunca32q48	a7, aed0; nop; nop; nop }
    1240:	120c                                    	movi.n	a2, 1
    1242:	0122b0                                    	slli	a2, a2, 21
    1245:	532720                                    	max	a2, a7, a2
    1248:	5329                                    	s32i.n	a2, a3, 20
    124a:	050563401481a56e                  	{ ae_l16x2m.i	aed2, a6, 20; ae_l32m.i	aed1, a3, 16 }
    1252:	228113083022422e                  	{ ae_sel16i	aed2, aed2, aed2, 1; nop; ae_mulf48q32sp16s.l	aed1, aed1, aed2 }
    125a:	1e83540b3402b13e                  	{ nop; nop; ae_mulaf48q32sp16s.l	aed1, aed0, aed2 }
    1262:	0ead217b0d4c0cd0c50041380c01015f 	{ nop; nop; nop; ae_roundsq32f48asym	aed0, aed1 }
    1272:	220760c000c5b43e                  	{ ae_s32m.i	aed0, a3, 16; nop }
    127a:	f01d                                    	retw.n

0000127c <ref_gain_adapt+0xe8>:
    127c:	2302f2401c80a36e                  	{ ae_l16x2m.i	aed3, a6, 12; addmi	a2, a2, 0x200 }
    1284:	228113292043433e                  	{ ae_sel16i	aed4, aed3, aed3, 1; nop; ae_mulf48q32sp16s.l	aed5, aed2, aed3 }
    128c:	ce0222                                    	l8ui	a2, a2, 206
    128f:	340c                                    	movi.n	a4, 3
    1291:	228353233444b13e                  	{ nop; nop; ae_mulf48q32sp16s.l	aed4, aed2, aed4 }
    1299:	0ead057b08c40cd0c50081380801145f 	{ ae_lt64	b1, aed5, aed1; nop; nop; nop }
    12a9:	0ead057b08c40cd0c50081390001041f 	{ ae_lt64	b0, aed1, aed4; nop; nop; nop }
    12b9:	021076                                    	bt	b0, 12bf <ref_gain_adapt+0x12b>
    12bc:	ffd806                                    	j	1220 <ref_gain_adapt+0x8c>
    12bf:	051176                                    	bt	b1, 12c8 <ref_gain_adapt+0x134>
    12c2:	028427                                    	bany	a4, a2, 12c8 <ref_gain_adapt+0x134>
    12c5:	ffd5c6                                    	j	1220 <ref_gain_adapt+0x8c>
    12c8:	230760c00c85b46e                  	{ ae_l16x2m.i	aed1, a6, 16; nop }
    12d0:	228353033401b13e                  	{ nop; nop; ae_mulf48q32sp16s.l	aed0, aed0, aed1 }
    12d8:	ffd106                                    	j	1220 <ref_gain_adapt+0x8c>

000012db <ref_gain_adapt+0x147>:
	...

000012dc <aec_post_calc>:
    12dc:	006136                                    	entry	a1, 48
    12df:	0c4466                                    	bnei	a4, 4, 12ef <aec_post_calc+0x13>
    12e2:	20c242                                    	addi	a4, a2, 32
    12e5:	000246                                    	j	12f2 <aec_post_calc+0x16>

000012e8 <aec_post_calc+0xc>:
    12e8:	00000000                                 .......

000012ef <aec_post_calc+0x13>:
    12ef:	1ec242                                    	addi	a4, a2, 30
    12f2:	150c                                    	movi.n	a5, 1
    12f4:	170c                                    	movi.n	a7, 1
    12f6:	0155d0                                    	slli	a5, a5, 19
    12f9:	117700                                    	slli	a7, a7, 16
    12fc:	200765400481604e                  	{ ae_l16m.i	aed0, a4, 0; ae_cvt48a32	aed1, a5 }
    1304:	0e9cc68811e53cd0c4808f090020270f 	{ ae_cvt48a32	aed2, a7; l32i	a12, a3, 8; ae_mulf48q32sp16u.l	aed1, aed1, aed0; nop }
    1314:	228354033440b13e                  	{ nop; nop; ae_mulf48q32sp16u.l	aed0, aed2, aed0 }
    131c:	220760c008c5b31e                  	{ ae_s32m.i	aed1, a1, 12; nop }
    1324:	3c03e14000c0b31e                  	{ ae_s32m.i	aed0, a1, 12; l32i	a13, a1, 12 }
    132c:	3368                                    	l32i.n	a6, a3, 12
    132e:	31e8                                    	l32i.n	a14, a1, 12
    1330:	fb8641                                    	l32r	a4, 148 (7324 <airoha_divide_limit_1>)
    1333:	53bcd0                                    	max	a11, a12, a13
    1336:	53f6e0                                    	max	a15, a6, a14
    1339:	43abf0                                    	min	a10, a11, a15
    133c:	0004e0                                    	callx8	a4
    133f:	140532c010c0663e                  	{ ae_l32m.i	aed2, a3, 24; ae_l32.i	aed0, a2, 16 }
    1347:	1a061ac60081024e                  	{ l16si	a4, a2, 48; ae_truncp24a32x2	aed1, a10, a10 }
    134f:	1e81cb162020225e                  	{ l16si	a5, a2, 4; nop; ae_mulaf32s.ll	aed2, aed1, aed0 }
    1357:	0b9272                                    	l16si	a7, a2, 22
    135a:	0a9282                                    	l16si	a8, a2, 20
    135d:	0eace160bd3429d0c40841380001006f 	{ movi	a6, 0; l16si	a9, a2, 46; nop; ae_roundsq32f48asym	aed2, aed2 }
    136d:	1c07604010c2b63e                  	{ ae_s32m.i	aed2, a3, 24; ae_mov	aed2, aed1 }
    1375:	a82b                                    	addi.n	a10, a8, 2
    1377:	13a547                                    	bge	a5, a4, 138e <aec_post_calc+0xb2>
    137a:	725690                                    	salt	a5, a6, a9
    137d:	83a850                                    	moveqz	a10, a8, a5
    1380:	67eda4                                    	wur.ae_sar	a10
    1383:	220700c308a5901e                  	{ ae_slas24s	aed2, aed1; nop }
    138b:	000a46                                    	j	13b8 <aec_post_calc+0xdc>

0000138e <aec_post_calc+0xb2>:
    138e:	074d                                    	mov.n	a4, a7
    1390:	2427a6                                    	blti	a7, 2, 13b8 <aec_post_calc+0xdc>
    1393:	944d                                    	ae_zext16	a4, a4
    1395:	1c0760471c62f44e                  	{ addi	a4, a4, -1; ae_mov	aed2, aed1 }
    139d:	178476                                    	loop	a4, 13b8 <aec_post_calc+0xdc>
    13a0:	22834a133441b13e                  	{ nop; nop; ae_mulf32s.ll	aed2, aed2, aed1 }
    13a8:	0ead057b08e40cd0c48081381401e22f 	{ ae_round24x2f48sasym	aed2, aed2, aed2; nop; nop; nop }

000013b8 <aec_post_calc+0xdc>:
    13b8:	060563400c9f772e                  	{ ae_l16m.i	aed1, a2, 14; ae_l32m.i	aed31, a3, 28 }
    13c0:	220740c00c85112e                  	{ ae_max32	aed1, aed2, aed1; nop }
    13c8:	1e834bfb3420b13e                  	{ nop; nop; ae_mulaf32s.ll	aed31, aed1, aed0 }
    13d0:	0ead3d7b0d5c0cd0c50041380c01015f 	{ nop; nop; nop; ae_roundsq32f48asym	aed0, aed31 }
    13e0:	220760c000c5b73e                  	{ ae_s32m.i	aed0, a3, 28; nop }
    13e8:	f01d                                    	retw.n

000013ea <aec_post_calc+0x10e>:
	...

000013ec <aec_post_calc_FB>:
    13ec:	006136                                    	entry	a1, 48
    13ef:	140c                                    	movi.n	a4, 1
    13f1:	160c                                    	movi.n	a6, 1
    13f3:	0144d0                                    	slli	a4, a4, 19
    13f6:	1ec272                                    	addi	a7, a2, 30
    13f9:	2107244510a0060e                  	{ slli	a6, a6, 16; ae_cvt48a32	aed0, a4 }
    1401:	200766400c82607e                  	{ ae_l16m.i	aed1, a7, 0; ae_cvt48a32	aed2, a6 }
    1409:	0e1cc28dc1ec2415832b6f00140103cf 	{ l32i	a12, a3, 8; l32i	a4, a2, 0x2e0; ae_mulf48q32sp16u.l	aed0, aed0, aed1; ae_mulf48q32sp16u.l	aed1, aed2, aed1 }
    1419:	3e03e34000c0a31e                  	{ ae_s32m.i	aed0, a1, 12; l32i	a14, a3, 12 }
    1421:	3c03e14008c0b31e                  	{ ae_s32m.i	aed1, a1, 12; l32i	a13, a1, 12 }
    1429:	31f8                                    	l32i.n	a15, a1, 12
    142b:	53bcd0                                    	max	a11, a12, a13
    142e:	535ef0                                    	max	a5, a14, a15
    1431:	43ab50                                    	min	a10, a11, a5
    1434:	fb4551                                    	l32r	a5, 148 (7324 <airoha_divide_limit_1>)
    1437:	0005e0                                    	callx8	a5
    143a:	2402b44010c0763e                  	{ ae_l32m.i	aed2, a3, 24; addmi	a5, a4, 0x200 }
    1442:	1a063ac004c1242e                  	{ ae_l32.i	aed0, a2, 16; ae_truncp24a32x2	aed1, a10, a10 }
    144a:	1e81cb162020226e                  	{ l16si	a6, a2, 4; nop; ae_mulaf32s.ll	aed2, aed1, aed0 }
    1452:	5d9552                                    	l16si	a5, a5, 186
    1455:	0b9272                                    	l16si	a7, a2, 22
    1458:	02d482                                    	addmi	a8, a4, 0x200
    145b:	0eace168247249d0c5084138140122bf 	{ l16si	a11, a2, 20; addmi	a9, a4, 0x400; nop; ae_roundsq32f48asym	aed2, aed2 }
    146b:	1c07604010c2b63e                  	{ ae_s32m.i	aed2, a3, 24; ae_mov	aed2, aed1 }
    1473:	1fa657                                    	bge	a6, a5, 1496 <aec_post_calc_FB+0xaa>
    1476:	5e9852                                    	l16si	a5, a8, 188
    1479:	4a9962                                    	l16si	a6, a9, 148
    147c:	7b2b                                    	addi.n	a7, a11, 2
    147e:	725650                                    	salt	a5, a6, a5
    1481:	837b50                                    	moveqz	a7, a11, a5
    1484:	67ed74                                    	wur.ae_sar	a7
    1487:	220700c308a5901e                  	{ ae_slas24s	aed2, aed1; nop }
    148f:	000b46                                    	j	14c0 <aec_post_calc_FB+0xd4>

00001492 <aec_post_calc_FB+0xa6>:
    1492:	00000000                                ....

00001496 <aec_post_calc_FB+0xaa>:
    1496:	072d                                    	mov.n	a2, a7
    1498:	2427a6                                    	blti	a7, 2, 14c0 <aec_post_calc_FB+0xd4>
    149b:	922d                                    	ae_zext16	a2, a2
    149d:	1c0760471c62f22e                  	{ addi	a2, a2, -1; ae_mov	aed2, aed1 }
    14a5:	178276                                    	loop	a2, 14c0 <aec_post_calc_FB+0xd4>
    14a8:	22834a133441b13e                  	{ nop; nop; ae_mulf32s.ll	aed2, aed2, aed1 }
    14b0:	0ead057b08e40cd0c48081381401e22f 	{ ae_round24x2f48sasym	aed2, aed2, aed2; nop; nop; nop }

000014c0 <aec_post_calc_FB+0xd4>:
    14c0:	b4a222                                    	movi	a2, 0x2b4
    14c3:	060563400c9f924e                  	{ ae_l16m.x	aed1, a4, a2; ae_l32m.i	aed31, a3, 28 }
    14cb:	220740c00c85112e                  	{ ae_max32	aed1, aed2, aed1; nop }
    14d3:	1e834bfb3420b13e                  	{ nop; nop; ae_mulaf32s.ll	aed31, aed1, aed0 }
    14db:	0ead3d7b0d5c0cd0c50041380c01015f 	{ nop; nop; nop; ae_roundsq32f48asym	aed0, aed31 }
    14eb:	220760c000c5b73e                  	{ ae_s32m.i	aed0, a3, 28; nop }
    14f3:	f01d                                    	retw.n

000014f5 <aec_post_calc_FB+0x109>:
    14f5:	000000                                        ...

000014f8 <subband_aec_block>:
    14f8:	008136                                    	entry	a1, 64
    14fb:	a388                                    	l32i.n	a8, a3, 40
    14fd:	f41b                                    	addi.n	a15, a4, 1
    14ff:	0d0740400ca84c0e                  	{ ae_movi	aed1, 0; ae_movi	aed8, 0 }
    1507:	1193e2                                    	l16si	a14, a3, 34
    150a:	6169                                    	s32i.n	a6, a1, 24
    150c:	a378                                    	l32i.n	a7, a3, 40
    150e:	b3f440                                    	movgez	a15, a4, a4
    1511:	f3f670                                    	wur.ae_cbegin0	a7
    1514:	906e80                                    	addx2	a6, a14, a8
    1517:	2191f0                                    	srai	a9, a15, 1
    151a:	f3f760                                    	wur.ae_cend0	a6
    151d:	e388                                    	l32i.n	a8, a3, 56
    151f:	5149                                    	s32i.n	a4, a1, 20
    1521:	0c23a2                                    	l32i	a10, a3, 48
    1524:	7824a6                                    	blti	a4, 2, 15a0 <subband_aec_block+0xa8>
    1527:	040503450480a27e                  	{ l32i	a7, a2, 0x2d0; ae_l32m.i	aed0, a3, 16 }
    152f:	04a062                                    	movi	a6, 4
    1532:	204aa0                                    	or	a4, a10, a10
    1535:	100478c70462e77e                  	{ addi	a7, a7, -4; ae_l16x2m.i	aed2, a8, 0 }
    153d:	5f8976                                    	loop	a9, 15a0 <subband_aec_block+0xa8>
    1540:	0e9cc690fbe646d0c4008e201002312f 	{ ae_sel16i	aed3, aed2, aed2, 1; ae_l16x2m.xc	aed31, a4, a6; ae_mulf48q32sp16s.l	aed4, aed0, aed2; nop }
    1550:	0e9d229b0d540c0089130ee80c03015f 	{ nop; nop; ae_mulf48q32sp16s.l	aed29, aed0, aed3; ae_mulaf48q32sp16s.l	aed4, aed0, aed2 }
    1560:	0e1d3c1b0d5c0cfe432f4ee80c03015f 	{ nop; nop; ae_mulaf48q32sp16s.l	aed29, aed0, aed3; ae_mulssfd32s.hh.ll	aed1, aed31, aed31 }
    1570:	0ead257b0d440ce8c37881380c01015f 	{ nop; nop; nop; ae_roundsp16q48x2asym	aed30, aed4, aed4 }
    1580:	0ead3d7b0d4c0ce8c30ba1380c01015f 	{ nop; nop; nop; ae_roundsp16q48x2asym	aed2, aed29, aed29 }
    1590:	3c0071401483c18e                  	{ ae_l16x2m.iu	aed2, a8, 4; ae_sel16i	aed3, aed2, aed30, 2 }
    1598:	1c82da092063317e                  	{ ae_s16x2m.iu	aed3, a7, 4; nop; ae_mulaafd32s.hh.ll	aed1, aed3, aed3 }

000015a0 <subband_aec_block+0xa8>:
    15a0:	0e6ce5684d3d2f400600213f00018f3f 	{ ae_l64.i	aed30, a3, 0; l32i	a15, a2, 36; nop; ae_srai64	aed0, aed1, 8 }
    15b0:	0ea5440bf9e0f3d0c5009e051d60119f 	{ s32i	a9, a1, 28; ae_cvt48a32	aed31, a15; ae_add64	aed0, aed30, aed0; nop }
    15c0:	0eacc42081e432d0c50080050560112f 	{ s32i	a2, a1, 16; l16si	a2, a3, 32; ae_sat48s	aed0, aed0; nop }
    15d0:	0ead057b08e40cd0c480813f1c01000f 	{ ae_max64	aed0, aed0, aed31; nop; nop; nop }
    15e0:	220700c000e5933e                  	{ ae_s64.i	aed0, a3, 0; nop }
    15e8:	01d5d6                                    	bgez	a5, 1609 <subband_aec_block+0x111>
    15eb:	0ead6565d52627d0c400813b0c016b0f 	{ ae_trunca32q48	a11, aed0; slli	a10, a2, 9; nop; nop }
    15fb:	fad421                                    	l32r	a2, 14c (7270 <airoha_divide>)
    15fe:	0002e0                                    	callx8	a2
    1601:	230740c204a55c0e                  	{ ae_movi	aed8, 0; nop }

00001609 <subband_aec_block+0x111>:
    1609:	5148                                    	l32i.n	a4, a1, 20
    160b:	c328                                    	l32i.n	a2, a3, 48
    160d:	4178                                    	l32i.n	a7, a1, 16
    160f:	d368                                    	l32i.n	a6, a3, 52
    1611:	f3c8                                    	l32i.n	a12, a3, 60
    1613:	0c0700440882038e                  	{ l16si	a8, a3, 34; ae_movi	aed2, 0 }
    161b:	51d8                                    	l32i.n	a13, a1, 20
    161d:	0214e6                                    	bgei	a4, 1, 1623 <subband_aec_block+0x12b>
    1620:	005386                                    	j	1772 <subband_aec_block+0x27a>
    1623:	20070b450480a77e                  	{ l32i	a7, a7, 0x2d0; ae_cvt48a32	aed0, a11 }
    162b:	feccb2                                    	addi	a11, a12, -2
    162e:	02a092                                    	movi	a9, 2
    1631:	fec6c2                                    	addi	a12, a6, -2
    1634:	21f380                                    	srai	a15, a8, 3
    1637:	fec7e2                                    	addi	a14, a7, -2
    163a:	230760c00c8571ee                  	{ ae_l16m.iu	aed1, a14, 2; nop }
    1642:	1d0741400cc1292e                  	{ ae_s16m.l.xc	aed1, a2, a9; ae_mov	aed1, aed2 }
    164a:	207220                                    	or	a7, a2, a2
    164d:	000003f8000000fbb50303062460f8cf 	{ blti.w15	a8, 8, 1690 <subband_aec_block+0x198>; ae_la16x4x2pos.pc	u0, a7; nop }
    165d:	0b2342                                    	l32i	a4, a3, 44
    1660:	000080c453e341004a830321b000f00f 	{ loop	a15, 1690 <subband_aec_block+0x198>; ae_l16x4x2.ip	aed3, aed4, a4, 16; nop }
    1670:	0000814954460f0046031323b000917f 	{ ae_la16x4x2_ic	aed5, aed6, u0, a7; nop; nop }
    1680:	026d017b0bfd0c284410c13d0001c14f 	{ ae_l16x4x2.ip	aed3, aed4, a4, 16; nop; nop; ae_mulaaaa2q16	aed2, aed1, aed5, aed6, aed3, aed4 }

00001690 <subband_aec_block+0x198>:
    1690:	0e6ce9711902c148478021380401852f 	{ ae_slai64	aed2, aed2, 17; ae_l16m.iu	aed3, a12, 2; nop; ae_slai64	aed1, aed1, 17 }
    16a0:	220740c018e5132e                  	{ ae_cvtq56p32s.l	aed3, aed3; nop }
    16a8:	0ead057b08e40cd0c58081381001e23f 	{ ae_sub64	aed2, aed3, aed2; nop; nop; nop }
    16b8:	0ead057b08e40cd0c58081380801e12f 	{ ae_sub64	aed1, aed2, aed1; nop; nop; nop }
    16c8:	0ead217b0d4c0ce8c30421380c01015f 	{ nop; nop; nop; ae_roundsp16q48x2asym	aed1, aed1, aed1 }
    16d8:	2282b30f300111be                  	{ ae_s16m.l.iu	aed1, a11, 2; nop; ae_mulf48q32sp16s.l	aed1, aed0, aed1 }
    16e0:	0845d6                                    	bgez	a5, 1768 <subband_aec_block+0x270>
    16e3:	220700c010a55a1e                  	{ ae_slaasq56s	aed1, aed1, a10; nop }
    16eb:	0ead217b0c0c0ca8c204213c1001c07f 	{ ae_la16x4x2_ic	aed3, aed2, u0, a7; nop; nop; ae_round32x2f48sasym	aed1, aed1, aed1 }
    16fb:	6988a6                                    	blti	a8, 8, 1768 <subband_aec_block+0x270>
    16fe:	b348                                    	l32i.n	a4, a3, 44
    1700:	230720c318e5747e                  	{ nop; nop }
    1708:	0020f0                                    	nop
    170b:	f03d                                    	nop.n
    170d:	578f76                                    	loop	a15, 1768 <subband_aec_block+0x270>
    1710:	0e1d033b0bfd0c0f882b4df51823854f 	{ ae_l16x4x2.ip	aed6, aed7, a4, 16; nop; ae_mulfp32x16x2s.l	aed30, aed1, aed3; ae_mulfp32x16x2s.h	aed4, aed1, aed3 }
    1720:	0e1d233b0d540c0f8b2b4df80c22015f 	{ nop; nop; ae_mulfp32x16x2s.l	aed31, aed1, aed2; ae_mulfp32x16x2s.h	aed5, aed1, aed2 }
    1730:	230740c01c859e4e                  	{ ae_round16x4f32sasym	aed3, aed4, aed30; nop }
    1738:	0ea5241b0d040cd0c48085f81b62d06f 	{ ae_add16s	aed4, aed6, aed3; nop; ae_round16x4f32sasym	aed2, aed5, aed31; nop }
    1748:	0ead25621d0070d0c48081381001d17f 	{ ae_add16s	aed5, aed7, aed2; ae_la16x4x2_ic	aed3, aed2, u0, a7; nop; nop }
    1758:	0000814957a60f005e030323a800b04f 	{ ae_s16x4x2.i	aed4, aed5, a4, -16; nop; nop }
    1768:	dd0b                                    	addi.n	a13, a13, -1
    176a:	0c07603903c26dee                  	{ bnez.w15	a13, 163a <subband_aec_block+0x142>; ae_movi	aed2, 0 }

00001772 <subband_aec_block+0x27a>:
    1772:	51f8                                    	l32i.n	a15, a1, 20
    1774:	c329                                    	s32i.n	a2, a3, 48
    1776:	0d0740400ca04c0e                  	{ ae_movi	aed1, 0; ae_movi	aed0, 0 }
    177e:	d328                                    	l32i.n	a2, a3, 52
    1780:	7168                                    	l32i.n	a6, a1, 28
    1782:	f348                                    	l32i.n	a4, a3, 60
    1784:	282fa6                                    	blti	a15, 2, 17b0 <subband_aec_block+0x2b8>
    1787:	fcc222                                    	addi	a2, a2, -4
    178a:	fcc442                                    	addi	a4, a4, -4
    178d:	1f8676                                    	loop	a6, 17b0 <subband_aec_block+0x2b8>
    1790:	200474c01483d12e                  	{ ae_l16x2m.iu	aed2, a2, 4; ae_l16x2m.iu	aed3, a4, 4 }
    1798:	0e1523fb0d540c16032b38000c43015f 	{ nop; nop; ae_mulaafd32s.hh.ll	aed0, aed2, aed3; ae_mulaafd32s.hh.ll	aed1, aed2, aed2 }
    17a8:	1c835a433463b13e                  	{ nop; nop; ae_mulaafd32s.hh.ll	aed8, aed3, aed3 }

000017b0 <subband_aec_block+0x2b8>:
    17b0:	0e6cc17001f80660870101381401112f 	{ l32i	a2, a1, 24; movi	a6, 0; nop; ae_srai64	aed2, aed8, 4 }
    17c0:	0ea4e430052014d0c40088100082007f 	{ movi	a7, 0; movi	a4, 1; ae_sub64	aed2, aed8, aed2; nop }
    17d0:	0ead057b08c40cd0c50081381001041f 	{ ae_lt64	b0, aed1, aed2; nop; nop; nop }
    17e0:	0442a6                                    	blti	a2, 4, 17e8 <subband_aec_block+0x2f0>
    17e3:	070c                                    	movi.n	a7, 0
    17e5:	d37400                                    	movt	a7, a4, b0

000017e8 <subband_aec_block+0x2f0>:
    17e8:	0e6ce169211e38600780013a0c01501f 	{ ae_srai64	aed1, aed1, 4; l8ui	a8, a3, 36; nop; ae_srai64	aed0, aed0, 4 }
    17f8:	0eacc17001e80ad0c50441380401119f 	{ l32i	a9, a1, 16; movi	a10, 0; nop; ae_roundsq32f48asym	aed1, aed1 }
    1808:	0ead217b0d240cd0c400413b0c01641f 	{ ae_trunca32q48	a4, aed1; nop; nop; ae_roundsq32f48asym	aed0, aed0 }
    1818:	0ead257b0d240cd0c400813b0c01620f 	{ ae_trunca32q48	a2, aed0; nop; nop; nop }
    1828:	056827                                    	bbci	a8, 2, 1831 <subband_aec_block+0x339>
    182b:	b82962                                    	l32i	a6, a9, 0x2e0
    182e:	626a60                                    	saltu	a6, a10, a6
    1831:	fa4781                                    	l32r	a8, 150 (10b4 <common_x_pow>)
    1834:	03ad                                    	mov.n	a10, a3
    1836:	04bd                                    	mov.n	a11, a4
    1838:	02cd                                    	mov.n	a12, a2
    183a:	0008e0                                    	callx8	a8
    183d:	7a7a                                    	add.n	a7, a10, a7
    183f:	36ac                                    	beqz.n	a6, 1866 <subband_aec_block+0x36e>
    1841:	6168                                    	l32i.n	a6, a1, 24
    1843:	1f1766                                    	bnei	a7, 1, 1866 <subband_aec_block+0x36e>
    1846:	4178                                    	l32i.n	a7, a1, 16
    1848:	0b46e6                                    	bgei	a6, 4, 1857 <subband_aec_block+0x35f>
    184b:	b82762                                    	l32i	a6, a7, 0x2e0
    184e:	02d662                                    	addmi	a6, a6, 0x200
    1851:	5d9662                                    	l16si	a6, a6, 186
    1854:	1c16e6                                    	bgei	a6, 1, 1874 <subband_aec_block+0x37c>
    1857:	212220                                    	srai	a2, a2, 2
    185a:	602120                                    	abs	a2, a2
    185d:	902220                                    	addx2	a2, a2, a2
    1860:	04a247                                    	bge	a2, a4, 1868 <subband_aec_block+0x370>
    1863:	000346                                    	j	1874 <subband_aec_block+0x37c>

00001866 <subband_aec_block+0x36e>:
    1866:	a78c                                    	beqz.n	a7, 1874 <subband_aec_block+0x37c>
    1868:	f3a8                                    	l32i.n	a10, a3, 60
    186a:	51c8                                    	l32i.n	a12, a1, 20
    186c:	d3b8                                    	l32i.n	a11, a3, 52
    186e:	f9ed21                                    	l32r	a2, 24 (a5c4 <xt_memcpy>)
    1871:	0002e0                                    	callx8	a2
    1874:	4148                                    	l32i.n	a4, a1, 16
    1876:	1c0c                                    	movi.n	a12, 1
    1878:	fa3721                                    	l32r	a2, 154 (1894 <sbaec_common1>)
    187b:	03bd                                    	mov.n	a11, a3
    187d:	05dd                                    	mov.n	a13, a5
    187f:	04ad                                    	mov.n	a10, a4
    1881:	0002e0                                    	callx8	a2
    1884:	fa3521                                    	l32r	a2, 158 (19bc <sbaec_common2>)
    1887:	04ad                                    	mov.n	a10, a4
    1889:	61c8                                    	l32i.n	a12, a1, 24
    188b:	03bd                                    	mov.n	a11, a3
    188d:	05dd                                    	mov.n	a13, a5
    188f:	0002e0                                    	callx8	a2
    1892:	f01d                                    	retw.n

00001894 <sbaec_common1>:
    1894:	006136                                    	entry	a1, 48
    1897:	139362                                    	l16si	a6, a3, 38
    189a:	1f0c                                    	movi.n	a15, 1
    189c:	0c0700440880037e                  	{ l16si	a7, a3, 34; ae_movi	aed0, 0 }
    18a4:	036152                                    	s32i	a5, a1, 12
    18a7:	c05f40                                    	sub	a5, a15, a4
    18aa:	01c482                                    	addi	a8, a4, 1
    18ad:	0b2392                                    	l32i	a9, a3, 44
    18b0:	401500                                    	ssl	a5
    18b3:	c07760                                    	sub	a7, a7, a6
    18b6:	a14700                                    	sll	a4, a7
    18b9:	400800                                    	ssr	a8
    18bc:	b17060                                    	sra	a7, a6
    18bf:	904490                                    	addx2	a4, a4, a9
    18c2:	1217a6                                    	blti	a7, 1, 18d8 <sbaec_common1+0x44>
    18c5:	230720c00ca5b14e                  	{ ae_l16x4.ip	aed1, a4, 8; nop }
    18cd:	078776                                    	loop	a7, 18d8 <sbaec_common1+0x44>
    18d0:	1c826a002021134e                  	{ ae_l16x4.ip	aed1, a4, 8; nop; ae_mulaaaaq16	aed0, aed1, aed1 }

000018d8 <sbaec_common1+0x44>:
    18d8:	0e6ccd7001e80978070001381c01038f 	{ l32i	a8, a3, 12; movi	a9, 0; nop; ae_slai64s	aed0, aed0, 31 }
    18e8:	0eacc56810e43bd0c58081380001400f 	{ ae_round32x2f64sasym	aed0, aed0, aed0; l32i	a11, a3, 8; nop; nop }
    18f8:	230700c000e5d64e                  	{ ae_movad32.l	a4, aed0; nop }
    1900:	53a890                                    	max	a10, a8, a9
    1903:	fa1181                                    	l32r	a8, 148 (7324 <airoha_divide_limit_1>)
    1906:	0008e0                                    	callx8	a8
    1909:	ffa082                                    	movi	a8, 255
    190c:	049292                                    	l16si	a9, a2, 8
    190f:	7fd882                                    	addmi	a8, a8, 0x7f00
    1912:	2403f2                                    	l8ui	a15, a3, 36
    1915:	31a0a0                                    	srai	a10, a10, 16
    1918:	0392e2                                    	l16si	a14, a2, 6
    191b:	c088a0                                    	sub	a8, a8, a10
    191e:	31d8                                    	l32i.n	a13, a1, 12
    1920:	538890                                    	max	a8, a8, a9
    1923:	02ad                                    	mov.n	a10, a2
    1925:	03bd                                    	mov.n	a11, a3
    1927:	09ef17                                    	bbsi	a15, 1, 1934 <sbaec_common1+0xa0>
    192a:	105382                                    	s16i	a8, a3, 32
    192d:	0005c6                                    	j	1948 <sbaec_common1+0xb4>

00001930 <sbaec_common1+0x9c>:
    1930:	00000000                                ....

00001934 <sbaec_common1+0xa0>:
    1934:	04cd                                    	mov.n	a12, a4
    1936:	8288e0                                    	mull	a8, a8, a14
    1939:	40d882                                    	addmi	a8, a8, 0x4000
    193c:	418f80                                    	srli	a8, a8, 15
    193f:	105382                                    	s16i	a8, a3, 32
    1942:	fa0681                                    	l32r	a8, 15c (1194 <ref_gain_adapt>)
    1945:	0008e0                                    	callx8	a8
    1948:	059282                                    	l16si	a8, a2, 10
    194b:	290c                                    	movi.n	a9, 2
    194d:	069222                                    	l16si	a2, a2, 12
    1950:	f9fda1                                    	l32r	a10, 144 (b540 <immediate_num>)
    1953:	118800                                    	slli	a8, a8, 16
    1956:	f9fbc1                                    	l32r	a12, 144 (b540 <immediate_num>)
    1959:	112200                                    	slli	a2, a2, 16
    195c:	58a847                                    	bge	a8, a4, 19b8 <sbaec_common1+0x124>
    195f:	129382                                    	l16si	a8, a3, 36
    1962:	18cab2                                    	addi	a11, a10, 24
    1965:	208890                                    	or	a8, a8, a9
    1968:	18ccd2                                    	addi	a13, a12, 24
    196b:	125382                                    	s16i	a8, a3, 36
    196e:	07a247                                    	bge	a2, a4, 1979 <sbaec_common1+0xe5>
    1971:	20048dc000600c0e                  	{ j	1981 <sbaec_common1+0xed>; ae_l16.i	aed0, a13, 0 }

00001979 <sbaec_common1+0xe5>:
    1979:	230720c0048591be                  	{ ae_l16.i	aed0, a11, 2; nop }
    1981:	401500                                    	ssl	a5
    1984:	3017a6                                    	blti	a7, 1, 19b8 <sbaec_common1+0x124>
    1987:	119322                                    	l16si	a2, a3, 34
    198a:	b3f8                                    	l32i.n	a15, a3, 44
    198c:	c02260                                    	sub	a2, a2, a6
    198f:	a12200                                    	sll	a2, a2
    1992:	9022f0                                    	addx2	a2, a2, a15
    1995:	230720c00ca5b12e                  	{ ae_l16x4.ip	aed1, a2, 8; nop }
    199d:	178776                                    	loop	a7, 19b8 <sbaec_common1+0x124>
    19a0:	0e9d26db0d440cd0c5008f080c01015f 	{ nop; nop; ae_mulfp16x4ras	aed1, aed0, aed1; nop }
    19b0:	210612c008e17f2e                  	{ ae_s16x4.i	aed1, a2, -8; ae_l16x4.ip	aed1, a2, 8 }

000019b8 <sbaec_common1+0x124>:
    19b8:	f01d                                    	retw.n

000019ba <sbaec_common1+0x126>:
	...

000019bc <sbaec_common2>:
    19bc:	004136                                    	entry	a1, 32
    19bf:	121362                                    	l16ui	a6, a3, 36
    19c2:	02ad                                    	mov.n	a10, a2
    19c4:	04cd                                    	mov.n	a12, a4
    19c6:	867d                                    	ae_sext16	a7, a6
    19c8:	03bd                                    	mov.n	a11, a3
    19ca:	38e707                                    	bbsi	a7, 0, 1a06 <sbaec_common2+0x4a>
    19cd:	336727                                    	bbci	a7, 2, 1a04 <sbaec_common2+0x48>
    19d0:	b82272                                    	l32i	a7, a2, 0x2e0
    19d3:	04d782                                    	addmi	a8, a7, 0x400
    19d6:	481872                                    	l16ui	a7, a8, 144
    19d9:	0d1466                                    	bnei	a4, 1, 19ea <sbaec_common2+0x2e>
    19dc:	ffa542                                    	movi	a4, 0x5ff
    19df:	0075d6                                    	bgez	a5, 19ea <sbaec_common2+0x2e>
    19e2:	0c3477                                    	bltu	a4, a7, 19f2 <sbaec_common2+0x36>
    19e5:	771b                                    	addi.n	a7, a7, 1
    19e7:	485872                                    	s16i	a7, a8, 144

000019ea <sbaec_common2+0x2e>:
    19ea:	974d                                    	ae_zext16	a4, a7
    19ec:	00a652                                    	movi	a5, 0x600
    19ef:	073457                                    	bltu	a4, a5, 19fa <sbaec_common2+0x3e>
    19f2:	240c                                    	movi.n	a4, 2
    19f4:	204640                                    	or	a4, a6, a4
    19f7:	125342                                    	s16i	a4, a3, 36
    19fa:	f9da41                                    	l32r	a4, 164 (13ec <aec_post_calc_FB>)
    19fd:	02ad                                    	mov.n	a10, a2
    19ff:	03bd                                    	mov.n	a11, a3
    1a01:	0004e0                                    	callx8	a4
    1a04:	f01d                                    	retw.n

00001a06 <sbaec_common2+0x4a>:
    1a06:	f9d651                                    	l32r	a5, 160 (12dc <aec_post_calc>)
    1a09:	0005e0                                    	callx8	a5
    1a0c:	f01d                                    	retw.n

00001a0e <sbaec_common2+0x52>:
	...

00001a10 <subband_aec_mid_channel>:
    1a10:	006136                                    	entry	a1, 48
    1a13:	a368                                    	l32i.n	a6, a3, 40
    1a15:	b422f2                                    	l32i	a15, a2, 0x2d0
    1a18:	0d07404004a84c0e                  	{ ae_movi	aed0, 0; ae_movi	aed8, 0 }
    1a20:	119372                                    	l16si	a7, a3, 34
    1a23:	ae0c                                    	movi.n	a14, 10
    1a25:	a388                                    	l32i.n	a8, a3, 40
    1a27:	3159                                    	s32i.n	a5, a1, 12
    1a29:	f3f680                                    	wur.ae_cbegin0	a8
    1a2c:	a07760                                    	addx4	a7, a7, a6
    1a2f:	e368                                    	l32i.n	a6, a3, 56
    1a31:	f3f770                                    	wur.ae_cend0	a7
    1a34:	c378                                    	l32i.n	a7, a3, 48
    1a36:	490c                                    	movi.n	a9, 4
    1a38:	100436c008c2643e                  	{ ae_l32m.i	aed1, a3, 16; ae_l16x2m.i	aed2, a6, 0 }
    1a40:	fccf82                                    	addi	a8, a15, -4
    1a43:	230720c318e5747e                  	{ nop; nop }
    1a4b:	f03d                                    	nop.n
    1a4d:	5f8e76                                    	loop	a14, 1ab0 <subband_aec_mid_channel+0xa0>
    1a50:	0e9cc690fbe679d0c4008e201022312f 	{ ae_sel16i	aed3, aed2, aed2, 1; ae_l16x2m.xc	aed31, a7, a9; ae_mulf48q32sp16s.l	aed4, aed1, aed2; nop }
    1a60:	0e9d229b0d540c0889130ee80c23015f 	{ nop; nop; ae_mulf48q32sp16s.l	aed29, aed1, aed3; ae_mulaf48q32sp16s.l	aed4, aed1, aed2 }
    1a70:	0e1d3c1b0d5c0cfe412f4ee80c23015f 	{ nop; nop; ae_mulaf48q32sp16s.l	aed29, aed1, aed3; ae_mulssfd32s.hh.ll	aed0, aed31, aed31 }
    1a80:	0ead257b0d440ce8c37881380c01015f 	{ nop; nop; nop; ae_roundsp16q48x2asym	aed30, aed4, aed4 }
    1a90:	0ead3d7b0d4c0ce8c30ba1380c01015f 	{ nop; nop; nop; ae_roundsp16q48x2asym	aed2, aed29, aed29 }
    1aa0:	3c0071401483c16e                  	{ ae_l16x2m.iu	aed2, a6, 4; ae_sel16i	aed3, aed2, aed30, 2 }
    1aa8:	1c82da012063318e                  	{ ae_s16x2m.iu	aed3, a8, 4; nop; ae_mulaafd32s.hh.ll	aed0, aed3, aed3 }

00001ab0 <subband_aec_mid_channel+0xa0>:
    1ab0:	0e6d016009f83f70070001380c01225f 	{ l32i	a5, a2, 36; ae_l64.i	aed1, a3, 0; nop; ae_srai64	aed0, aed0, 6 }
    1ac0:	0ea4e400852536d0c4008100056055ef 	{ slli	a5, a5, 2; l16si	a6, a3, 32; ae_add64	aed0, aed1, aed0; nop }
    1ad0:	0ead442bf9e153d0c40080071d60935f 	{ l32r	a5, 14c (7270 <airoha_divide>); ae_cvt48a32	aed31, a5; ae_sat48s	aed0, aed0; nop }
    1ae0:	0ead057b08e40cd0c480813f1c01000f 	{ ae_max64	aed0, aed0, aed31; nop; nop; nop }
    1af0:	220700c000e5933e                  	{ ae_s64.i	aed0, a3, 0; nop }
    1af8:	01a4d6                                    	bgez	a4, 1b16 <subband_aec_mid_channel+0x106>
    1afb:	0ead6565d52665d0c400813b0c016b0f 	{ ae_trunca32q48	a11, aed0; slli	a10, a6, 11; nop; nop }
    1b0b:	0005e0                                    	callx8	a5
    1b0e:	230740c204a55c0e                  	{ ae_movi	aed8, 0; nop }

00001b16 <subband_aec_mid_channel+0x106>:
    1b16:	d3d8                                    	l32i.n	a13, a3, 52
    1b18:	b422e2                                    	l32i	a14, a2, 0x2d0
    1b1b:	f358                                    	l32i.n	a5, a3, 60
    1b1d:	119372                                    	l16si	a7, a3, 34
    1b20:	20070b430480036e                  	{ l32i	a6, a3, 48; ae_cvt48a32	aed0, a11 }
    1b28:	fccdb2                                    	addi	a11, a13, -4
    1b2b:	b388                                    	l32i.n	a8, a3, 44
    1b2d:	fec5d2                                    	addi	a13, a5, -2
    1b30:	2129                                    	s32i.n	a2, a1, 8
    1b32:	4c0c                                    	movi.n	a12, 4
    1b34:	0aa092                                    	movi	a9, 10
    1b37:	fccee2                                    	addi	a14, a14, -4
    1b3a:	215270                                    	srai	a5, a7, 2
    1b3d:	2806f8400c88c1ee                  	{ ae_l16x2m.iu	aed1, a14, 4; or	a2, a8, a8 }
    1b45:	220740c00cc59c6e                  	{ ae_s16x2m.xc	aed1, a6, a12; nop }
    1b4d:	220760c00c85d1be                  	{ ae_l16x2m.iu	aed1, a11, 4; nop }
    1b55:	0e6d357b0d340c204404213c0801296f 	{ ae_cvtq56p32s.h	aed2, aed1; nop; nop; ae_cvtq56p32s.l	aed1, aed1 }
    1b65:	1f17a6                                    	blti	a7, 1, 1b88 <subband_aec_mid_channel+0x178>
    1b68:	110458c700a3070e                  	{ loop	a7, 1b88 <subband_aec_mid_channel+0x178>; ae_l16x2m.i	aed3, a8, 0 }
    1b70:	220760c10485fc6e                  	{ ae_l16x2m.xc	aed4, a6, a12; nop }
    1b78:	0e1d255b0d250c1e45af4f080083c12f 	{ ae_l16x2m.iu	aed3, a2, 4; nop; ae_mulasfd32s.hl.lh	aed1, aed4, aed3; ae_mulssfd32s.hh.ll	aed2, aed3, aed4 }

00001b88 <subband_aec_mid_channel+0x178>:
    1b88:	0ead217b0d350ce8c308413f1001266f 	{ or	a2, a6, a6; nop; nop; ae_roundsp16q48x2asym	aed2, aed2, aed2 }
    1b98:	0e9d229b0c4d0ce8c3042e11040281df 	{ ae_s16m.l.iu	aed2, a13, 2; nop; ae_mulf48q32sp16s.l	aed2, aed0, aed2; ae_roundsp16q48x2asym	aed1, aed1, aed1 }
    1ba8:	2282b30f300111de                  	{ ae_s16m.l.iu	aed1, a13, 2; nop; ae_mulf48q32sp16s.l	aed1, aed0, aed1 }
    1bb0:	07c4d6                                    	bgez	a4, 1c30 <subband_aec_mid_channel+0x220>
    1bb3:	0ead257109002cd0c58081381c017a1f 	{ ae_slaasq56s	aed1, aed1, a10; ae_la16x4x2pos.pc	u0, a2; nop; nop }
    1bc3:	0ead241b09040cd0c58080081d61ba2f 	{ ae_slaasq56s	aed2, aed2, a10; nop; ae_negsq56s	aed1, aed1; nop }
    1bd3:	0ead217b0c140ca8c204213c1001c02f 	{ ae_la16x4x2_ic	aed3, aed2, u0, a2; nop; nop; ae_round32x2f48sasym	aed1, aed2, aed1 }
    1be3:	4947a6                                    	blti	a7, 4, 1c30 <subband_aec_mid_channel+0x220>
    1be6:	b3f8                                    	l32i.n	a15, a3, 44
    1be8:	0020f0                                    	nop
    1beb:	f03d                                    	nop.n
    1bed:	3f8576                                    	loop	a5, 1c30 <subband_aec_mid_channel+0x220>
    1bf0:	1befa029093b080906782517902285ff 	{ ae_l16x4x2.ip	aed6, aed7, a15, 16; nop; ae_mulfpc32x16x2ras	aed2, aed5, aed1, aed1, aed2; ae_mulfpc32x16x2ras	aed3, aed4, aed1, aed1, aed3 }
    1c00:	0ea5201b0d5c0c88c30c82280f62015f 	{ nop; nop; ae_round16x4f32sasym	aed2, aed2, aed5; ae_round16x4f32sasym	aed3, aed3, aed4 }
    1c10:	0ea524021d0020d0c480861810a4d17f 	{ ae_add16s	aed5, aed7, aed2; ae_la16x4x2_ic	aed3, aed2, u0, a2; ae_add16s	aed4, aed6, aed3; nop }
    1c20:	0000814957a60f005e030323a800b0ff 	{ ae_s16x4x2.i	aed4, aed5, a15, -16; nop; nop }
    1c30:	990b                                    	addi.n	a9, a9, -1
    1c32:	f07956                                    	bnez	a9, 1b3d <subband_aec_mid_channel+0x12d>
    1c35:	d328                                    	l32i.n	a2, a3, 52
    1c37:	0d07404004a14c0e                  	{ ae_movi	aed0, 0; ae_movi	aed1, 0 }
    1c3f:	c369                                    	s32i.n	a6, a3, 48
    1c41:	f378                                    	l32i.n	a7, a3, 60
    1c43:	a50c                                    	movi.n	a5, 10
    1c45:	110472c01c82a07e                  	{ ae_l16x2m.i	aed3, a7, 0; ae_l16x2m.i	aed2, a2, 0 }
    1c4d:	178576                                    	loop	a5, 1c68 <subband_aec_mid_channel+0x258>
    1c50:	0e1d215b0d3d0c1603ab2f000043c17f 	{ ae_l16x2m.iu	aed3, a7, 4; nop; ae_mulasfd32s.hl.lh	aed0, aed2, aed3; ae_mulaafd32s.hh.ll	aed1, aed2, aed3 }
    1c60:	1c823a453842212e                  	{ ae_l16x2m.iu	aed2, a2, 4; nop; ae_mulaafd32s.hh.ll	aed8, aed2, aed2 }

00001c68 <subband_aec_mid_channel+0x258>:
    1c68:	0e6ce17001180a600780013a0c01501f 	{ ae_srai64	aed1, aed1, 4; movi	a10, 0; nop; ae_srai64	aed0, aed0, 4 }
    1c78:	0ead017b08ec0c98c28421380401e00f 	{ ae_round24x2f48sasym	aed0, aed0, aed0; nop; nop; ae_round24x2f48sasym	aed1, aed1, aed1 }
    1c88:	0e5503bb09fd0c67c6011e061c01e02f 	{ l32r	a2, 38 (7b4 <HIFI_sqrt>); nop; ae_sel16i.n	aed0, aed1, aed0, 2; ae_srai64	aed31, aed8, 4 }
    1c98:	0e9d3cdb0d5c0cd0c50458000c00015f 	{ nop; nop; ae_mulzaafd32s.hh.ll	aed0, aed0, aed0; ae_roundsq32f48asym	aed1, aed31 }
    1ca8:	0ead217b0d240cd0c400413b0c01661f 	{ ae_trunca32q48	a6, aed1; nop; nop; ae_roundsq32f48asym	aed0, aed0 }
    1cb8:	0ead257b0d240cd0c400813b0c016b0f 	{ ae_trunca32q48	a11, aed0; nop; nop; nop }
    1cc8:	0002e0                                    	callx8	a2
    1ccb:	21070b410480232e                  	{ l8ui	a2, a3, 36; ae_cvt48a32	aed0, a11 }
    1cd3:	2603814010a01a0e                  	{ ae_slaasq56s	aed0, aed0, a10; l32i	a7, a1, 8 }
    1cdb:	0ead4167d1e733d0c400413f1c01115f 	{ l32r	a5, 150 (10b4 <common_x_pow>); or	a10, a3, a3; nop; ae_roundsq32f48asym	aed0, aed0 }
    1ceb:	06bd                                    	mov.n	a11, a6
    1ced:	000003f3000000fe530303052060d22f 	{ bbsi.w15	a2, 2, 1d0c <subband_aec_mid_channel+0x2fc>; ae_trunca32q48	a12, aed0; nop }
    1cfd:	f91421                                    	l32r	a2, 150 (10b4 <common_x_pow>)
    1d00:	03ad                                    	mov.n	a10, a3
    1d02:	06bd                                    	mov.n	a11, a6
    1d04:	0002e0                                    	callx8	a2
    1d07:	3158                                    	l32i.n	a5, a1, 12
    1d09:	0005c6                                    	j	1d24 <subband_aec_mid_channel+0x314>

00001d0c <subband_aec_mid_channel+0x2fc>:
    1d0c:	b82722                                    	l32i	a2, a7, 0x2e0
    1d0f:	0005e0                                    	callx8	a5
    1d12:	3158                                    	l32i.n	a5, a1, 12
    1d14:	2168                                    	l32i.n	a6, a1, 8
    1d16:	a28c                                    	beqz.n	a2, 1d24 <subband_aec_mid_channel+0x314>
    1d18:	b82622                                    	l32i	a2, a6, 0x2e0
    1d1b:	02d222                                    	addmi	a2, a2, 0x200
    1d1e:	5d9222                                    	l16si	a2, a2, 186
    1d21:	0d12e6                                    	bgei	a2, 1, 1d32 <subband_aec_mid_channel+0x322>
    1d24:	4c1c                                    	movi.n	a12, 20
    1d26:	8a8c                                    	beqz.n	a10, 1d32 <subband_aec_mid_channel+0x322>
    1d28:	f3a8                                    	l32i.n	a10, a3, 60
    1d2a:	d3b8                                    	l32i.n	a11, a3, 52
    1d2c:	f8be21                                    	l32r	a2, 24 (a5c4 <xt_memcpy>)
    1d2f:	0002e0                                    	callx8	a2
    1d32:	2168                                    	l32i.n	a6, a1, 8
    1d34:	0c0c                                    	movi.n	a12, 0
    1d36:	f90721                                    	l32r	a2, 154 (1894 <sbaec_common1>)
    1d39:	03bd                                    	mov.n	a11, a3
    1d3b:	04dd                                    	mov.n	a13, a4
    1d3d:	06ad                                    	mov.n	a10, a6
    1d3f:	0002e0                                    	callx8	a2
    1d42:	f90521                                    	l32r	a2, 158 (19bc <sbaec_common2>)
    1d45:	06ad                                    	mov.n	a10, a6
    1d47:	03bd                                    	mov.n	a11, a3
    1d49:	05cd                                    	mov.n	a12, a5
    1d4b:	04dd                                    	mov.n	a13, a4
    1d4d:	0002e0                                    	callx8	a2
    1d50:	f01d                                    	retw.n

00001d52 <subband_aec_mid_channel+0x342>:
	...

00001d54 <dt_detect>:
    1d54:	004136                                    	entry	a1, 32
    1d57:	0c9252                                    	l16si	a5, a2, 24
    1d5a:	189242                                    	l16si	a4, a2, 48
    1d5d:	199262                                    	l16si	a6, a2, 50
    1d60:	174c                                    	movi.n	a7, 65
    1d62:	115500                                    	slli	a5, a5, 16
    1d65:	17a537                                    	bge	a5, a3, 1d80 <dt_detect+0x2c>
    1d68:	179252                                    	l16si	a5, a2, 46
    1d6b:	112677                                    	blt	a6, a7, 1d80 <dt_detect+0x2c>
    1d6e:	0e9232                                    	l16si	a3, a2, 28
    1d71:	442b                                    	addi.n	a4, a4, 2
    1d73:	554b                                    	addi.n	a5, a5, 4
    1d75:	435530                                    	min	a5, a5, a3
    1d78:	175252                                    	s16i	a5, a2, 46
    1d7b:	855d                                    	ae_sext16	a5, a5
    1d7d:	000246                                    	j	1d8a <dt_detect+0x36>

00001d80 <dt_detect+0x2c>:
    1d80:	0e9232                                    	l16si	a3, a2, 28
    1d83:	050c                                    	movi.n	a5, 0
    1d85:	440b                                    	addi.n	a4, a4, -1
    1d87:	175252                                    	s16i	a5, a2, 46
    1d8a:	534450                                    	max	a4, a4, a5
    1d8d:	433430                                    	min	a3, a4, a3
    1d90:	185232                                    	s16i	a3, a2, 48
    1d93:	f01d                                    	retw.n

00001d95 <dt_detect+0x41>:
    1d95:	000000                                        ...

00001d98 <dt_detect_FB>:
    1d98:	004136                                    	entry	a1, 32
    1d9b:	02d252                                    	addmi	a5, a2, 0x200
    1d9e:	174c                                    	movi.n	a7, 65
    1da0:	5d9562                                    	l16si	a6, a5, 186
    1da3:	02d282                                    	addmi	a8, a2, 0x200
    1da6:	5e9592                                    	l16si	a9, a5, 188
    1da9:	182477                                    	blt	a4, a7, 1dc5 <dt_detect_FB+0x2d>
    1dac:	5b9842                                    	l16si	a4, a8, 182
    1daf:	02d272                                    	addmi	a7, a2, 0x200
    1db2:	114400                                    	slli	a4, a4, 16
    1db5:	894b                                    	addi.n	a8, a9, 4
    1db7:	0aa437                                    	bge	a4, a3, 1dc5 <dt_detect_FB+0x2d>
    1dba:	5c9722                                    	l16si	a2, a7, 184
    1dbd:	362b                                    	addi.n	a3, a6, 2
    1dbf:	434820                                    	min	a4, a8, a2
    1dc2:	000246                                    	j	1dcf <dt_detect_FB+0x37>

00001dc5 <dt_detect_FB+0x2d>:
    1dc5:	02d222                                    	addmi	a2, a2, 0x200
    1dc8:	360b                                    	addi.n	a3, a6, -1
    1dca:	5c9222                                    	l16si	a2, a2, 184
    1dcd:	040c                                    	movi.n	a4, 0
    1dcf:	846d                                    	ae_sext16	a6, a4
    1dd1:	533360                                    	max	a3, a3, a6
    1dd4:	5e5542                                    	s16i	a4, a5, 188
    1dd7:	432320                                    	min	a2, a3, a2
    1dda:	5d5522                                    	s16i	a2, a5, 186
    1ddd:	f01d                                    	retw.n

00001ddf <dt_detect_FB+0x47>:
	...

00001de0 <get_ECNR_SVN>:
    1de0:	004136                                    	entry	a1, 32
    1de3:	f8e121                                    	l32r	a2, 168 (1507ca0 <_end+0x14fa3b4>)
    1de6:	f01d                                    	retw.n

00001de8 <get_aec_nr_memsize>:
    1de8:	004136                                    	entry	a1, 32
    1deb:	ada322                                    	movi	a2, 0x3ad
    1dee:	1122b0                                    	slli	a2, a2, 5
    1df1:	f01d                                    	retw.n

00001df3 <get_aec_nr_memsize+0xb>:
	...

00001df4 <get_aec_nr_inear_memsize>:
    1df4:	004136                                    	entry	a1, 32
    1df7:	823c                                    	movi.n	a2, 56
    1df9:	7ad222                                    	addmi	a2, a2, 0x7a00
    1dfc:	f01d                                    	retw.n

00001dfe <get_aec_nr_inear_memsize+0xa>:
	...

00001e00 <sb_ana2_init>:
    1e00:	004136                                    	entry	a1, 32
    1e03:	f8c631                                    	l32r	a3, 11c (a5b0 <xt_memset>)
    1e06:	0b0c                                    	movi.n	a11, 0
    1e08:	0c2c                                    	movi.n	a12, 32
    1e0a:	02ad                                    	mov.n	a10, a2
    1e0c:	106222                                    	s32i	a2, a2, 64
    1e0f:	0003e0                                    	callx8	a3
    1e12:	f01d                                    	retw.n

00001e14 <sb_syn_init>:
    1e14:	004136                                    	entry	a1, 32
    1e17:	a24b                                    	addi.n	a10, a2, 4
    1e19:	0b0c                                    	movi.n	a11, 0
    1e1b:	02a9                                    	s32i.n	a10, a2, 0
    1e1d:	cc3c                                    	movi.n	a12, 60
    1e1f:	f8bf21                                    	l32r	a2, 11c (a5b0 <xt_memset>)
    1e22:	0002e0                                    	callx8	a2
    1e25:	f01d                                    	retw.n

00001e27 <sb_syn_init+0x13>:
	...

00001e28 <HP_coef_setup>:
    1e28:	004136                                    	entry	a1, 32
    1e2b:	f87e41                                    	l32r	a4, 24 (a5c4 <xt_memcpy>)
    1e2e:	4c0c                                    	movi.n	a12, 4
    1e30:	02ad                                    	mov.n	a10, a2
    1e32:	03bd                                    	mov.n	a11, a3
    1e34:	0004e0                                    	callx8	a4
    1e37:	a2cb                                    	addi.n	a10, a2, 12
    1e39:	b38b                                    	addi.n	a11, a3, 8
    1e3b:	ac0c                                    	movi.n	a12, 10
    1e3d:	0004e0                                    	callx8	a4
    1e40:	24c2a2                                    	addi	a10, a2, 36
    1e43:	1cc3b2                                    	addi	a11, a3, 28
    1e46:	8c0c                                    	movi.n	a12, 8
    1e48:	0004e0                                    	callx8	a4
    1e4b:	1238                                    	l32i.n	a3, a2, 4
    1e4d:	72f8                                    	l32i.n	a15, a2, 28
    1e4f:	2239                                    	s32i.n	a3, a2, 8
    1e51:	82f9                                    	s32i.n	a15, a2, 32
    1e53:	f01d                                    	retw.n

00001e55 <HP_coef_setup+0x2d>:
    1e55:	000000                                        ...

00001e58 <tx_ref_vad_init>:
    1e58:	004136                                    	entry	a1, 32
    1e5b:	f8b041                                    	l32r	a4, 11c (a5b0 <xt_memset>)
    1e5e:	0b0c                                    	movi.n	a11, 0
    1e60:	ec0c                                    	movi.n	a12, 14
    1e62:	02ad                                    	mov.n	a10, a2
    1e64:	0004e0                                    	callx8	a4
    1e67:	4cc3b2                                    	addi	a11, a3, 76
    1e6a:	f86e31                                    	l32r	a3, 24 (a5c4 <xt_memcpy>)
    1e6d:	7c0c                                    	movi.n	a12, 7
    1e6f:	02ad                                    	mov.n	a10, a2
    1e71:	0003e0                                    	callx8	a3
    1e74:	f01d                                    	retw.n

00001e76 <tx_ref_vad_init+0x1e>:
	...

00001e78 <Voice_EC_Init>:
    1e78:	006136                                    	entry	a1, 48
    1e7b:	02ad                                    	mov.n	a10, a2
    1e7d:	2129                                    	s32i.n	a2, a1, 8
    1e7f:	180c                                    	movi.n	a8, 1
    1e81:	f86621                                    	l32r	a2, 1c (d8e8 <p_ecnr_mem>)
    1e84:	feca92                                    	addi	a9, a10, -2
    1e87:	0e0c                                    	movi.n	a14, 0
    1e89:	62f980                                    	saltu	a15, a9, a8
    1e8c:	f8b881                                    	l32r	a8, 16c (424 <TX_ECNR_PARA_init>)
    1e8f:	04bd                                    	mov.n	a11, a4
    1e91:	05cd                                    	mov.n	a12, a5
    1e93:	06dd                                    	mov.n	a13, a6
    1e95:	0239                                    	s32i.n	a3, a2, 0
    1e97:	31f9                                    	s32i.n	a15, a1, 12
    1e99:	0008e0                                    	callx8	a8
    1e9c:	f86141                                    	l32r	a4, 20 (d8e0 <aec_nr_para>)
    1e9f:	cca2f2                                    	movi	a15, 0x2cc
    1ea2:	0268                                    	l32i.n	a6, a2, 0
    1ea4:	0458                                    	l32i.n	a5, a4, 0
    1ea6:	20d6a2                                    	addmi	a10, a6, 0x2000
    1ea9:	ada462                                    	movi	a6, 0x4ad
    1eac:	389582                                    	l16si	a8, a5, 112
    1eaf:	b5fa                                    	add.n	a11, a5, a15
    1eb1:	f8af51                                    	l32r	a5, 170 (1e28 <HP_coef_setup>)
    1eb4:	1166c0                                    	slli	a6, a6, 4
    1eb7:	678d                                    	ae_s16i.n	a8, a7, 0
    1eb9:	94a372                                    	movi	a7, 0x394
    1ebc:	0005e0                                    	callx8	a5
    1ebf:	0258                                    	l32i.n	a5, a2, 0
    1ec1:	c7a3c2                                    	movi	a12, 0x3c7
    1ec4:	f89631                                    	l32r	a3, 11c (a5b0 <xt_memset>)
    1ec7:	11cce0                                    	slli	a12, a12, 2
    1eca:	a56a                                    	add.n	a10, a5, a6
    1ecc:	0b0c                                    	movi.n	a11, 0
    1ece:	b07770                                    	addx8	a7, a7, a7
    1ed1:	025d                                    	mov.n	a5, a2
    1ed3:	0003e0                                    	callx8	a3
    1ed6:	0268                                    	l32i.n	a6, a2, 0
    1ed8:	0b0c                                    	movi.n	a11, 0
    1eda:	ec0c                                    	movi.n	a12, 14
    1edc:	a67a                                    	add.n	a10, a6, a7
    1ede:	475c                                    	movi.n	a7, 84
    1ee0:	0003e0                                    	callx8	a3
    1ee3:	0268                                    	l32i.n	a6, a2, 0
    1ee5:	20d772                                    	addmi	a7, a7, 0x2000
    1ee8:	0b0c                                    	movi.n	a11, 0
    1eea:	f0a0c2                                    	movi	a12, 240
    1eed:	a67a                                    	add.n	a10, a6, a7
    1eef:	f0a062                                    	movi	a6, 240
    1ef2:	0003e0                                    	callx8	a3
    1ef5:	0278                                    	l32i.n	a7, a2, 0
    1ef7:	13a182                                    	movi	a8, 0x113
    1efa:	1188a0                                    	slli	a8, a8, 6
    1efd:	0b0c                                    	movi.n	a11, 0
    1eff:	0c2c                                    	movi.n	a12, 32
    1f01:	a78a                                    	add.n	a10, a7, a8
    1f03:	44d792                                    	addmi	a9, a7, 0x4400
    1f06:	4069a2                                    	s32i	a10, a9, 0x100
    1f09:	0003e0                                    	callx8	a3
    1f0c:	0278                                    	l32i.n	a7, a2, 0
    1f0e:	880c                                    	movi.n	a8, 8
    1f10:	45d882                                    	addmi	a8, a8, 0x4500
    1f13:	0b0c                                    	movi.n	a11, 0
    1f15:	0c2c                                    	movi.n	a12, 32
    1f17:	a78a                                    	add.n	a10, a7, a8
    1f19:	45d792                                    	addmi	a9, a7, 0x4500
    1f1c:	1269a2                                    	s32i	a10, a9, 72
    1f1f:	0003e0                                    	callx8	a3
    1f22:	0278                                    	l32i.n	a7, a2, 0
    1f24:	94a082                                    	movi	a8, 148
    1f27:	45d882                                    	addmi	a8, a8, 0x4500
    1f2a:	0b0c                                    	movi.n	a11, 0
    1f2c:	cc3c                                    	movi.n	a12, 60
    1f2e:	45d792                                    	addmi	a9, a7, 0x4500
    1f31:	778a                                    	add.n	a7, a7, a8
    1f33:	a74b                                    	addi.n	a10, a7, 4
    1f35:	2569a2                                    	s32i	a10, a9, 148
    1f38:	0003e0                                    	callx8	a3
    1f3b:	0478                                    	l32i.n	a7, a4, 0
    1f3d:	0288                                    	l32i.n	a8, a2, 0
    1f3f:	01a392                                    	movi	a9, 0x301
    1f42:	e3a2a2                                    	movi	a10, 0x2e3
    1f45:	1199c0                                    	slli	a9, a9, 4
    1f48:	11aac0                                    	slli	a10, a10, 4
    1f4b:	07b8                                    	l32i.n	a11, a7, 0
    1f4d:	22d8c2                                    	addmi	a12, a8, 0x2200
    1f50:	989a                                    	add.n	a9, a8, a9
    1f52:	c8a022                                    	movi	a2, 200
    1f55:	206c92                                    	s32i	a9, a12, 128
    1f58:	a8aa                                    	add.n	a10, a8, a10
    1f5a:	9b2a                                    	add.n	a9, a11, a2
    1f5c:	6b6a                                    	add.n	a6, a11, a6
    1f5e:	18a1e2                                    	movi	a14, 0x118
    1f61:	40a1f2                                    	movi	a15, 0x140
    1f64:	1f6ca2                                    	s32i	a10, a12, 124
    1f67:	78cbd2                                    	addi	a13, a11, 120
    1f6a:	176c92                                    	s32i	a9, a12, 92
    1f6d:	9bea                                    	add.n	a9, a11, a14
    1f6f:	186c62                                    	s32i	a6, a12, 96
    1f72:	6bfa                                    	add.n	a6, a11, a15
    1f74:	68a122                                    	movi	a2, 0x168
    1f77:	90a1a2                                    	movi	a10, 0x190
    1f7a:	166cd2                                    	s32i	a13, a12, 88
    1f7d:	21f8                                    	l32i.n	a15, a1, 8
    1f7f:	196c92                                    	s32i	a9, a12, 100
    1f82:	9b2a                                    	add.n	a9, a11, a2
    1f84:	1a6c62                                    	s32i	a6, a12, 104
    1f87:	6baa                                    	add.n	a6, a11, a10
    1f89:	b8a1d2                                    	movi	a13, 0x1b8
    1f8c:	e0a1e2                                    	movi	a14, 0x1e0
    1f8f:	1b6c92                                    	s32i	a9, a12, 108
    1f92:	9bda                                    	add.n	a9, a11, a13
    1f94:	1c6c62                                    	s32i	a6, a12, 112
    1f97:	6bea                                    	add.n	a6, a11, a14
    1f99:	1e6c92                                    	s32i	a9, a12, 120
    1f9c:	20d8a2                                    	addmi	a10, a8, 0x2000
    1f9f:	1d6c62                                    	s32i	a6, a12, 116
    1fa2:	0fa722                                    	movi	a2, 0x70f
    1fa5:	0b0c                                    	movi.n	a11, 0
    1fa7:	022f26                                    	beqi	a15, 2, 1fad <Voice_EC_Init+0x135>
    1faa:	0039c6                                    	j	2095 <Voice_EC_Init+0x21d>
    1fad:	1122c0                                    	slli	a2, a2, 4
    1fb0:	22a2c2                                    	movi	a12, 0x222
    1fb3:	a82a                                    	add.n	a10, a8, a2
    1fb5:	0003e0                                    	callx8	a3
    1fb8:	0468                                    	l32i.n	a6, a4, 0
    1fba:	0528                                    	l32i.n	a2, a5, 0
    1fbc:	05a182                                    	movi	a8, 0x105
    1fbf:	05a3b2                                    	movi	a11, 0x305
    1fc2:	1188c0                                    	slli	a8, a8, 4
    1fc5:	8fa0c2                                    	movi	a12, 143
    1fc8:	03d642                                    	addmi	a4, a6, 0x300
    1fcb:	20d232                                    	addmi	a3, a2, 0x2000
    1fce:	7a9472                                    	l16si	a7, a4, 244
    1fd1:	75d292                                    	addmi	a9, a2, 0x7500
    1fd4:	285372                                    	s16i	a7, a3, 80
    1fd7:	117bc0                                    	slli	a7, a11, 4
    1fda:	7b9442                                    	l16si	a4, a4, 246
    1fdd:	727a                                    	add.n	a7, a2, a7
    1fdf:	295342                                    	s16i	a4, a3, 82
    1fe2:	0638                                    	l32i.n	a3, a6, 0
    1fe4:	1e6972                                    	s32i	a7, a9, 120
    1fe7:	41a392                                    	movi	a9, 0x341
    1fea:	1179c0                                    	slli	a7, a9, 4
    1fed:	75d262                                    	addmi	a6, a2, 0x7500
    1ff0:	a27a                                    	add.n	a10, a2, a7
    1ff2:	75d222                                    	addmi	a2, a2, 0x7500
    1ff5:	10d342                                    	addmi	a4, a3, 0x1000
    1ff8:	838a                                    	add.n	a8, a3, a8
    1ffa:	d249                                    	s32i.n	a4, a2, 52
    1ffc:	f44c                                    	movi.n	a4, 79
    1ffe:	e289                                    	s32i.n	a8, a2, 56
    2000:	85a082                                    	movi	a8, 133
    2003:	1194a0                                    	slli	a9, a4, 6
    2006:	1148b0                                    	slli	a4, a8, 5
    2009:	734a                                    	add.n	a7, a3, a4
    200b:	41a142                                    	movi	a4, 0x141
    200e:	f279                                    	s32i.n	a7, a2, 60
    2010:	0fa172                                    	movi	a7, 0x10f
    2013:	1184c0                                    	slli	a8, a4, 4
    2016:	1147c0                                    	slli	a4, a7, 4
    2019:	734a                                    	add.n	a7, a3, a4
    201b:	5fa142                                    	movi	a4, 0x15f
    201e:	106272                                    	s32i	a7, a2, 64
    2021:	574c                                    	movi.n	a7, 69
    2023:	1177a0                                    	slli	a7, a7, 6
    2026:	23a1d2                                    	movi	a13, 0x123
    2029:	5e2c                                    	movi.n	a14, 37
    202b:	2da1f2                                    	movi	a15, 0x12d
    202e:	737a                                    	add.n	a7, a3, a7
    2030:	1144c0                                    	slli	a4, a4, 4
    2033:	11ccb0                                    	slli	a12, a12, 5
    2036:	11ddc0                                    	slli	a13, a13, 4
    2039:	11ee90                                    	slli	a14, a14, 7
    203c:	11ffc0                                    	slli	a15, a15, 4
    203f:	1f66a2                                    	s32i	a10, a6, 124
    2042:	99a0b2                                    	movi	a11, 153
    2045:	116272                                    	s32i	a7, a2, 68
    2048:	37a1a2                                    	movi	a10, 0x137
    204b:	19a172                                    	movi	a7, 0x119
    204e:	434a                                    	add.n	a4, a3, a4
    2050:	1177c0                                    	slli	a7, a7, 4
    2053:	c3ca                                    	add.n	a12, a3, a12
    2055:	d3da                                    	add.n	a13, a3, a13
    2057:	e3ea                                    	add.n	a14, a3, a14
    2059:	1b6242                                    	s32i	a4, a2, 108
    205c:	f3fa                                    	add.n	a15, a3, a15
    205e:	11bbb0                                    	slli	a11, a11, 5
    2061:	f7ef41                                    	l32r	a4, 20 (d8e0 <aec_nr_para>)
    2064:	11aac0                                    	slli	a10, a10, 4
    2067:	737a                                    	add.n	a7, a3, a7
    2069:	1362c2                                    	s32i	a12, a2, 76
    206c:	c3ba                                    	add.n	a12, a3, a11
    206e:	1462d2                                    	s32i	a13, a2, 80
    2071:	d3aa                                    	add.n	a13, a3, a10
    2073:	1562e2                                    	s32i	a14, a2, 84
    2076:	e39a                                    	add.n	a14, a3, a9
    2078:	1662f2                                    	s32i	a15, a2, 88
    207b:	f38a                                    	add.n	a15, a3, a8
    207d:	1ed332                                    	addmi	a3, a3, 0x1e00
    2080:	126272                                    	s32i	a7, a2, 72
    2083:	1762c2                                    	s32i	a12, a2, 92
    2086:	1862d2                                    	s32i	a13, a2, 96
    2089:	1962e2                                    	s32i	a14, a2, 100
    208c:	1a62f2                                    	s32i	a15, a2, 104
    208f:	216632                                    	s32i	a3, a6, 132
    2092:	0002c6                                    	j	20a1 <Voice_EC_Init+0x229>

00002095 <Voice_EC_Init+0x21d>:
    2095:	489722                                    	l16si	a2, a7, 144
    2098:	285a22                                    	s16i	a2, a10, 80
    209b:	499722                                    	l16si	a2, a7, 146
    209e:	295a22                                    	s16i	a2, a10, 82
    20a1:	3138                                    	l32i.n	a3, a1, 12
    20a3:	c4a062                                    	movi	a6, 196
    20a6:	f83321                                    	l32r	a2, 174 (a18 <SBAEC_INIT>)
    20a9:	70d662                                    	addmi	a6, a6, 0x7000
    20ac:	03ad                                    	mov.n	a10, a3
    20ae:	0002e0                                    	callx8	a2
    20b1:	f83121                                    	l32r	a2, 178 (5d80 <NOISE_GEN_init>)
    20b4:	03ad                                    	mov.n	a10, a3
    20b6:	0002e0                                    	callx8	a2
    20b9:	0428                                    	l32i.n	a2, a4, 0
    20bb:	0578                                    	l32i.n	a7, a5, 0
    20bd:	043d                                    	mov.n	a3, a4
    20bf:	0b0c                                    	movi.n	a11, 0
    20c1:	7248                                    	l32i.n	a4, a2, 28
    20c3:	a76a                                    	add.n	a10, a7, a6
    20c5:	f81561                                    	l32r	a6, 11c (a5b0 <xt_memset>)
    20c8:	0c1c                                    	movi.n	a12, 16
    20ca:	70d722                                    	addmi	a2, a7, 0x7000
    20cd:	f5f040                                    	extui	a15, a4, 16, 16
    20d0:	755840                                    	extui	a5, a4, 24, 8
    20d3:	21f9                                    	s32i.n	a15, a1, 8
    20d5:	0006e0                                    	callx8	a6
    20d8:	f81681                                    	l32r	a8, 130 (155555 <_end+0x147c69>)
    20db:	d60c                                    	movi.n	a6, 13
    20dd:	f7cfd1                                    	l32r	a13, 1c (d8e8 <p_ecnr_mem>)
    20e0:	9a1c                                    	movi.n	a10, 25
    20e2:	21e8                                    	l32i.n	a14, a1, 8
    20e4:	03c8                                    	l32i.n	a12, a3, 0
    20e6:	c0b480                                    	sub	a11, a4, a8
    20e9:	0f1c                                    	movi.n	a15, 16
    20eb:	9365b0                                    	movnez	a6, a5, a11
    20ee:	0d88                                    	l32i.n	a8, a13, 0
    20f0:	b45d                                    	ae_zext8	a5, a4
    20f2:	93aeb0                                    	movnez	a10, a14, a11
    20f5:	835fb0                                    	moveqz	a5, a15, a11
    20f8:	744840                                    	extui	a4, a4, 8, 8
    20fb:	230c                                    	movi.n	a3, 2
    20fd:	9334b0                                    	movnez	a3, a4, a11
    2100:	369cf2                                    	l16si	a15, a12, 108
    2103:	359cb2                                    	l16si	a11, a12, 106
    2106:	6552f2                                    	s16i	a15, a2, 202
    2109:	1e0c                                    	movi.n	a14, 1
    210b:	22d8f2                                    	addmi	a15, a8, 0x2200
    210e:	6452b2                                    	s16i	a11, a2, 200
    2111:	471cb2                                    	l16ui	a11, a12, 142
    2114:	275fe2                                    	s16i	a14, a15, 78
    2117:	451ce2                                    	l16ui	a14, a12, 138
    211a:	341cc2                                    	l16ui	a12, a12, 104
    211d:	f97c                                    	movi.n	a9, -1
    211f:	4f3c                                    	movi.n	a15, 52
    2121:	019910                                    	slli	a9, a9, 31
    2124:	c155e0                                    	mul16u	a5, a5, a14
    2127:	c133b0                                    	mul16u	a3, a3, a11
    212a:	11bc00                                    	slli	a11, a12, 16
    212d:	9c9a                                    	add.n	a9, a12, a9
    212f:	22df42                                    	addmi	a4, a15, 0x2200
    2132:	70d7d2                                    	addmi	a13, a7, 0x7000
    2135:	c0f9b0                                    	sub	a15, a9, a11
    2138:	415550                                    	srli	a5, a5, 5
    213b:	413530                                    	srli	a3, a3, 5
    213e:	7e0c                                    	movi.n	a14, 7
    2140:	e142a2                                    	s8i	a10, a2, 225
    2143:	00a472                                    	movi	a7, 0x400
    2146:	e04262                                    	s8i	a6, a2, 224
    2149:	3162f2                                    	s32i	a15, a2, 196
    214c:	6e5252                                    	s16i	a5, a2, 220
    214f:	802840                                    	add	a2, a8, a4
    2152:	6f5d32                                    	s16i	a3, a13, 222
    2155:	038e76                                    	loop	a14, 215c <Voice_EC_Init+0x2e4>
    2158:	627d                                    	ae_s16i.n	a7, a2, 0
    215a:	222b                                    	addi.n	a2, a2, 2

0000215c <Voice_EC_Init+0x2e4>:
    215c:	c1a322                                    	movi	a2, 0x3c1
    215f:	f7ef71                                    	l32r	a7, 11c (a5b0 <xt_memset>)
    2162:	1122c0                                    	slli	a2, a2, 4
    2165:	0b0c                                    	movi.n	a11, 0
    2167:	a82a                                    	add.n	a10, a8, a2
    2169:	0c5c                                    	movi.n	a12, 80
    216b:	cba332                                    	movi	a3, 0x3cb
    216e:	060c                                    	movi.n	a6, 0
    2170:	0007e0                                    	callx8	a7
    2173:	f7aa51                                    	l32r	a5, 1c (d8e8 <p_ecnr_mem>)
    2176:	1133c0                                    	slli	a3, a3, 4
    2179:	0b0c                                    	movi.n	a11, 0
    217b:	cc3c                                    	movi.n	a12, 60
    217d:	0528                                    	l32i.n	a2, a5, 0
    217f:	a23a                                    	add.n	a10, a2, a3
    2181:	0007e0                                    	callx8	a7
    2184:	0528                                    	l32i.n	a2, a5, 0
    2186:	f7a641                                    	l32r	a4, 20 (d8e0 <aec_nr_para>)
    2189:	22d232                                    	addmi	a3, a2, 0x2200
    218c:	261332                                    	l16ui	a3, a3, 76
    218f:	04a8                                    	l32i.n	a10, a4, 0
    2191:	432366                                    	bnei	a3, 2, 21d8 <Voice_EC_Init+0x360>
    2194:	31b8                                    	l32i.n	a11, a1, 12
    2196:	55a432                                    	movi	a3, 0x455
    2199:	f7f821                                    	l32r	a2, 17c (7e40 <TWO_MIC_WB_init>)
    219c:	1133c0                                    	slli	a3, a3, 4
    219f:	0002e0                                    	callx8	a2
    21a2:	0528                                    	l32i.n	a2, a5, 0
    21a4:	0b0c                                    	movi.n	a11, 0
    21a6:	0c2c                                    	movi.n	a12, 32
    21a8:	a23a                                    	add.n	a10, a2, a3
    21aa:	45d242                                    	addmi	a4, a2, 0x4500
    21ad:	2464a2                                    	s32i	a10, a4, 144
    21b0:	61a432                                    	movi	a3, 0x461
    21b3:	0007e0                                    	callx8	a7
    21b6:	0528                                    	l32i.n	a2, a5, 0
    21b8:	1133c0                                    	slli	a3, a3, 4
    21bb:	0b0c                                    	movi.n	a11, 0
    21bd:	cc3c                                    	movi.n	a12, 60
    21bf:	46d242                                    	addmi	a4, a2, 0x4600
    21c2:	223a                                    	add.n	a2, a2, a3
    21c4:	a24b                                    	addi.n	a10, a2, 4
    21c6:	44a9                                    	s32i.n	a10, a4, 16
    21c8:	f79641                                    	l32r	a4, 20 (d8e0 <aec_nr_para>)
    21cb:	0007e0                                    	callx8	a7
    21ce:	f7ec21                                    	l32r	a2, 180 (5da4 <NC_NOISE_EST_init>)
    21d1:	04a8                                    	l32i.n	a10, a4, 0
    21d3:	0002e0                                    	callx8	a2
    21d6:	0528                                    	l32i.n	a2, a5, 0

000021d8 <Voice_EC_Init+0x360>:
    21d8:	a8a032                                    	movi	a3, 168
    21db:	0448                                    	l32i.n	a4, a4, 0
    21dd:	70d332                                    	addmi	a3, a3, 0x7000
    21e0:	0b0c                                    	movi.n	a11, 0
    21e2:	223a                                    	add.n	a2, a2, a3
    21e4:	ec0c                                    	movi.n	a12, 14
    21e6:	02ad                                    	mov.n	a10, a2
    21e8:	0007e0                                    	callx8	a7
    21eb:	f78e31                                    	l32r	a3, 24 (a5c4 <xt_memcpy>)
    21ee:	4cc4b2                                    	addi	a11, a4, 76
    21f1:	7c0c                                    	movi.n	a12, 7
    21f3:	02ad                                    	mov.n	a10, a2
    21f5:	0003e0                                    	callx8	a3
    21f8:	0528                                    	l32i.n	a2, a5, 0
    21fa:	75d222                                    	addmi	a2, a2, 0x7500
    21fd:	246262                                    	s32i	a6, a2, 144
    2200:	f01d                                    	retw.n

00002202 <Voice_EC_Init+0x38a>:
	...

00002204 <Voice_EC_Inear_Init>:
    2204:	006136                                    	entry	a1, 48
    2207:	f79381                                    	l32r	a8, 54 (1e78 <Voice_EC_Init>)
    220a:	02ad                                    	mov.n	a10, a2
    220c:	03bd                                    	mov.n	a11, a3
    220e:	04cd                                    	mov.n	a12, a4
    2210:	05dd                                    	mov.n	a13, a5
    2212:	06ed                                    	mov.n	a14, a6
    2214:	07fd                                    	mov.n	a15, a7
    2216:	ada342                                    	movi	a4, 0x3ad
    2219:	0008e0                                    	callx8	a8
    221c:	1144b0                                    	slli	a4, a4, 5
    221f:	fec252                                    	addi	a5, a2, -2
    2222:	a34a                                    	add.n	a10, a3, a4
    2224:	170c                                    	movi.n	a7, 1
    2226:	f7bd41                                    	l32r	a4, 11c (a5b0 <xt_memset>)
    2229:	75d362                                    	addmi	a6, a3, 0x7500
    222c:	62f570                                    	saltu	a15, a5, a7
    222f:	0b0c                                    	movi.n	a11, 0
    2231:	4ca2c2                                    	movi	a12, 0x24c
    2234:	31f9                                    	s32i.n	a15, a1, 12
    2236:	2466a2                                    	s32i	a10, a6, 144
    2239:	854c                                    	movi.n	a5, 72
    223b:	0004e0                                    	callx8	a4
    223e:	f77871                                    	l32r	a7, 20 (d8e0 <aec_nr_para>)
    2241:	76d552                                    	addmi	a5, a5, 0x7600
    2244:	a35a                                    	add.n	a10, a3, a5
    2246:	78d3d2                                    	addmi	a13, a3, 0x7800
    2249:	0c2c                                    	movi.n	a12, 32
    224b:	6266a2                                    	s32i	a10, a6, 0x188
    224e:	0788                                    	l32i.n	a8, a7, 0
    2250:	0b0c                                    	movi.n	a11, 0
    2252:	58c8e2                                    	addi	a14, a8, 88
    2255:	e79882                                    	l16si	a8, a8, 0x1ce
    2258:	ff9ef2                                    	l16si	a15, a14, 0x1fe
    225b:	395d82                                    	s16i	a8, a13, 114
    225e:	385df2                                    	s16i	a15, a13, 112
    2261:	dca052                                    	movi	a5, 220
    2264:	0004e0                                    	callx8	a4
    2267:	77d552                                    	addmi	a5, a5, 0x7700
    226a:	0b0c                                    	movi.n	a11, 0
    226c:	a35a                                    	add.n	a10, a3, a5
    226e:	cc3c                                    	movi.n	a12, 60
    2270:	b666a2                                    	s32i	a10, a6, 0x2d8
    2273:	22d352                                    	addmi	a5, a3, 0x2200
    2276:	0004e0                                    	callx8	a4
    2279:	0788                                    	l32i.n	a8, a7, 0
    227b:	1d2552                                    	l32i	a5, a5, 116
    227e:	07fd                                    	mov.n	a15, a7
    2280:	7ad3b2                                    	addmi	a11, a3, 0x7a00
    2283:	52c8c2                                    	addi	a12, a8, 82
    2286:	170c                                    	movi.n	a7, 1
    2288:	28c5d2                                    	addi	a13, a5, 40
    228b:	50c5e2                                    	addi	a14, a5, 80
    228e:	d966d2                                    	s32i	a13, a6, 0x364
    2291:	ff1cd2                                    	l16ui	a13, a12, 0x1fe
    2294:	78c552                                    	addi	a5, a5, 120
    2297:	fe9cc2                                    	l16si	a12, a12, 0x1fc
    229a:	db6652                                    	s32i	a5, a6, 0x36c
    229d:	78d3a2                                    	addmi	a10, a3, 0x7800
    22a0:	414fd0                                    	srli	a4, a13, 15
    22a3:	f7b851                                    	l32r	a5, 184 (dfff <_end+0x713>)
    22a6:	364b42                                    	s8i	a4, a11, 54
    22a9:	2018b2                                    	l16ui	a11, a8, 64
    22ac:	da66e2                                    	s32i	a14, a6, 0x368
    22af:	01e790                                    	slli	a14, a7, 23
    22b2:	00a172                                    	movi	a7, 0x100
    22b5:	e4d0d0                                    	extui	a13, a13, 0, 15
    22b8:	539d70                                    	max	a9, a13, a7
    22bb:	53cc70                                    	max	a12, a12, a7
    22be:	6255b0                                    	saltu	a5, a5, a11
    22c1:	247c                                    	movi.n	a4, -14
    22c3:	270c                                    	movi.n	a7, 2
    22c5:	41bcb0                                    	srli	a11, a11, 12
    22c8:	937450                                    	movnez	a7, a4, a5
    22cb:	7ad3d2                                    	addmi	a13, a3, 0x7a00
    22ce:	57ba                                    	add.n	a5, a7, a11
    22d0:	2f5ac2                                    	s16i	a12, a10, 94
    22d3:	c29e90                                    	quou	a9, a14, a9
    22d6:	1155e0                                    	slli	a5, a5, 2
    22d9:	305a92                                    	s16i	a9, a10, 96
    22dc:	50a342                                    	movi	a4, 0x350
    22df:	1a5d52                                    	s16i	a5, a13, 52
    22e2:	b84a                                    	add.n	a11, a8, a4
    22e4:	282266                                    	bnei	a2, 2, 2310 <Voice_EC_Inear_Init+0x10c>
    22e7:	75d322                                    	addmi	a2, a3, 0x7500
    22ea:	75d3a2                                    	addmi	a10, a3, 0x7500
    22ed:	1f2252                                    	l32i	a5, a2, 124
    22f0:	1b22b2                                    	l32i	a11, a2, 108
    22f3:	c0a392                                    	movi	a9, 0x3c0
    22f6:	80a2c2                                    	movi	a12, 0x280
    22f9:	60a4d2                                    	movi	a13, 0x460
    22fc:	90a3e2                                    	movi	a14, 0x390
    22ff:	559a                                    	add.n	a5, a5, a9
    2301:	206252                                    	s32i	a5, a2, 128
    2304:	2bca                                    	add.n	a2, a11, a12
    2306:	5bda                                    	add.n	a5, a11, a13
    2308:	b8ea                                    	add.n	a11, a8, a14
    230a:	1c6a22                                    	s32i	a2, a10, 112
    230d:	1d6a52                                    	s32i	a5, a10, 116

00002310 <Voice_EC_Inear_Init+0x10c>:
    2310:	61a722                                    	movi	a2, 0x761
    2313:	3148                                    	l32i.n	a4, a1, 12
    2315:	1122c0                                    	slli	a2, a2, 4
    2318:	0f5d                                    	mov.n	a5, a15
    231a:	a32a                                    	add.n	a10, a3, a2
    231c:	f79521                                    	l32r	a2, 170 (1e28 <HP_coef_setup>)
    231f:	0002e0                                    	callx8	a2
    2322:	f79921                                    	l32r	a2, 188 (e74 <SBAEC_INIT_inear>)
    2325:	03ad                                    	mov.n	a10, a3
    2327:	04bd                                    	mov.n	a11, a4
    2329:	0002e0                                    	callx8	a2
    232c:	242642                                    	l32i	a4, a6, 144
    232f:	d8a222                                    	movi	a2, 0x2d8
    2332:	f77a61                                    	l32r	a6, 11c (a5b0 <xt_memset>)
    2335:	80a4e2                                    	movi	a14, 0x480
    2338:	0578                                    	l32i.n	a7, a5, 0
    233a:	0b0c                                    	movi.n	a11, 0
    233c:	a42a                                    	add.n	a10, a4, a2
    233e:	04d4f2                                    	addmi	a15, a4, 0x400
    2341:	d4a0c2                                    	movi	a12, 212
    2344:	31f9                                    	s32i.n	a15, a1, 12
    2346:	24ea                                    	add.n	a2, a4, a14
    2348:	050c                                    	movi.n	a5, 0
    234a:	0006e0                                    	callx8	a6
    234d:	02ad                                    	mov.n	a10, a2
    234f:	0b0c                                    	movi.n	a11, 0
    2351:	8c0c                                    	movi.n	a12, 8
    2353:	820c                                    	movi.n	a2, 8
    2355:	0006e0                                    	callx8	a6
    2358:	42d332                                    	addmi	a3, a3, 0x4200
    235b:	04d492                                    	addmi	a9, a4, 0x400
    235e:	172332                                    	l32i	a3, a3, 92
    2361:	02d7d2                                    	addmi	a13, a7, 0x200
    2364:	1e6932                                    	s32i	a3, a9, 120
    2367:	621d32                                    	l16ui	a3, a13, 196
    236a:	4d24a2                                    	l32i	a10, a4, 0x134
    236d:	e0a3b2                                    	movi	a11, 0x3e0
    2370:	1f69a2                                    	s32i	a10, a9, 124
    2373:	4b2482                                    	l32i	a8, a4, 0x12c
    2376:	a4ba                                    	add.n	a10, a4, a11
    2378:	f78561                                    	l32r	a6, 18c (7fff0000 <_end+0x7ffe2714>)
    237b:	1d6982                                    	s32i	a8, a9, 116
    237e:	02d7c2                                    	addmi	a12, a7, 0x200
    2381:	887c                                    	movi.n	a8, -8
    2383:	1c69a2                                    	s32i	a10, a9, 112
    2386:	f48080                                    	extui	a8, a8, 0, 16
    2389:	196962                                    	s32i	a6, a9, 100
    238c:	33a3e2                                    	movi	a14, 0x333
    238f:	186962                                    	s32i	a6, a9, 96
    2392:	a38c                                    	beqz.n	a3, 23a0 <Voice_EC_Inear_Init+0x19c>
    2394:	245030                                    	extui	a5, a3, 0, 3
    2397:	631c22                                    	l16ui	a2, a12, 198
    239a:	103380                                    	and	a3, a3, a8
    239d:	000086                                    	j	23a3 <Voice_EC_Inear_Init+0x19f>

000023a0 <Voice_EC_Inear_Init+0x19c>:
    23a0:	113ed0                                    	slli	a3, a14, 3
    23a3:	3168                                    	l32i.n	a6, a1, 12
    23a5:	04d4f2                                    	addmi	a15, a4, 0x400
    23a8:	415f52                                    	s16i	a5, a15, 130
    23ab:	345f22                                    	s16i	a2, a15, 104
    23ae:	405632                                    	s16i	a3, a6, 128
    23b1:	f01d                                    	retw.n

000023b3 <Voice_EC_Inear_Init+0x1af>:
	...

000023b4 <mic240_delay>:
    23b4:	004136                                    	entry	a1, 32
    23b7:	f71b61                                    	l32r	a6, 24 (a5c4 <xt_memcpy>)
    23ba:	02ad                                    	mov.n	a10, a2
    23bc:	04bd                                    	mov.n	a11, a4
    23be:	05cd                                    	mov.n	a12, a5
    23c0:	0006e0                                    	callx8	a6
    23c3:	f0a0f2                                    	movi	a15, 240
    23c6:	90a520                                    	addx2	a10, a5, a2
    23c9:	c0cf50                                    	sub	a12, a15, a5
    23cc:	03bd                                    	mov.n	a11, a3
    23ce:	1175f0                                    	slli	a7, a5, 1
    23d1:	0006e0                                    	callx8	a6
    23d4:	c02370                                    	sub	a2, a3, a7
    23d7:	e0a1f2                                    	movi	a15, 0x1e0
    23da:	b2fa                                    	add.n	a11, a2, a15
    23dc:	04ad                                    	mov.n	a10, a4
    23de:	05cd                                    	mov.n	a12, a5
    23e0:	0006e0                                    	callx8	a6
    23e3:	f01d                                    	retw.n

000023e5 <mic240_delay+0x31>:
    23e5:	000000                                        ...

000023e8 <sbiir2>:
    23e8:	004136                                    	entry	a1, 32
    23eb:	1306f3400489b02e                  	{ ae_l16x2m.i	aed0, a2, 0; or	a5, a3, a3 }
    23f3:	0e6ce97c0d2740d00700013c1c01925f 	{ ae_l32x2.ip	aed2, a5, 16; ae_l32.i	aed1, a4, 0; nop; ae_slai32	aed0, aed0, 8 }
    2403:	0e6cf17c2d3741210408213d1801f25f 	{ ae_l32x2.i	aed3, a5, -8; ae_l32.i	aed5, a4, 4; nop; ae_cvt48f32.h	aed4, aed2 }
    2413:	0e5533bb0d3c0c01c4007d1c10c02cef 	{ ae_cvt48f32.l	aed2, aed2; nop; ae_sel16i.n	aed6, aed0, aed3, 1; ae_sel16i	aed7, aed0, aed3, 3 }
    2423:	046d6169b52f59308914e13c1001325f 	{ ae_s32x2.i	aed0, a5, -16; ae_l32x2.ip	aed22, a5, 8; nop; ae_mulasf2d32ra.hh.ll	aed4, aed2, aed6, aed7, aed1, aed5 }
    2433:	0e6cf17cbd3e4220c40c213c1c0158ef 	{ ae_cvt48f32.h	aed21, aed3; ae_l32.i	aed23, a4, 8; nop; ae_cvt48f32.l	aed3, aed3 }
    2443:	0eace57cc52643a8c308413d1401b8ef 	{ ae_cvt48f32.h	aed27, aed22; ae_l32.i	aed24, a4, 12; nop; ae_round32x2f48sasym	aed2, aed4, aed2 }
    2453:	0e5573a9153f5906850addb41322b25f 	{ ae_s32x2.i	aed2, a5, -16; ae_l32x2.ip	aed2, a5, 8; ae_sel16i.n	aed25, aed2, aed22, 1; ae_sel16i	aed26, aed2, aed22, 3 }
    2463:	046cf57ce53e44c8eb63413d10011cef 	{ ae_cvt48f32.l	aed1, aed22; ae_l32.i	aed28, a4, 16; nop; ae_mulasf2d32ra.hh.ll	aed21, aed3, aed25, aed26, aed23, aed24 }
    2473:	0ead357b098d0ca8c380613b1c019d4f 	{ ae_l32.i	aed30, a4, 20; nop; nop; ae_round32x2f48sasym	aed0, aed21, aed3 }
    2483:	1a8103172840420e                  	{ ae_sel16i	aed29, aed0, aed2, 1; nop; ae_sel16i.n	aed2, aed0, aed2, 3 }
    248b:	046d3d7b0d250ce87778413c1001325f 	{ ae_s32x2.i	aed0, a5, -16; nop; nop; ae_mulasf2d32ra.hh.ll	aed27, aed1, aed29, aed2, aed28, aed30 }
    249b:	0ead197b08fd0ca8c2fc21380c01e2bf 	{ ae_round24x2f48sasym	aed2, aed27, aed1; nop; nop; ae_round32x2f48sasym	aed31, aed27, aed1 }
    24ab:	030692c010fcc33e                  	{ ae_movad32.h	a3, aed2; ae_movad32.l	a2, aed2 }
    24b3:	230700c718e5be5e                  	{ ae_s32x2.i	aed31, a5, -8; nop }
    24bb:	f01d                                    	retw.n

000024bd <sbiir2+0xd5>:
    24bd:	000000                                        ...

000024c0 <tx_downsample_by2_N>:
    24c0:	008136                                    	entry	a1, 64
    24c3:	010526411881016e                  	{ s32i	a6, a1, 28; ae_l32m.i	aed1, a6, 0 }
    24cb:	fec332                                    	addi	a3, a3, -2
    24ce:	5717a6                                    	blti	a7, 1, 2529 <tx_downsample_by2_N+0x69>
    24d1:	f72f61                                    	l32r	a6, 190 (23e8 <sbiir2>)
    24d4:	2302e2c0049fa04e                  	{ ae_l16x2m.i	aed0, a4, 0; addi	a2, a2, -2 }

000024dc <tx_downsample_by2_N+0x1c>:
    24dc:	1c807a0e3c002ece                  	{ l32r	a12, 194 (cc60 <wb_r01_v2>); nop; ae_mulaafd32s.hh.ll	aed1, aed0, aed0 }
    24e4:	04ad                                    	mov.n	a10, a4
    24e6:	05bd                                    	mov.n	a11, a5
    24e8:	360287c008ff9b1e                  	{ ae_s64.i	aed1, a1, 16; addi	a7, a7, -1 }
    24f0:	0006e0                                    	callx8	a6
    24f3:	8baa                                    	add.n	a8, a11, a10
    24f5:	c09ab0                                    	sub	a9, a10, a11
    24f8:	218180                                    	srai	a8, a8, 1
    24fb:	219190                                    	srai	a9, a9, 1
    24fe:	080678c00481d14e                  	{ ae_l16x2m.iu	aed0, a4, 4; ae_movda32x2	aed1, a8, a9 }
    2506:	0ead217b0d4c0cd0c50401380c01015f 	{ nop; nop; nop; ae_roundsp16f24asym	aed1, aed1 }
    2516:	030040c00cc1113e                  	{ ae_s16m.l.iu	aed1, a3, 2; ae_sel16i	aed1, aed1, aed1, 1 }
    251e:	2305c1400cc1012e                  	{ ae_s16m.l.iu	aed1, a2, 2; ae_l64.i	aed1, a1, 16 }
    2526:	fb2756                                    	bnez	a7, 24dc <tx_downsample_by2_N+0x1c>
    2529:	0ead017b09ec0cd0c50041381c01112f 	{ l32i	a2, a1, 28; nop; nop; ae_roundsq32f48asym	aed0, aed1 }
    2539:	220760c000c5b02e                  	{ ae_s32m.i	aed0, a2, 0; nop }
    2541:	f01d                                    	retw.n

00002543 <tx_downsample_by2_N+0x83>:
	...

00002544 <tx_downsample_by2>:
    2544:	004136                                    	entry	a1, 32
    2547:	f71471                                    	l32r	a7, 198 (24c0 <tx_downsample_by2_N>)
    254a:	4f1c                                    	movi.n	a15, 20
    254c:	02ad                                    	mov.n	a10, a2
    254e:	03bd                                    	mov.n	a11, a3
    2550:	04cd                                    	mov.n	a12, a4
    2552:	05dd                                    	mov.n	a13, a5
    2554:	06ed                                    	mov.n	a14, a6
    2556:	0007e0                                    	callx8	a7
    2559:	f01d                                    	retw.n

0000255b <tx_downsample_by2+0x17>:
	...

0000255c <tx_upsample_by2_N>:
    255c:	008136                                    	entry	a1, 64
    255f:	010526410883016e                  	{ s32i	a6, a1, 20; ae_l32m.i	aed3, a6, 0 }
    2567:	1cc182                                    	addi	a8, a1, 28
    256a:	6a17a6                                    	blti	a7, 1, 25d8 <tx_upsample_by2_N+0x7c>
    256d:	000473470461e46e                  	{ addi	a6, a4, -4; ae_l16m.i	aed1, a3, 0 }
    2575:	040460400480602e                  	{ ae_l16m.i	aed0, a2, 0; movi	a4, 0 }
    257d:	6189                                    	s32i.n	a8, a1, 24

0000257f <tx_upsample_by2_N+0x23>:
    257f:	0ea54027d9e655b0c1082008143f11af 	{ l32i	a10, a1, 24; or	a11, a5, a5; ae_sub24s	aed31, aed0, aed1; ae_add24s	aed2, aed0, aed1 }
    258f:	1e806b1e3c4201ce                  	{ l32r	a12, 194 (cc60 <wb_r01_v2>); nop; ae_mulaf32s.ll	aed3, aed2, aed2 }
    2597:	f6fe81                                    	l32r	a8, 190 (23e8 <sbiir2>)
    259a:	2402844018e0871e                  	{ ae_s64.i	aed3, a1, 8; addi	a4, a4, 2 }
    25a2:	220740c014c510ae                  	{ ae_s16m.l.i	aed2, a10, 0; nop }
    25aa:	220740c71cc511ae                  	{ ae_s16m.l.i	aed31, a10, 2; nop }
    25b2:	0008e0                                    	callx8	a8
    25b5:	0a061ac018e2171e                  	{ ae_l64.i	aed3, a1, 8; ae_movda32x2	aed2, a10, a11 }
    25bd:	0eace1710d3331d0c40801380801012f 	{ ae_l16m.iu	aed0, a2, 2; ae_l16m.iu	aed1, a3, 2; nop; ae_roundsp16f24asym	aed2, aed2 }
    25cd:	220740c014c5716e                  	{ ae_s16x2m.iu	aed2, a6, 4; nop }
    25d5:	a62477                                    	blt	a4, a7, 257f <tx_upsample_by2_N+0x23>
    25d8:	0ead017b09fc0cd0c50041380c01112f 	{ l32i	a2, a1, 20; nop; nop; ae_roundsq32f48asym	aed0, aed3 }
    25e8:	220760c000c5b02e                  	{ ae_s32m.i	aed0, a2, 0; nop }
    25f0:	f01d                                    	retw.n

000025f2 <tx_upsample_by2_N+0x96>:
	...

000025f4 <tx_upsample_by2>:
    25f4:	004136                                    	entry	a1, 32
    25f7:	f6e971                                    	l32r	a7, 19c (255c <tx_upsample_by2_N>)
    25fa:	8f2c                                    	movi.n	a15, 40
    25fc:	02ad                                    	mov.n	a10, a2
    25fe:	03bd                                    	mov.n	a11, a3
    2600:	04cd                                    	mov.n	a12, a4
    2602:	05dd                                    	mov.n	a13, a5
    2604:	06ed                                    	mov.n	a14, a6
    2606:	0007e0                                    	callx8	a7
    2609:	f01d                                    	retw.n

0000260b <tx_upsample_by2+0x17>:
	...

0000260c <emph_filter_N>:
    260c:	004136                                    	entry	a1, 32
    260f:	100474c00c60056e                  	{ addi	a6, a5, 1; ae_l16x2m.i	aed0, a4, 0 }
    2617:	b36550                                    	movgez	a6, a5, a5
    261a:	7225a6                                    	blti	a5, 2, 2690 <emph_filter_N+0x84>
    261d:	2302e2c00c9fb03e                  	{ ae_l16x2m.i	aed1, a3, 0; addi	a3, a2, -2 }
    2625:	215160                                    	srai	a5, a6, 1
    2628:	fcc222                                    	addi	a2, a2, -4
    262b:	f03d                                    	nop.n
    262d:	5f8576                                    	loop	a5, 2690 <emph_filter_N+0x84>
    2630:	220760c01485d12e                  	{ ae_l16x2m.iu	aed2, a2, 4; nop }
    2638:	0e5537bb0d340c2104083d0413a2396f 	{ ae_cvtq56p32s.h	aed3, aed2; nop; ae_sel16i.n	aed29, aed2, aed0, 1; ae_cvtq56p32s.l	aed4, aed2 }
    2648:	0e9d22fb0d440c088716ab200c22015f 	{ nop; nop; ae_mulaf32s.hh	aed4, aed1, aed2; ae_mulaf32s.hh	aed3, aed1, aed0 }
    2658:	0e1503fb0be40c0e062b3820103d002f 	{ ae_sel16i	aed0, aed2, aed2, 0; nop; ae_mulaafd32s.hh.ll	aed4, aed1, aed29; ae_mulaafd32s.hh.ll	aed3, aed1, aed0 }
    2668:	0ead217b0d5c0ce8c37861380c01015f 	{ nop; nop; nop; ae_roundsp16q48x2asym	aed30, aed3, aed3 }
    2678:	0ead257b0c450ce8c37c813b04018d3f 	{ ae_s16m.l.iu	aed30, a3, 2; nop; nop; ae_roundsp16q48x2asym	aed31, aed4, aed4 }
    2688:	230740c71cc5113e                  	{ ae_s16m.l.iu	aed31, a3, 2; nop }

00002690 <emph_filter_N+0x84>:
    2690:	230740c004c5504e                  	{ ae_s16x2m.i	aed0, a4, 0; nop }
    2698:	f01d                                    	retw.n

0000269a <emph_filter_N+0x8e>:
	...

0000269c <deemph_filter_N>:
    269c:	004136                                    	entry	a1, 32
    269f:	0c07204000c4604e                  	{ ae_l32m.i	aed0, a4, 0; ae_movi	aed4, 0 }
    26a7:	220720c008c5714e                  	{ ae_l32m.i	aed1, a4, 4; nop }
    26af:	1d0720200c0735ce                  	{ blti.w15	a5, 1, 2719 <deemph_filter_N+0x7d>; ae_mov	aed7, aed1 }
    26b7:	010472401486a03e                  	{ ae_l16x2m.i	aed2, a3, 0; ae_l16m.i	aed6, a2, 0 }
    26bf:	050061c21403a1fe                  	{ l32r	a15, 144 (b540 <immediate_num>); ae_sel16i	aed3, aed2, aed2, 1 }
    26c7:	26835b233403b13e                  	{ nop; nop; ae_mulsf48q32sp16s.l	aed4, aed0, aed3 }
    26cf:	2681bb242c030f3e                  	{ addi	a3, a15, 48; nop; ae_mulsf48q32sp16s.l	aed4, aed0, aed3 }
    26d7:	f03d                                    	nop.n
    26d9:	110453c700a5250e                  	{ loop	a5, 2719 <deemph_filter_N+0x7d>; ae_l16x2m.i	aed5, a3, 0 }
    26e1:	26837b2028e2000e                  	{ ae_mov	aed1, aed0; nop; ae_mulsf48q32sp16s.l	aed4, aed7, aed2 }
    26e9:	2a82232428c5612e                  	{ ae_l16m.iu	aed6, a2, 2; nop; ae_mulssfd32s.hh.ll	aed4, aed6, aed5 }
    26f1:	0ead051b09e40cd0c480412100e1400f 	{ ae_movi	aed4, 0; nop; ae_mov	aed7, aed1; ae_roundsq32f48asym	aed0, aed4 }
    2701:	0e9d205b0d440ce8c37c1a200c03015f 	{ nop; nop; ae_mulsf48q32sp16s.l	aed4, aed0, aed3; ae_roundsp16q48x2asym	aed31, aed0, aed0 }
    2711:	2682bb272c03ff2e                  	{ ae_s16m.l.i	aed31, a2, -2; nop; ae_mulsf48q32sp16s.l	aed4, aed0, aed3 }

00002719 <deemph_filter_N+0x7d>:
    2719:	220760c000c5b04e                  	{ ae_s32m.i	aed0, a4, 0; nop }
    2721:	220760c008c5b14e                  	{ ae_s32m.i	aed1, a4, 4; nop }
    2729:	f01d                                    	retw.n

0000272b <deemph_filter_N+0x8f>:
	...

0000272c <analy2_3band>:
    272c:	006136                                    	entry	a1, 48
    272f:	fec2b2                                    	addi	a11, a2, -2
    2732:	f69bc1                                    	l32r	a12, 1a0 (cbe0 <sb2_coef>)
    2735:	20c392                                    	addi	a9, a3, 32
    2738:	102322                                    	l32i	a2, a3, 64
    273b:	40c382                                    	addi	a8, a3, 64
    273e:	a70c                                    	movi.n	a7, 10
    2740:	2a0c                                    	movi.n	a10, 2
    2742:	fcc442                                    	addi	a4, a4, -4
    2745:	0e6ce087e4636600c60821221440f55f 	{ addi	a5, a5, -2; addi	a6, a6, -4; ae_movi	aed2, 0; ae_movi	aed3, 0 }
    2755:	f3f630                                    	wur.ae_cbegin0	a3
    2758:	3139                                    	s32i.n	a3, a1, 12
    275a:	40ccc2                                    	addi	a12, a12, 64
    275d:	f3f790                                    	wur.ae_cend0	a9
    2760:	f3f890                                    	wur.ae_cbegin1	a9
    2763:	f3f980                                    	wur.ae_cend1	a8
    2766:	20c292                                    	addi	a9, a2, 32
    2769:	430c                                    	movi.n	a3, 4

0000276b <analy2_3band+0x3f>:
    276b:	3d06fc40048b61be                  	{ ae_l16m.iu	aed0, a11, 2; or	a15, a12, a12 }
    2773:	11045b4004c13a2e                  	{ ae_s16m.l.xc	aed0, a2, a10; ae_l16m.iu	aed1, a11, 2 }
    277b:	0e6d7507f45f2220050821211c22629f 	{ ae_s16m.l.xc1	aed1, a9, a10; or	a14, a2, a2; ae_mov	aed1, aed2; ae_mov	aed0, aed2 }
    278b:	f68581                                    	l32r	a8, 1a0 (cbe0 <sb2_coef>)
    278e:	1806b94318eb74ee                  	{ ae_la16x4pos.pc	u0, a14; or	a13, a9, a9 }
    2796:	2e835090240067de                  	{ ae_la16x4pos.pc1	u1, a13; nop; nop }
    279e:	230720c318e5747e                  	{ nop; nop }
    27a6:	0020f0                                    	nop
    27a9:	f03d                                    	nop.n
    27ab:	f03d                                    	nop.n
    27ad:	2f8376                                    	loop	a3, 27e0 <analy2_3band+0xb4>
    27b0:	000081485442d9004a030322b80070ef 	{ ae_la16x4.ic	aed4, u0, a14; ae_la16x4.ic1	aed5, u1, a13; nop }
    27c0:	000080c950a3f10056031329b800128f 	{ ae_l16x4x2.ip	aed6, aed7, a8, 16; ae_l16x4x2.ip	aed8, aed9, a15, 16; nop }
    27d0:	0493a8a90a01082803a482199886680f 	{ nop; nop; ae_mulaaaa2q16	aed3, aed2, aed4, aed5, aed6, aed7; ae_mulaaaa2q16	aed1, aed0, aed5, aed4, aed8, aed9 }

000027e0 <analy2_3band+0xb4>:
    27e0:	0e64e827fd02774047802218149cd03f 	{ ae_add64	aed4, aed3, aed2; addi	a7, a7, -1; ae_sub64	aed28, aed2, aed3; ae_slai64	aed1, aed1, 16 }
    27f0:	0e6d696a19020447478081380401040f 	{ ae_slai64	aed0, aed0, 16; ae_movi	aed3, 0; nop; ae_slai64	aed29, aed4, 16 }
    2800:	0ead217b090d0ce8c3800138040184cf 	{ ae_slai64	aed2, aed28, 16; nop; nop; ae_roundsp16q48x2asym	aed0, aed1, aed0 }
    2810:	0ead416a10f304e8c2fc413f0c01fedf 	{ ae_round24x2f48sasym	aed30, aed29, aed29; ae_movi	aed2, 0; nop; ae_roundsp16q48x2asym	aed31, aed2, aed2 }
    2820:	220740c004c5716e                  	{ ae_s16x2m.iu	aed0, a6, 4; nop }
    2828:	230740c71cc5115e                  	{ ae_s16m.l.iu	aed31, a5, 2; nop }
    2830:	0502e44710c1414e                  	{ ae_s32f24.l.i	aed30, a4, 4; addi	a4, a4, 4 }
    2838:	f2f756                                    	bnez	a7, 276b <analy2_3band+0x3f>
    283b:	3138                                    	l32i.n	a3, a1, 12
    283d:	106322                                    	s32i	a2, a3, 64
    2840:	f01d                                    	retw.n

00002842 <analy2_3band+0x116>:
	...

00002844 <synth_3band>:
    2844:	004136                                    	entry	a1, 32
    2847:	b54b                                    	addi.n	a11, a5, 4
    2849:	f65671                                    	l32r	a7, 1a4 (b770 <sb_g10>)
    284c:	f3f6b0                                    	wur.ae_cbegin0	a11
    284f:	7cc5c2                                    	addi	a12, a5, 124
    2852:	f65581                                    	l32r	a8, 1a8 (b7f0 <sb_h2ir_v2>)
    2855:	05b8                                    	l32i.n	a11, a5, 0
    2857:	a90c                                    	movi.n	a9, 10
    2859:	f3f7c0                                    	wur.ae_cend0	a12
    285c:	4c0c                                    	movi.n	a12, 4
    285e:	0fa0a2                                    	movi	a10, 15
    2861:	fec222                                    	addi	a2, a2, -2
    2864:	fec332                                    	addi	a3, a3, -2
    2867:	fcc442                                    	addi	a4, a4, -4
    286a:	fec662                                    	addi	a6, a6, -2

0000286d <synth_3band+0x29>:
    286d:	110473400481712e                  	{ ae_l16m.iu	aed0, a2, 2; ae_l16m.iu	aed1, a3, 2 }
    2875:	0e64c017f8e241004788200808c2200f 	{ ae_sub24s	aed0, aed0, aed1; ae_l16x2m.iu	aed31, a4, 4; ae_add24s	aed2, aed0, aed1; ae_movi	aed1, 0 }
    2885:	010031c318e0647e                  	{ nop; ae_sel16i	aed0, aed2, aed0, 3 }
    288d:	1c07404004c09cbe                  	{ ae_s16x2m.xc	aed0, a11, a12; ae_mov	aed0, aed1 }
    2895:	220740c71cc59cbe                  	{ ae_s16x2m.xc	aed31, a11, a12; nop }
    289d:	110478c01c82a07e                  	{ ae_l16x2m.i	aed3, a7, 0; ae_l16x2m.i	aed2, a8, 0 }
    28a5:	278a76                                    	loop	a10, 28d0 <synth_3band+0x8c>
    28a8:	220760c10485fcbe                  	{ ae_l16x2m.xc	aed4, a11, a12; nop }
    28b0:	0e9ce6f71c427118809eab09046474bf 	{ ae_l16x2m.xc	aed5, a11, a12; ae_l16x2m.iu	aed3, a7, 4; ae_mulaf32s.hh	aed1, aed3, aed4; ae_mulaf32s.ll	aed0, aed3, aed4 }
    28c0:	0e1d231b0d350c2b41af4b080045818f 	{ ae_l16x2m.iu	aed2, a8, 4; nop; ae_mulaf32s.lh	aed1, aed2, aed5; ae_mulsf32s.lh	aed0, aed5, aed2 }

000028d0 <synth_3band+0x8c>:
    28d0:	0eace166246377e8c200013a1c01f99f 	{ addi	a9, a9, -1; addi	a7, a7, -60; nop; ae_roundsp16q48x2asym	aed0, aed0, aed0 }
    28e0:	0eace166244b88e8c30421390401016f 	{ ae_s16m.l.iu	aed0, a6, 2; addi	a8, a8, -60; nop; ae_roundsp16q48x2asym	aed1, aed1, aed1 }
    28f0:	230740c00cc5116e                  	{ ae_s16m.l.iu	aed1, a6, 2; nop }
    28f8:	f71956                                    	bnez	a9, 286d <synth_3band+0x29>
    28fb:	05b9                                    	s32i.n	a11, a5, 0
    28fd:	f01d                                    	retw.n

000028ff <synth_3band+0xbb>:
	...

00002900 <biquad_2cascade_24bitTxB>:
    2900:	004136                                    	entry	a1, 32
    2903:	1205134010e0023e                  	{ ae_l32x2.i	aed2, a3, 0; ae_l32x2.i	aed0, a3, 16 }
    290b:	047d                                    	mov.n	a7, a4
    290d:	110553240c01f6ce                  	{ blti.w15	a6, 1, 29d0 <biquad_2cascade_24bitTxB+0xd0>; ae_l32x2.i	aed1, a3, 8 }
    2915:	000492c018ea164e                  	{ ae_l32x2.i	aed3, a4, 8; ae_l32f24.ip	aed10, a2, 4 }
    291d:	130534410ca4c97e                  	{ ae_l32x2.ip	aed5, a7, 8; ae_l32x2.i	aed4, a4, 16 }
    2925:	10c7f2                                    	addi	a15, a7, 16
    2928:	fec542                                    	addi	a4, a5, -2
    292b:	1305174200e6027e                  	{ ae_l32x2.i	aed8, a7, 32; ae_l32x2.i	aed6, a7, 16 }
    2933:	16051fc118e90e7e                  	{ ae_l32x2.i	aed7, a7, 24; ae_l32.i	aed9, a15, 24 }
    293b:	f03d                                    	nop.n
    293d:	8f8676                                    	loop	a6, 29d0 <biquad_2cascade_24bitTxB+0xd0>
    2940:	0e1d013b0bf40c1fd62f3360108120af 	{ ae_sel16i	aed2, aed2, aed10, 0; nop; ae_mulzssfd32s.hl.lh	aed12, aed4, aed1; ae_mulzaafd32s.hl.lh	aed11, aed3, aed2 }
    2950:	0e1527fb0d440c0b572f59600ca2015f 	{ nop; nop; ae_mulaafd32s.hl.lh	aed12, aed5, aed2; ae_mulsf32s.lh	aed11, aed1, aed4 }
    2960:	0e1d213b0d4c0c3ffd2f33680d00015f 	{ nop; nop; ae_mulzssfd32s.hl.lh	aed13, aed8, aed0; ae_mulzaafd32s.hl.lh	aed30, aed7, aed1 }
    2970:	0e9d245b0d040cd0c58090f30408c7bf 	{ ae_add64	aed11, aed11, aed12; nop; ae_mulsf32s.lh	aed30, aed0, aed8; nop }
    2980:	2e82709238001c1e                  	{ ae_pksr24	aed1, aed11, 0; nop; nop }
    2988:	1c835b6b34c1b13e                  	{ nop; nop; ae_mulaafd32s.hl.lh	aed13, aed6, aed1 }
    2990:	0ead257b0d050cd0c580813b0c01c6ef 	{ ae_add64	aed10, aed30, aed13; nop; nop; nop }
    29a0:	2e82709230000c1e                  	{ ae_pksr24	aed0, aed10, 0; nop; nop }
    29a8:	010030c318ea647e                  	{ nop; ae_sel16i	aed10, aed0, aed0, 3 }
    29b0:	2a835953352ab13e                  	{ nop; nop; ae_mulzaafd32s.hh.ll	aed10, aed9, aed10 }
    29b8:	0ead297b0d340ce8c37d41381801892f 	{ ae_l32f24.ip	aed10, a2, 4; nop; nop; ae_roundsp16q48x2asym	aed31, aed10, aed10 }
    29c8:	230740c71cc5114e                  	{ ae_s16m.l.iu	aed31, a4, 2; nop }

000029d0 <biquad_2cascade_24bitTxB+0xd0>:
    29d0:	220700c010e5923e                  	{ ae_s32x2.i	aed2, a3, 0; nop }
    29d8:	220700c008e5963e                  	{ ae_s32x2.i	aed1, a3, 8; nop }
    29e0:	220700c000e59a3e                  	{ ae_s32x2.i	aed0, a3, 16; nop }
    29e8:	f01d                                    	retw.n

000029ea <biquad_2cascade_24bitTxB+0xea>:
	...

000029ec <conv_24_to_16>:
    29ec:	004136                                    	entry	a1, 32
    29ef:	05a042                                    	movi	a4, 5
    29f2:	fcc332                                    	addi	a3, a3, -4
    29f5:	1f8476                                    	loop	a4, 2a18 <conv_24_to_16+0x2c>
    29f8:	230720c004a5b92e                  	{ ae_l32x2f24.ip	aed0, a2, 8; nop }
    2a00:	0ead217b0d440cd0c50001380c01015f 	{ nop; nop; nop; ae_roundsp16f24asym	aed0, aed0 }
    2a10:	220740c004c5713e                  	{ ae_s16x2m.iu	aed0, a3, 4; nop }

00002a18 <conv_24_to_16+0x2c>:
    2a18:	f01d                                    	retw.n

00002a1a <conv_24_to_16+0x2e>:
	...

00002a1c <gain_after_ec>:
    2a1c:	00a136                                    	entry	a1, 80
    2a1f:	f57fe1                                    	l32r	a14, 1c (d8e8 <p_ecnr_mem>)
    2a22:	daa6f2                                    	movi	a15, 0x6da
    2a25:	9139                                    	s32i.n	a3, a1, 36
    2a27:	8129                                    	s32i.n	a2, a1, 32
    2a29:	042d                                    	mov.n	a2, a4
    2a2b:	0e38                                    	l32i.n	a3, a14, 0
    2a2d:	110415c104e52ffe                  	{ addx4	a4, a15, a15; ae_l16x2m.i	aed5, a5, 0 }
    2a35:	b169                                    	s32i.n	a6, a1, 44
    2a37:	07bd                                    	mov.n	a11, a7
    2a39:	24045340008601ae                  	{ movi	a10, 1; ae_l16m.x	aed6, a3, a4 }
    2a41:	110432c610a70a1e                  	{ slli	a10, a10, 15; ae_l16x2m.i	aed7, a2, 0 }
    2a49:	045716                                    	beqz	a7, 2a92 <gain_after_ec+0x76>
    2a4c:	f5c031                                    	l32r	a3, 14c (7270 <airoha_divide>)
    2a4f:	220700c110e59b1e                  	{ ae_s64.i	aed6, a1, 16; nop }
    2a57:	220700c118e5971e                  	{ ae_s64.i	aed7, a1, 8; nop }
    2a5f:	220700c108e59f1e                  	{ ae_s64.i	aed5, a1, 24; nop }
    2a67:	0003e0                                    	callx8	a3
    2a6a:	20070b4008e00b1e                  	{ ae_l64.i	aed1, a1, 16; ae_cvt48a32	aed0, a11 }
    2a72:	2283130320015f1e                  	{ ae_l64.i	aed5, a1, 24; nop; ae_mulf48q32sp16s.l	aed0, aed0, aed1 }
    2a7a:	2005814300a71a0e                  	{ ae_slaaq56	aed0, aed0, a10; ae_l64.i	aed7, a1, 8 }
    2a82:	0ead057b08e40cd0c48081380401f20f 	{ ae_round24x2f48sasym	aed6, aed0, aed0; nop; nop; nop }

00002a92 <gain_after_ec+0x76>:
    2a92:	8188                                    	l32i.n	a8, a1, 32
    2a94:	fec232                                    	addi	a3, a2, -2
    2a97:	9178                                    	l32i.n	a7, a1, 36
    2a99:	fec592                                    	addi	a9, a5, -2
    2a9c:	2129                                    	s32i.n	a2, a1, 8
    2a9e:	02ed                                    	mov.n	a14, a2
    2aa0:	fec8d2                                    	addi	a13, a8, -2
    2aa3:	a20c                                    	movi.n	a2, 10
    2aa5:	fec762                                    	addi	a6, a7, -2
    2aa8:	fec842                                    	addi	a4, a8, -2
    2aab:	fec7c2                                    	addi	a12, a7, -2
    2aae:	4b0c                                    	movi.n	a11, 4
    2ab0:	a159                                    	s32i.n	a5, a1, 40
    2ab2:	05fd                                    	mov.n	a15, a5
    2ab4:	037d                                    	mov.n	a7, a3
    2ab6:	098d                                    	mov.n	a8, a9
    2ab8:	06ad                                    	mov.n	a10, a6
    2aba:	205440                                    	or	a5, a4, a4
    2abd:	b78276                                    	loop	a2, 2b78 <gain_after_ec+0x15c>
    2ac0:	0e1ce651153bd134002b6d0808c7c1cf 	{ ae_l16m.iu	aed3, a12, 2; ae_l16m.iu	aed2, a13, 2; ae_mulf32s.ll	aed1, aed6, aed7; ae_mulf32s.hh	aed0, aed6, aed7 }
    2ad0:	0e1d265b0d2d0c3409ab6d1800c3c5ef 	{ ae_l16x2m.iu	aed7, a14, 4; nop; ae_mulf32s.ll	aed3, aed6, aed3; ae_mulf32s.hh	aed4, aed6, aed5 }
    2ae0:	0e1d265b090c0c3475ab6dd81cc22b0f 	{ ae_slaaq56	aed0, aed0, a11; nop; ae_mulf32s.ll	aed27, aed6, aed2; ae_mulf32s.ll	aed26, aed6, aed5 }
    2af0:	0ead217b09040cf0c38001381c016b1f 	{ ae_slaaq56	aed1, aed1, a11; nop; nop; ae_roundsp16q48x2sym	aed0, aed0, aed0 }
    2b00:	0ead217b0c4d0cf0c30421390401017f 	{ ae_s16m.l.iu	aed0, a7, 2; nop; nop; ae_roundsp16q48x2sym	aed1, aed1, aed1 }
    2b10:	220760c304a51b4e                  	{ ae_slaaq56	aed28, aed4, a11; nop }
    2b18:	0ead3d7b09050cf0c38b81381c012bbf 	{ ae_slaaq56	aed0, aed27, a11; nop; nop; ae_roundsp16q48x2sym	aed2, aed28, aed28 }
    2b28:	0ead217b09e50cf0c38001381c016baf 	{ ae_slaaq56	aed29, aed26, a11; nop; nop; ae_roundsp16q48x2sym	aed0, aed0, aed0 }
    2b38:	0ead3d7b090c0cf0c3fba1381c01eb3f 	{ ae_slaaq56	aed3, aed3, a11; nop; nop; ae_roundsp16q48x2sym	aed30, aed29, aed29 }
    2b48:	0ead217b0c5d0cf0c37c61390401417f 	{ ae_s16m.l.iu	aed1, a7, 2; nop; nop; ae_roundsp16q48x2sym	aed31, aed3, aed3 }
    2b58:	21045fc014c5118e                  	{ ae_s16m.l.iu	aed2, a8, 2; ae_l16x2m.iu	aed5, a15, 4 }
    2b60:	230740c714c5118e                  	{ ae_s16m.l.iu	aed30, a8, 2; nop }
    2b68:	230740c004c5115e                  	{ ae_s16m.l.iu	aed0, a5, 2; nop }
    2b70:	230740c71cc511ae                  	{ ae_s16m.l.iu	aed31, a10, 2; nop }

00002b78 <gain_after_ec+0x15c>:
    2b78:	b128                                    	l32i.n	a2, a1, 44
    2b7a:	6b4c                                    	movi.n	a11, 70
    2b7c:	a1a8                                    	l32i.n	a10, a1, 40
    2b7e:	4c4c                                    	movi.n	a12, 68
    2b80:	022152                                    	l32i	a5, a1, 8
    2b83:	082172                                    	l32i	a7, a1, 32
    2b86:	092182                                    	l32i	a8, a1, 36
    2b89:	021226                                    	beqi	a2, 1, 2b8f <gain_after_ec+0x173>
    2b8c:	003c06                                    	j	2c80 <gain_after_ec+0x264>
    2b8f:	f52321                                    	l32r	a2, 1c (d8e8 <p_ecnr_mem>)
    2b92:	49a4d2                                    	movi	a13, 0x449
    2b95:	110475c00c80a0ae                  	{ ae_l16x2m.i	aed1, a10, 0; ae_l16x2m.i	aed0, a5, 0 }
    2b9d:	22dcc2                                    	addmi	a12, a12, 0x2200
    2ba0:	11ddd0                                    	slli	a13, a13, 3
    2ba3:	0022e2                                    	l32i	a14, a2, 0
    2ba6:	fec722                                    	addi	a2, a7, -2
    2ba9:	0aa072                                    	movi	a7, 10
    2bac:	22dbb2                                    	addmi	a11, a11, 0x2200
    2baf:	fec882                                    	addi	a8, a8, -2
    2bb2:	02a0f2                                    	movi	a15, 2
    2bb5:	c78776                                    	loop	a7, 2c80 <gain_after_ec+0x264>
    2bb8:	2604664104939bee                  	{ ae_l16m.x	aed4, a14, a11; movi	a7, 0x4e6 }
    2bc0:	0e1ce2512d2a2124362b6de01481777f 	{ subx8	a7, a7, a7; ae_l16m.iu	aed5, a2, 2; ae_mulf32s.ll	aed28, aed4, aed1; ae_mulf32s.hh	aed27, aed4, aed1 }
    2bd0:	10047840148697ee                  	{ ae_l16m.x	aed2, a14, a7; ae_l16m.iu	aed6, a8, 2 }
    2bd8:	0e1ce2570103511407ab6dd01c40afbf 	{ ae_slaaq56	aed2, aed27, a15; ae_l16x2m.iu	aed0, a5, 4; ae_mulf32s.ll	aed26, aed2, aed0; ae_mulf32s.hh	aed3, aed2, aed0 }
    2be8:	0ead217b09150cf0c38841381c016fcf 	{ ae_slaaq56	aed1, aed28, a15; nop; nop; ae_roundsp16q48x2sym	aed2, aed2, aed2 }
    2bf8:	0ead217b090c0cf0c39c21381c01ef3f 	{ ae_slaaq56	aed3, aed3, a15; nop; nop; ae_roundsp16q48x2sym	aed7, aed1, aed1 }
    2c08:	0ead217b09fd0cf0c38c61381c016faf 	{ ae_slaaq56	aed29, aed26, a15; nop; nop; ae_roundsp16q48x2sym	aed3, aed3, aed3 }
    2c18:	0ead3d7b0c4d0cf0c313a1390401c13f 	{ ae_s16m.l.iu	aed3, a3, 2; nop; nop; ae_roundsp16q48x2sym	aed4, aed29, aed29 }
    2c28:	230740c104c5113e                  	{ ae_s16m.l.iu	aed4, a3, 2; nop }
    2c30:	2c047e401c849cee                  	{ ae_l16m.x	aed3, a14, a12; ae_l16m.x	aed4, a14, a13 }
    2c38:	0e1ce6570c4ba11c7d2b6df90486819f 	{ ae_s16m.l.iu	aed2, a9, 2; ae_l16x2m.iu	aed1, a10, 4; ae_mulf32s.ll	aed31, aed4, aed6; ae_mulf32s.ll	aed30, aed3, aed5 }
    2c48:	230740c11cc5119e                  	{ ae_s16m.l.iu	aed7, a9, 2; nop }
    2c50:	220700c300a5bfee                  	{ ae_slaaq56	aed2, aed30, a15; nop }
    2c58:	0ead217b09150cf0c38841381c01efff 	{ ae_slaaq56	aed3, aed31, a15; nop; nop; ae_roundsp16q48x2sym	aed2, aed2, aed2 }
    2c68:	0ead217b0c5d0cf0c30c61390401814f 	{ ae_s16m.l.iu	aed2, a4, 2; nop; nop; ae_roundsp16q48x2sym	aed3, aed3, aed3 }
    2c78:	230740c01cc5116e                  	{ ae_s16m.l.iu	aed3, a6, 2; nop }

00002c80 <gain_after_ec+0x264>:
    2c80:	f01d                                    	retw.n

00002c82 <gain_after_ec+0x266>:
	...

00002c84 <adjust_phase>:
    2c84:	004136                                    	entry	a1, 32
    2c87:	210702400ca0e33e                  	{ ae_cvtp24a16x2.ll	aed1, a3, a3; ae_cvt48a32	aed0, a2 }
    2c8f:	228353133401b13e                  	{ nop; nop; ae_mulf48q32sp16s.l	aed2, aed0, aed1 }
    2c97:	1e8354133401b13e                  	{ nop; nop; ae_mulaf48q32sp16s.l	aed2, aed0, aed1 }
    2c9f:	0ead217b0d540ce8c30041380c01015f 	{ nop; nop; nop; ae_roundsp16q48x2asym	aed0, aed2, aed2 }
    2caf:	0ead257b0e240cd0c40081391001720f 	{ ae_cvta32f24s.l	a2, aed0; nop; nop; nop }
    2cbf:	f01d                                    	retw.n

00002cc1 <adjust_phase+0x3d>:
    2cc1:	000000                                        ...

00002cc4 <adjust_bib_state>:
    2cc4:	004136                                    	entry	a1, 32
    2cc7:	fcc232                                    	addi	a3, a2, -4
    2cca:	840c                                    	movi.n	a4, 8
    2ccc:	0202a34000c1702e                  	{ ae_l32m.i	aed0, a2, 0; addi	a3, a3, 4 }
    2cd4:	0020f0                                    	nop
    2cd7:	0020f0                                    	nop
    2cda:	0020f0                                    	nop
    2cdd:	278476                                    	loop	a4, 2d08 <adjust_bib_state+0x44>
    2ce0:	0ead257b09040cd0c580813a0c01010f 	{ ae_srai64	aed0, aed0, 1; nop; nop; nop }
    2cf0:	0eacc57900e421d0c48081380401e10f 	{ ae_round24x2f48sasym	aed1, aed0, aed0; ae_l32m.iu	aed0, a2, 4; nop; nop }
    2d00:	220760c008c5713e                  	{ ae_s32f24.l.ip	aed1, a3, 4; nop }

00002d08 <adjust_bib_state+0x44>:
    2d08:	f01d                                    	retw.n

00002d0a <adjust_bib_state+0x46>:
	...

00002d0c <gain_ref>:
    2d0c:	004136                                    	entry	a1, 32
    2d0f:	fcc222                                    	addi	a2, a2, -4
    2d12:	5a14a6                                    	blti	a4, 1, 2d70 <gain_ref+0x64>
    2d15:	0304024004a0f33e                  	{ ae_cvtp24a16x2.ll	aed0, a3, a3; movi	a3, 2 }
    2d1d:	220760c00c85d12e                  	{ ae_l16x2m.iu	aed1, a2, 4; nop }
    2d25:	230720c318e5747e                  	{ nop; nop }
    2d2d:	3f8476                                    	loop	a4, 2d70 <gain_ref+0x64>
    2d30:	0e1d225b0d2d0c0445ab4d180020412f 	{ ae_l16x2m.iu	aed1, a2, 4; nop; ae_mulf32s.ll	aed3, aed1, aed0; ae_mulf32s.lh	aed2, aed0, aed1 }
    2d40:	220700c300a5932e                  	{ ae_slaaq56	aed2, aed2, a3; nop }
    2d48:	0ead217b09140ce8c38841381c01e33f 	{ ae_slaaq56	aed3, aed3, a3; nop; nop; ae_roundsp16q48x2asym	aed2, aed2, aed2 }
    2d58:	0ead217b0c5d0ce8c30c61381c01b22f 	{ ae_s16m.l.i	aed2, a2, -4; nop; nop; ae_roundsp16q48x2asym	aed3, aed3, aed3 }
    2d68:	220740c01cc51f2e                  	{ ae_s16m.l.i	aed3, a2, -2; nop }

00002d70 <gain_ref+0x64>:
    2d70:	f01d                                    	retw.n

00002d72 <gain_ref+0x66>:
	...

00002d74 <TxRef_VAD_V2>:
    2d74:	006136                                    	entry	a1, 48
    2d77:	024d                                    	mov.n	a4, a2
    2d79:	f0a052                                    	movi	a5, 240
    2d7c:	020c                                    	movi.n	a2, 0
    2d7e:	088576                                    	loop	a5, 2d8a <TxRef_VAD_V2+0x16>
    2d81:	235d                                    	ae_l16si.n	a5, a3, 0
    2d83:	332b                                    	addi.n	a3, a3, 2
    2d85:	605150                                    	abs	a5, a5
    2d88:	252a                                    	add.n	a2, a5, a2

00002d8a <TxRef_VAD_V2+0x16>:
    2d8a:	f57c                                    	movi.n	a5, -1
    2d8c:	761c                                    	movi.n	a6, 23
    2d8e:	015510                                    	slli	a5, a5, 31
    2d91:	e2ac                                    	beqz.n	a2, 2dc3 <TxRef_VAD_V2+0x4f>
    2d93:	40e230                                    	nsa	a3, a2
    2d96:	401300                                    	ssl	a3
    2d99:	c0b630                                    	sub	a11, a6, a3
    2d9c:	a1a200                                    	sll	a10, a2
    2d9f:	f50321                                    	l32r	a2, 1ac (824 <Log2_norm>)
    2da2:	0002e0                                    	callx8	a2
    2da5:	d1a422                                    	movi	a2, 0x4d1
    2da8:	d1a462                                    	movi	a6, 0x4d1
    2dab:	1122c0                                    	slli	a2, a2, 4
    2dae:	1166f0                                    	slli	a6, a6, 1
    2db1:	b23a20                                    	mulsh	a3, a10, a2
    2db4:	822a20                                    	mull	a2, a10, a2
    2db7:	336a                                    	add.n	a3, a3, a6
    2db9:	f25a                                    	add.n	a15, a2, a5
    2dbb:	622f20                                    	saltu	a2, a15, a2
    2dbe:	223a                                    	add.n	a2, a2, a3
    2dc0:	000046                                    	j	2dc5 <TxRef_VAD_V2+0x51>

00002dc3 <TxRef_VAD_V2+0x4f>:
    2dc3:	020c                                    	movi.n	a2, 0
    2dc5:	190432                                    	l8ui	a3, a4, 25
    2dc8:	029472                                    	l16si	a7, a4, 4
    2dcb:	f60c                                    	movi.n	a6, 15
    2dcd:	031492                                    	l16ui	a9, a4, 6
    2dd0:	051482                                    	l16ui	a8, a4, 10
    2dd3:	c31b                                    	addi.n	a12, a3, 1
    2dd5:	532270                                    	max	a2, a2, a7
    2dd8:	c0d630                                    	sub	a13, a6, a3
    2ddb:	083367                                    	bltu	a3, a6, 2de7 <TxRef_VAD_V2+0x73>
    2dde:	031462                                    	l16ui	a6, a4, 6
    2de1:	041432                                    	l16ui	a3, a4, 8
    2de4:	0013c6                                    	j	2e37 <TxRef_VAD_V2+0xc3>

00002de7 <TxRef_VAD_V2+0x73>:
    2de7:	0f03144004a1e98e                  	{ ae_cvtp24a16x2.ll	aed0, a9, a8; l16ui	a14, a4, 8 }
    2def:	2f0314400ca1fcde                  	{ ae_cvtp24a16x2.ll	aed1, a12, a13; l16ui	a15, a4, 12 }
    2df7:	2a83300030203efe                  	{ ae_cvtp24a16x2.ll	aed2, a14, a15; nop; ae_mulzaad32.hh.ll	aed0, aed1, aed0 }
    2dff:	2a82100a242294ce                  	{ s8i	a12, a4, 25; nop; ae_mulzaad32.hh.ll	aed1, aed1, aed2 }
    2e07:	0ead257b09040cd0c580813a0c01100f 	{ ae_srai64	aed0, aed0, 4; nop; nop; nop }
    2e17:	0e6d217b0d3c0c604600213b0c01660f 	{ ae_trunca32q48	a6, aed0; nop; nop; ae_srai64	aed1, aed1, 4 }
    2e27:	0ead257b0d240cd0c400813b0c01631f 	{ ae_trunca32q48	a3, aed1; nop; nop; nop }
    2e37:	866d                                    	ae_sext16	a6, a6
    2e39:	833d                                    	ae_sext16	a3, a3
    2e3b:	117600                                    	slli	a7, a6, 16
    2e3e:	306650                                    	xor	a6, a6, a5
    2e41:	118300                                    	slli	a8, a3, 16
    2e44:	303350                                    	xor	a3, a3, a5
    2e47:	c06670                                    	sub	a6, a6, a7
    2e4a:	c03380                                    	sub	a3, a3, a8
    2e4d:	2169                                    	s32i.n	a6, a1, 8
    2e4f:	44a8                                    	l32i.n	a10, a4, 16
    2e51:	3139                                    	s32i.n	a3, a1, 12
    2e53:	318b                                    	addi.n	a3, a1, 8
    2e55:	f4d661                                    	l32r	a6, 1b0 (890 <siir_safr>)
    2e58:	02bd                                    	mov.n	a11, a2
    2e5a:	03cd                                    	mov.n	a12, a3
    2e5c:	0006e0                                    	callx8	a6
    2e5f:	059472                                    	l16si	a7, a4, 10
    2e62:	44a9                                    	s32i.n	a10, a4, 16
    2e64:	069482                                    	l16si	a8, a4, 12
    2e67:	02bd                                    	mov.n	a11, a2
    2e69:	54a8                                    	l32i.n	a10, a4, 20
    2e6b:	03cd                                    	mov.n	a12, a3
    2e6d:	119700                                    	slli	a9, a7, 16
    2e70:	307750                                    	xor	a7, a7, a5
    2e73:	30f850                                    	xor	a15, a8, a5
    2e76:	118800                                    	slli	a8, a8, 16
    2e79:	c07790                                    	sub	a7, a7, a9
    2e7c:	c05f80                                    	sub	a5, a15, a8
    2e7f:	2179                                    	s32i.n	a7, a1, 8
    2e81:	3159                                    	s32i.n	a5, a1, 12
    2e83:	0006e0                                    	callx8	a6
    2e86:	4428                                    	l32i.n	a2, a4, 16
    2e88:	243d                                    	ae_l16si.n	a3, a4, 0
    2e8a:	180472                                    	l8ui	a7, a4, 24
    2e8d:	54a9                                    	s32i.n	a10, a4, 20
    2e8f:	0d9452                                    	l16si	a5, a4, 26
    2e92:	346d                                    	ae_l16si.n	a6, a4, 2
    2e94:	223a                                    	add.n	a2, a2, a3
    2e96:	030c                                    	movi.n	a3, 0
    2e98:	07a2a7                                    	bge	a2, a10, 2ea3 <TxRef_VAD_V2+0x12f>
    2e9b:	120c                                    	movi.n	a2, 1
    2e9d:	184422                                    	s8i	a2, a4, 24
    2ea0:	000546                                    	j	2eb9 <TxRef_VAD_V2+0x145>

00002ea3 <TxRef_VAD_V2+0x12f>:
    2ea3:	053d                                    	mov.n	a3, a5
    2ea5:	072d                                    	mov.n	a2, a7
    2ea7:	0c1766                                    	bnei	a7, 1, 2eb7 <TxRef_VAD_V2+0x143>
    2eaa:	09a637                                    	bge	a6, a3, 2eb7 <TxRef_VAD_V2+0x143>
    2ead:	020c                                    	movi.n	a2, 0
    2eaf:	184422                                    	s8i	a2, a4, 24
    2eb2:	0d5422                                    	s16i	a2, a4, 26
    2eb5:	f01d                                    	retw.n

00002eb7 <TxRef_VAD_V2+0x143>:
    2eb7:	331b                                    	addi.n	a3, a3, 1
    2eb9:	0d5432                                    	s16i	a3, a4, 26
    2ebc:	f01d                                    	retw.n

00002ebe <TxRef_VAD_V2+0x14a>:
	...

00002ec0 <PEC_Switch>:
    2ec0:	004136                                    	entry	a1, 32
    2ec3:	436230                                    	min	a6, a2, a3
    2ec6:	740b                                    	addi.n	a7, a4, -1
    2ec8:	535230                                    	max	a5, a2, a3
    2ecb:	836370                                    	moveqz	a6, a3, a7
    2ece:	fec4f2                                    	addi	a15, a4, -2
    2ed1:	8365f0                                    	moveqz	a6, a5, a15
    2ed4:	932640                                    	movnez	a2, a6, a4
    2ed7:	f01d                                    	retw.n

00002ed9 <PEC_Switch+0x19>:
    2ed9:	000000                                        ...

00002edc <mic480_delay>:
    2edc:	004136                                    	entry	a1, 32
    2edf:	f45161                                    	l32r	a6, 24 (a5c4 <xt_memcpy>)
    2ee2:	02ad                                    	mov.n	a10, a2
    2ee4:	04bd                                    	mov.n	a11, a4
    2ee6:	05cd                                    	mov.n	a12, a5
    2ee8:	0006e0                                    	callx8	a6
    2eeb:	e0a1f2                                    	movi	a15, 0x1e0
    2eee:	90a520                                    	addx2	a10, a5, a2
    2ef1:	c0cf50                                    	sub	a12, a15, a5
    2ef4:	03bd                                    	mov.n	a11, a3
    2ef6:	1175f0                                    	slli	a7, a5, 1
    2ef9:	0006e0                                    	callx8	a6
    2efc:	c02370                                    	sub	a2, a3, a7
    2eff:	c0a3f2                                    	movi	a15, 0x3c0
    2f02:	b2fa                                    	add.n	a11, a2, a15
    2f04:	04ad                                    	mov.n	a10, a4
    2f06:	05cd                                    	mov.n	a12, a5
    2f08:	0006e0                                    	callx8	a6
    2f0b:	f01d                                    	retw.n

00002f0d <mic480_delay+0x31>:
    2f0d:	000000                                        ...

00002f10 <Voice_SWB_EC_Init>:
    2f10:	006136                                    	entry	a1, 48
    2f13:	f44381                                    	l32r	a8, 20 (d8e0 <aec_nr_para>)
    2f16:	04bd                                    	mov.n	a11, a4
    2f18:	f44171                                    	l32r	a7, 1c (d8e8 <p_ecnr_mem>)
    2f1b:	06cd                                    	mov.n	a12, a6
    2f1d:	08a8                                    	l32i.n	a10, a8, 0
    2f1f:	0729                                    	s32i.n	a2, a7, 0
    2f21:	f4a421                                    	l32r	a2, 1b4 (62c <ECNR_SWB_PARA_init>)
    2f24:	0002e0                                    	callx8	a2
    2f27:	07b8                                    	l32i.n	a11, a7, 0
    2f29:	f1cb                                    	addi.n	a15, a1, 12
    2f2b:	f44a21                                    	l32r	a2, 54 (1e78 <Voice_EC_Init>)
    2f2e:	2a0c                                    	movi.n	a10, 2
    2f30:	03cd                                    	mov.n	a12, a3
    2f32:	04dd                                    	mov.n	a13, a4
    2f34:	05ed                                    	mov.n	a14, a5
    2f36:	0002e0                                    	callx8	a2
    2f39:	f01d                                    	retw.n

00002f3b <Voice_SWB_EC_Init+0x2b>:
	...

00002f3c <Voice_SWB_EC_Inear_Init>:
    2f3c:	006136                                    	entry	a1, 48
    2f3f:	f43881                                    	l32r	a8, 20 (d8e0 <aec_nr_para>)
    2f42:	04bd                                    	mov.n	a11, a4
    2f44:	f43671                                    	l32r	a7, 1c (d8e8 <p_ecnr_mem>)
    2f47:	06cd                                    	mov.n	a12, a6
    2f49:	08a8                                    	l32i.n	a10, a8, 0
    2f4b:	0729                                    	s32i.n	a2, a7, 0
    2f4d:	f49921                                    	l32r	a2, 1b4 (62c <ECNR_SWB_PARA_init>)
    2f50:	0002e0                                    	callx8	a2
    2f53:	07b8                                    	l32i.n	a11, a7, 0
    2f55:	f1cb                                    	addi.n	a15, a1, 12
    2f57:	f45121                                    	l32r	a2, 9c (2204 <Voice_EC_Inear_Init>)
    2f5a:	2a0c                                    	movi.n	a10, 2
    2f5c:	03cd                                    	mov.n	a12, a3
    2f5e:	04dd                                    	mov.n	a13, a4
    2f60:	05ed                                    	mov.n	a14, a5
    2f62:	0002e0                                    	callx8	a2
    2f65:	f01d                                    	retw.n

00002f67 <Voice_SWB_EC_Inear_Init+0x2b>:
	...

00002f68 <gain_after_ec_ch5>:
    2f68:	008136                                    	entry	a1, 64
    2f6b:	f42c51                                    	l32r	a5, 1c (d8e8 <p_ecnr_mem>)
    2f6e:	daa672                                    	movi	a7, 0x6da
    2f71:	110412c11ce3277e                  	{ addx4	a7, a7, a7; ae_l16x2m.i	aed3, a2, 0 }
    2f79:	0568                                    	l32i.n	a6, a5, 0
    2f7b:	1a0c                                    	movi.n	a10, 1
    2f7d:	2006ea401486976e                  	{ ae_l16m.x	aed2, a6, a7; slli	a10, a10, 15 }
    2f85:	04bd                                    	mov.n	a11, a4
    2f87:	c4bc                                    	beqz.n	a4, 2fc7 <gain_after_ec_ch5+0x5f>
    2f89:	f47061                                    	l32r	a6, 14c (7270 <airoha_divide>)
    2f8c:	220700c010e59b1e                  	{ ae_s64.i	aed2, a1, 16; nop }
    2f94:	220700c018e59f1e                  	{ ae_s64.i	aed3, a1, 24; nop }
    2f9c:	0006e0                                    	callx8	a6
    2f9f:	20070b4008e00b1e                  	{ ae_l64.i	aed1, a1, 16; ae_cvt48a32	aed0, a11 }
    2fa7:	2283130320013f1e                  	{ ae_l64.i	aed3, a1, 24; nop; ae_mulf48q32sp16s.l	aed0, aed0, aed1 }
    2faf:	220700c300a51a0e                  	{ ae_slaaq56	aed0, aed0, a10; nop }
    2fb7:	0ead057b08e40cd0c48081380401e20f 	{ ae_round24x2f48sasym	aed2, aed0, aed0; nop; nop; nop }

00002fc7 <gain_after_ec_ch5+0x5f>:
    2fc7:	fec242                                    	addi	a4, a2, -2
    2fca:	491c                                    	movi.n	a9, 20
    2fcc:	027d                                    	mov.n	a7, a2
    2fce:	460c                                    	movi.n	a6, 4
    2fd0:	048d                                    	mov.n	a8, a4
    2fd2:	230720c318e5747e                  	{ nop; nop }
    2fda:	0020f0                                    	nop
    2fdd:	3f8976                                    	loop	a9, 3020 <gain_after_ec_ch5+0xb8>
    2fe0:	0e1d225b0d3d0c1401ab6d080043c17f 	{ ae_l16x2m.iu	aed3, a7, 4; nop; ae_mulf32s.ll	aed1, aed2, aed3; ae_mulf32s.hh	aed0, aed2, aed3 }
    2ff0:	220700c300a5160e                  	{ ae_slaaq56	aed0, aed0, a6; nop }
    2ff8:	0ead217b09040cf0c38001381c01661f 	{ ae_slaaq56	aed1, aed1, a6; nop; nop; ae_roundsp16q48x2sym	aed0, aed0, aed0 }
    3008:	0ead217b0c4d0cf0c37c21390401018f 	{ ae_s16m.l.iu	aed0, a8, 2; nop; nop; ae_roundsp16q48x2sym	aed31, aed1, aed1 }
    3018:	230740c71cc5118e                  	{ ae_s16m.l.iu	aed31, a8, 2; nop }

00003020 <gain_after_ec_ch5+0xb8>:
    3020:	0578                                    	l32i.n	a7, a5, 0
    3022:	5a1366                                    	bnei	a3, 1, 3080 <gain_after_ec_ch5+0x118>
    3025:	88a0f2                                    	movi	a15, 136
    3028:	461c                                    	movi.n	a6, 20
    302a:	110472c50c616f5e                  	{ addmi	a5, a15, 0x7500; ae_l16x2m.i	aed1, a2, 0 }
    3032:	020462400480957e                  	{ ae_l16m.x	aed0, a7, a5; movi	a3, 2 }
    303a:	0020f0                                    	nop
    303d:	3f8676                                    	loop	a6, 3080 <gain_after_ec_ch5+0x118>
    3040:	0e1d225b0d2d0c0405ab6d180001412f 	{ ae_l16x2m.iu	aed1, a2, 4; nop; ae_mulf32s.ll	aed3, aed0, aed1; ae_mulf32s.hh	aed2, aed0, aed1 }
    3050:	220700c300a5932e                  	{ ae_slaaq56	aed2, aed2, a3; nop }
    3058:	0ead217b09140cf0c38841381c01e33f 	{ ae_slaaq56	aed3, aed3, a3; nop; nop; ae_roundsp16q48x2sym	aed2, aed2, aed2 }
    3068:	0ead217b0c5d0cf0c37c61390401814f 	{ ae_s16m.l.iu	aed2, a4, 2; nop; nop; ae_roundsp16q48x2sym	aed31, aed3, aed3 }
    3078:	230740c71cc5114e                  	{ ae_s16m.l.iu	aed31, a4, 2; nop }

00003080 <gain_after_ec_ch5+0x118>:
    3080:	f01d                                    	retw.n

00003082 <gain_after_ec_ch5+0x11a>:
	...

00003084 <hb_buf_delay>:
    3084:	004136                                    	entry	a1, 32
    3087:	f3e771                                    	l32r	a7, 24 (a5c4 <xt_memcpy>)
    308a:	06ad                                    	mov.n	a10, a6
    308c:	04bd                                    	mov.n	a11, a4
    308e:	03cd                                    	mov.n	a12, a3
    3090:	0007e0                                    	callx8	a7
    3093:	c05530                                    	sub	a5, a5, a3
    3096:	90b340                                    	addx2	a11, a3, a4
    3099:	04ad                                    	mov.n	a10, a4
    309b:	05cd                                    	mov.n	a12, a5
    309d:	0007e0                                    	callx8	a7
    30a0:	90a540                                    	addx2	a10, a5, a4
    30a3:	02bd                                    	mov.n	a11, a2
    30a5:	03cd                                    	mov.n	a12, a3
    30a7:	0007e0                                    	callx8	a7
    30aa:	02ad                                    	mov.n	a10, a2
    30ac:	06bd                                    	mov.n	a11, a6
    30ae:	03cd                                    	mov.n	a12, a3
    30b0:	0007e0                                    	callx8	a7
    30b3:	f01d                                    	retw.n

000030b5 <hb_buf_delay+0x31>:
    30b5:	000000                                        ...

000030b8 <downsample_by4>:
    30b8:	004136                                    	entry	a1, 32
    30bb:	20a440                                    	or	a10, a4, a4
    30be:	4426a6                                    	blti	a6, 2, 3106 <downsample_by4+0x4e>
    30c1:	f8c472                                    	addi	a7, a4, -8
    30c4:	218160                                    	srai	a8, a6, 1
    30c7:	fcc222                                    	addi	a2, a2, -4
    30ca:	08c772                                    	addi	a7, a7, 8
    30cd:	0f8876                                    	loop	a8, 30e0 <downsample_by4+0x28>
    30d0:	220760c00485d12e                  	{ ae_l16x2m.iu	aed0, a2, 4; nop }
    30d8:	220700c004e5997e                  	{ ae_s32x2f24.ip	aed0, a7, 8; nop }

000030e0 <downsample_by4+0x28>:
    30e0:	f436c1                                    	l32r	a12, 1b8 (c540 <hpf_band5_coef>)
    30e3:	04ad                                    	mov.n	a10, a4
    30e5:	f43521                                    	l32r	a2, 1bc (2900 <biquad_2cascade_24bitTxB>)
    30e8:	05bd                                    	mov.n	a11, a5
    30ea:	03dd                                    	mov.n	a13, a3
    30ec:	06ed                                    	mov.n	a14, a6
    30ee:	0002e0                                    	callx8	a2
    30f1:	214260                                    	srai	a4, a6, 2
    30f4:	0c46a6                                    	blti	a6, 4, 3104 <downsample_by4+0x4c>
    30f7:	032d                                    	mov.n	a2, a3
    30f9:	078476                                    	loop	a4, 3104 <downsample_by4+0x4c>
    30fc:	234d                                    	ae_l16si.n	a4, a3, 0
    30fe:	338b                                    	addi.n	a3, a3, 8
    3100:	624d                                    	ae_s16i.n	a4, a2, 0
    3102:	222b                                    	addi.n	a2, a2, 2

00003104 <downsample_by4+0x4c>:
    3104:	f01d                                    	retw.n

00003106 <downsample_by4+0x4e>:
    3106:	f42cc1                                    	l32r	a12, 1b8 (c540 <hpf_band5_coef>)
    3109:	05bd                                    	mov.n	a11, a5
    310b:	f42c21                                    	l32r	a2, 1bc (2900 <biquad_2cascade_24bitTxB>)
    310e:	03dd                                    	mov.n	a13, a3
    3110:	06ed                                    	mov.n	a14, a6
    3112:	0002e0                                    	callx8	a2
    3115:	f01d                                    	retw.n

00003117 <downsample_by4+0x5f>:
	...

00003118 <conv_16_to_24_x2>:
    3118:	004136                                    	entry	a1, 32
    311b:	f8c332                                    	addi	a3, a3, -8
    311e:	1e14a6                                    	blti	a4, 1, 3140 <conv_16_to_24_x2+0x28>
    3121:	fcc222                                    	addi	a2, a2, -4
    3124:	338b                                    	addi.n	a3, a3, 8
    3126:	0020f0                                    	nop
    3129:	f03d                                    	nop.n
    312b:	f03d                                    	nop.n
    312d:	0f8476                                    	loop	a4, 3140 <conv_16_to_24_x2+0x28>
    3130:	220760c00485d12e                  	{ ae_l16x2m.iu	aed0, a2, 4; nop }
    3138:	220700c004e5993e                  	{ ae_s32x2f24.ip	aed0, a3, 8; nop }

00003140 <conv_16_to_24_x2+0x28>:
    3140:	f01d                                    	retw.n

00003142 <conv_16_to_24_x2+0x2a>:
	...

00003144 <Voice_EC_Prcs_common>:
    3144:	01c136                                    	entry	a1, 224
    3147:	f3f581                                    	l32r	a8, 11c (a5b0 <xt_memset>)
    314a:	10c1a2                                    	addi	a10, a1, 16
    314d:	0b0c                                    	movi.n	a11, 0
    314f:	2c5c                                    	movi.n	a12, 82
    3151:	2d6162                                    	s32i	a6, a1, 180
    3154:	060c                                    	movi.n	a6, 0
    3156:	2f6152                                    	s32i	a5, a1, 188
    3159:	0008e0                                    	callx8	a8
    315c:	f3b091                                    	l32r	a9, 1c (d8e8 <p_ecnr_mem>)
    315f:	62b640                                    	saltu	a11, a6, a4
    3162:	1fa3c2                                    	movi	a12, 0x31f
    3165:	2941b2                                    	s8i	a11, a1, 41
    3168:	01a382                                    	movi	a8, 0x301
    316b:	284162                                    	s8i	a6, a1, 40
    316e:	09a8                                    	l32i.n	a10, a9, 0
    3170:	09ed                                    	mov.n	a14, a9
    3172:	119cc0                                    	slli	a9, a12, 4
    3175:	1c0c                                    	movi.n	a12, 1
    3177:	1188c0                                    	slli	a8, a8, 4
    317a:	22dad2                                    	addmi	a13, a10, 0x2200
    317d:	9a9a                                    	add.n	a9, a10, a9
    317f:	261db2                                    	l16ui	a11, a13, 76
    3182:	44dad2                                    	addmi	a13, a10, 0x4400
    3185:	1c6192                                    	s32i	a9, a1, 112
    3188:	511d92                                    	l16ui	a9, a13, 162
    318b:	8a8a                                    	add.n	a8, a10, a8
    318d:	2f21d2                                    	l32i	a13, a1, 188
    3190:	fecbf2                                    	addi	a15, a11, -2
    3193:	1b6182                                    	s32i	a8, a1, 108
    3196:	93bcf0                                    	movnez	a11, a12, a15
    3199:	1d6182                                    	s32i	a8, a1, 116
    319c:	83bc30                                    	moveqz	a11, a12, a3
    319f:	2d2152                                    	l32i	a5, a1, 180
    31a2:	1551b2                                    	s16i	a11, a1, 42
    31a5:	42dab2                                    	addmi	a11, a10, 0x4200
    31a8:	382182                                    	l32i	a8, a1, 224
    31ab:	0d2916                                    	beqz	a9, 3281 <Voice_EC_Prcs_common+0x13d>
    31ae:	2e6172                                    	s32i	a7, a1, 184
    31b1:	3edaf2                                    	addmi	a15, a10, 0x3e00
    31b4:	296172                                    	s32i	a7, a1, 164
    31b7:	42da72                                    	addmi	a7, a10, 0x4200
    31ba:	216122                                    	s32i	a2, a1, 132
    31bd:	226132                                    	s32i	a3, a1, 136
    31c0:	2461d2                                    	s32i	a13, a1, 144
    31c3:	286152                                    	s32i	a5, a1, 160
    31c6:	236142                                    	s32i	a4, a1, 140
    31c9:	e769                                    	s32i.n	a6, a7, 56
    31cb:	f769                                    	s32i.n	a6, a7, 60
    31cd:	0e7d                                    	mov.n	a7, a14
    31cf:	0dcd                                    	mov.n	a12, a13
    31d1:	1e6b62                                    	s32i	a6, a11, 120
    31d4:	2e6b62                                    	s32i	a6, a11, 184
    31d7:	3e6b62                                    	s32i	a6, a11, 248
    31da:	0c3d                                    	mov.n	a3, a12
    31dc:	1f6b62                                    	s32i	a6, a11, 124
    31df:	2f6b62                                    	s32i	a6, a11, 188
    31e2:	3f6b62                                    	s32i	a6, a11, 252
    31e5:	10c1b2                                    	addi	a11, a1, 16
    31e8:	745f62                                    	s16i	a6, a15, 232
    31eb:	2a6182                                    	s32i	a8, a1, 168
    31ee:	b48c                                    	beqz.n	a4, 31fd <Voice_EC_Prcs_common+0xb9>
    31f0:	f3f421                                    	l32r	a2, 1c0 (32a4 <Inear_pre_commom>)
    31f3:	f0a0c2                                    	movi	a12, 240
    31f6:	0002e0                                    	callx8	a2
    31f9:	03cd                                    	mov.n	a12, a3
    31fb:	07a8                                    	l32i.n	a10, a7, 0

000031fd <Voice_EC_Prcs_common+0xb9>:
    31fd:	f3f131                                    	l32r	a3, 1c4 (3498 <VAD_commom>)
    3200:	10c122                                    	addi	a2, a1, 16
    3203:	02bd                                    	mov.n	a11, a2
    3205:	0c5d                                    	mov.n	a5, a12
    3207:	0003e0                                    	callx8	a3
    320a:	0738                                    	l32i.n	a3, a7, 0
    320c:	445c                                    	movi.n	a4, 84
    320e:	20d442                                    	addmi	a4, a4, 0x2000
    3211:	1d21a2                                    	l32i	a10, a1, 116
    3214:	05bd                                    	mov.n	a11, a5
    3216:	70d362                                    	addmi	a6, a3, 0x7000
    3219:	c34a                                    	add.n	a12, a3, a4
    321b:	5316d2                                    	l16ui	a13, a6, 166
    321e:	f3ea31                                    	l32r	a3, 1c8 (23b4 <mic240_delay>)
    3221:	0003e0                                    	callx8	a3
    3224:	1d2132                                    	l32i	a3, a1, 116
    3227:	07a8                                    	l32i.n	a10, a7, 0
    3229:	246132                                    	s32i	a3, a1, 144
    322c:	02bd                                    	mov.n	a11, a2
    322e:	f3e731                                    	l32r	a3, 1cc (3540 <EC_block_common>)
    3231:	0003e0                                    	callx8	a3
    3234:	07a8                                    	l32i.n	a10, a7, 0
    3236:	02bd                                    	mov.n	a11, a2
    3238:	f3e631                                    	l32r	a3, 1d0 (49c4 <sum_commom>)
    323b:	0003e0                                    	callx8	a3
    323e:	07a8                                    	l32i.n	a10, a7, 0
    3240:	22da22                                    	addmi	a2, a10, 0x2200
    3243:	05a232                                    	movi	a3, 0x205
    3246:	550222                                    	l8ui	a2, a2, 85
    3249:	09a442                                    	movi	a4, 0x409
    324c:	1163c0                                    	slli	a6, a3, 4
    324f:	1144d0                                    	slli	a4, a4, 3
    3252:	1d6207                                    	bbci	a2, 0, 3273 <Voice_EC_Prcs_common+0x12f>
    3255:	2e2152                                    	l32i	a5, a1, 184
    3258:	f3df21                                    	l32r	a2, 1d4 (5dc4 <NC_NOISE_EST_Prcs>)
    325b:	05bd                                    	mov.n	a11, a5
    325d:	0002e0                                    	callx8	a2
    3260:	0728                                    	l32i.n	a2, a7, 0
    3262:	f0a0d2                                    	movi	a13, 240
    3265:	b26a                                    	add.n	a11, a2, a6
    3267:	c24a                                    	add.n	a12, a2, a4
    3269:	f3db21                                    	l32r	a2, 1d8 (269c <deemph_filter_N>)
    326c:	05ad                                    	mov.n	a10, a5
    326e:	0002e0                                    	callx8	a2
    3271:	07a8                                    	l32i.n	a10, a7, 0
    3273:	f3da21                                    	l32r	a2, 1dc (4d78 <avc_commom>)
    3276:	10c1b2                                    	addi	a11, a1, 16
    3279:	2d21c2                                    	l32i	a12, a1, 180
    327c:	0002e0                                    	callx8	a2
    327f:	f01d                                    	retw.n

00003281 <Voice_EC_Prcs_common+0x13d>:
    3281:	f36841                                    	l32r	a4, 24 (a5c4 <xt_memcpy>)
    3284:	f0a0c2                                    	movi	a12, 240
    3287:	2d21a2                                    	l32i	a10, a1, 180
    328a:	02bd                                    	mov.n	a11, a2
    328c:	0004e0                                    	callx8	a4
    328f:	151122                                    	l16ui	a2, a1, 42
    3292:	092266                                    	bnei	a2, 2, 329f <Voice_EC_Prcs_common+0x15b>
    3295:	f0a0c2                                    	movi	a12, 240
    3298:	07ad                                    	mov.n	a10, a7
    329a:	03bd                                    	mov.n	a11, a3
    329c:	0004e0                                    	callx8	a4
    329f:	f01d                                    	retw.n

000032a1 <Voice_EC_Prcs_common+0x15d>:
    32a1:	000000                                        ...

000032a4 <Inear_pre_commom>:
    32a4:	008136                                    	entry	a1, 64
    32a7:	75d2f2                                    	addmi	a15, a2, 0x7500
    32aa:	025d                                    	mov.n	a5, a2
    32ac:	242f22                                    	l32i	a2, a15, 144
    32af:	060c                                    	movi.n	a6, 0
    32b1:	1f23a2                                    	l32i	a10, a3, 124
    32b4:	20c440                                    	or	a12, a4, a4
    32b7:	02d272                                    	addmi	a7, a2, 0x200
    32ba:	446262                                    	s32i	a6, a2, 0x110
    32bd:	546262                                    	s32i	a6, a2, 0x150
    32c0:	5f97b2                                    	l16si	a11, a7, 190
    32c3:	646262                                    	s32i	a6, a2, 0x190
    32c6:	746262                                    	s32i	a6, a2, 0x1d0
    32c9:	456262                                    	s32i	a6, a2, 0x114
    32cc:	556262                                    	s32i	a6, a2, 0x154
    32cf:	656262                                    	s32i	a6, a2, 0x194
    32d2:	756262                                    	s32i	a6, a2, 0x1d4
    32d5:	f3c261                                    	l32r	a6, 1e0 (572c <vector_gain_Q9_15>)
    32d8:	0006e0                                    	callx8	a6
    32db:	1f23d2                                    	l32i	a13, a3, 124
    32de:	216140                                    	srai	a6, a4, 1
    32e1:	f8c592                                    	addi	a9, a5, -8
    32e4:	1824a6                                    	blti	a4, 2, 3300 <Inear_pre_commom+0x5c>
    32e7:	fccd82                                    	addi	a8, a13, -4
    32ea:	08c992                                    	addi	a9, a9, 8
    32ed:	0f8676                                    	loop	a6, 3300 <Inear_pre_commom+0x5c>
    32f0:	220760c00485d18e                  	{ ae_l16x2m.iu	aed0, a8, 4; nop }
    32f8:	220700c004e5999e                  	{ ae_s32x2f24.ip	aed0, a9, 8; nop }

00003300 <Inear_pre_commom+0x5c>:
    3300:	f3af81                                    	l32r	a8, 1bc (2900 <biquad_2cascade_24bitTxB>)
    3303:	70c2c2                                    	addi	a12, a2, 112
    3306:	05ad                                    	mov.n	a10, a5
    3308:	02bd                                    	mov.n	a11, a2
    330a:	04ed                                    	mov.n	a14, a4
    330c:	0008e0                                    	callx8	a8
    330f:	180382                                    	l8ui	a8, a3, 24
    3312:	0c0c                                    	movi.n	a12, 0
    3314:	05a2a2                                    	movi	a10, 0x205
    3317:	eca0b2                                    	movi	a11, 236
    331a:	04dd                                    	mov.n	a13, a4
    331c:	57a742                                    	movi	a4, 0x757
    331f:	119ac0                                    	slli	a9, a10, 4
    3322:	88bc                                    	beqz.n	a8, 335e <Inear_pre_commom+0xba>
    3324:	8462c2                                    	s32i	a12, a2, 0x210
    3327:	1f23a2                                    	l32i	a10, a3, 124
    332a:	8562c2                                    	s32i	a12, a2, 0x214
    332d:	c2ba                                    	add.n	a12, a2, a11
    332f:	f3ad81                                    	l32r	a8, 1e4 (260c <emph_filter_N>)
    3332:	b59a                                    	add.n	a11, a5, a9
    3334:	0008e0                                    	callx8	a8
    3337:	33a792                                    	movi	a9, 0x733
    333a:	75d582                                    	addmi	a8, a5, 0x7500
    333d:	1199c0                                    	slli	a9, a9, 4
    3340:	1f23c2                                    	l32i	a12, a3, 124
    3343:	1c28a2                                    	l32i	a10, a8, 112
    3346:	1144c0                                    	slli	a4, a4, 4
    3349:	1d28b2                                    	l32i	a11, a8, 116
    334c:	54c3e2                                    	addi	a14, a3, 84
    334f:	f39281                                    	l32r	a8, 198 (24c0 <tx_downsample_by2_N>)
    3352:	d59a                                    	add.n	a13, a5, a9
    3354:	06fd                                    	mov.n	a15, a6
    3356:	454a                                    	add.n	a4, a5, a4
    3358:	0008e0                                    	callx8	a8
    335b:	000086                                    	j	3361 <Inear_pre_commom+0xbd>

0000335e <Inear_pre_commom+0xba>:
    335e:	7cc342                                    	addi	a4, a3, 124
    3361:	02d262                                    	addmi	a6, a2, 0x200
    3364:	002442                                    	l32i	a4, a4, 0
    3367:	691662                                    	l16ui	a6, a6, 210
    336a:	f8c592                                    	addi	a9, a5, -8
    336d:	105362                                    	s16i	a6, a3, 32
    3370:	78a0a2                                    	movi	a10, 120
    3373:	08c992                                    	addi	a9, a9, 8
    3376:	fcc482                                    	addi	a8, a4, -4
    3379:	02e6c7                                    	bbsi	a6, 12, 337f <Inear_pre_commom+0xdb>
    337c:	004586                                    	j	3496 <Inear_pre_commom+0x1f2>
    337f:	c0a362                                    	movi	a6, 0x3c0
    3382:	804560                                    	add	a4, a5, a6
    3385:	0f8a76                                    	loop	a10, 3398 <Inear_pre_commom+0xf4>
    3388:	220760c00485d18e                  	{ ae_l16x2m.iu	aed0, a8, 4; nop }
    3390:	220700c004e5999e                  	{ ae_s32x2f24.ip	aed0, a9, 8; nop }

00003398 <Inear_pre_commom+0xf4>:
    3398:	f394c1                                    	l32r	a12, 1e8 (c500 <nc_vad_lpf_coef>)
    339b:	18c2b2                                    	addi	a11, a2, 24
    339e:	f38781                                    	l32r	a8, 1bc (2900 <biquad_2cascade_24bitTxB>)
    33a1:	f0a0e2                                    	movi	a14, 240
    33a4:	05ad                                    	mov.n	a10, a5
    33a6:	04dd                                    	mov.n	a13, a4
    33a8:	0008e0                                    	callx8	a8
    33ab:	5f1772                                    	l16ui	a7, a7, 190
    33ae:	04d282                                    	addmi	a8, a2, 0x400
    33b1:	f97c                                    	movi.n	a9, -1
    33b3:	0c070040088048fe                  	{ l16si	a15, a8, 130; ae_movi	aed0, 0 }
    33bb:	1006e9400c82965e                  	{ ae_l16m.x	aed1, a5, a6; slli	a9, a9, 31 }
    33c3:	fb0c                                    	movi.n	a11, 15
    33c5:	401852                                    	l16ui	a5, a8, 128
    33c8:	c27970                                    	quou	a7, a9, a7
    33cb:	20074743188200ae                  	{ movi	a10, 240; ae_cvt48a32	aed2, a7 }
    33d3:	c06bf0                                    	sub	a6, a11, a15
    33d6:	0020f0                                    	nop
    33d9:	f03d                                    	nop.n
    33db:	f03d                                    	nop.n
    33dd:	278a76                                    	loop	a10, 3408 <Inear_pre_commom+0x164>
    33e0:	2282331c2841114e                  	{ ae_l16m.iu	aed1, a4, 2; nop; ae_mulf48q32sp16s.l	aed3, aed2, aed1 }
    33e8:	220700c010a5d63e                  	{ ae_slaasq56s	aed3, aed3, a6; nop }
    33f0:	220700c01ce5d33e                  	{ ae_abs64	aed3, aed3; nop }
    33f8:	0ead257b0d040cd0c58081381c01c00f 	{ ae_add64	aed0, aed0, aed3; nop; nop; nop }
    3408:	0eacc16821e326d0c400413d1401757f 	{ l32r	a7, 1ec (7f800080 <_end+0x7f7f2794>); addmi	a6, a2, 0x400; nop; ae_roundsq32f48asym	aed0, aed0 }
    3418:	0ead6565ad2650d0c400813b0c01640f 	{ ae_trunca32q48	a4, aed0; slli	a5, a5, 16; nop; nop }
    3428:	4179                                    	s32i.n	a7, a1, 16
    342a:	2126a2                                    	l32i	a10, a6, 132
    342d:	7159                                    	s32i.n	a5, a1, 28
    342f:	10c152                                    	addi	a5, a1, 16
    3432:	f35f71                                    	l32r	a7, 1b0 (890 <siir_safr>)
    3435:	04bd                                    	mov.n	a11, a4
    3437:	f36e81                                    	l32r	a8, 1f0 (78000800 <_end+0x77ff2f14>)
    343a:	05cd                                    	mov.n	a12, a5
    343c:	5189                                    	s32i.n	a8, a1, 20
    343e:	0007e0                                    	callx8	a7
    3441:	2166a2                                    	s32i	a10, a6, 132
    3444:	2226a2                                    	l32i	a10, a6, 136
    3447:	f36b81                                    	l32r	a8, 1f4 (17fff <_end+0xa713>)
    344a:	04bd                                    	mov.n	a11, a4
    344c:	f36b91                                    	l32r	a9, 1f8 (7c000400 <_end+0x7bff2b14>)
    344f:	05cd                                    	mov.n	a12, a5
    3451:	4189                                    	s32i.n	a8, a1, 16
    3453:	5199                                    	s32i.n	a9, a1, 20
    3455:	0007e0                                    	callx8	a7
    3458:	212642                                    	l32i	a4, a6, 132
    345b:	7158                                    	l32i.n	a5, a1, 28
    345d:	8e0672                                    	l8ui	a7, a6, 142
    3460:	2266a2                                    	s32i	a10, a6, 136
    3463:	c04a40                                    	sub	a4, a10, a4
    3466:	0ca547                                    	bge	a5, a4, 3476 <Inear_pre_commom+0x1d2>
    3469:	140c                                    	movi.n	a4, 1
    346b:	04d222                                    	addmi	a2, a2, 0x400
    346e:	050c                                    	movi.n	a5, 0
    3470:	8e4642                                    	s8i	a4, a6, 142
    3473:	000686                                    	j	3491 <Inear_pre_commom+0x1ed>

00003476 <Inear_pre_commom+0x1d2>:
    3476:	04d222                                    	addmi	a2, a2, 0x400
    3479:	074d                                    	mov.n	a4, a7
    347b:	461252                                    	l16ui	a5, a2, 140
    347e:	0d1766                                    	bnei	a7, 1, 348f <Inear_pre_commom+0x1eb>
    3481:	0a65b6                                    	bltui	a5, 6, 348f <Inear_pre_commom+0x1eb>
    3484:	040c                                    	movi.n	a4, 0
    3486:	8e4642                                    	s8i	a4, a6, 142
    3489:	465242                                    	s16i	a4, a2, 140
    348c:	000106                                    	j	3494 <Inear_pre_commom+0x1f0>

0000348f <Inear_pre_commom+0x1eb>:
    348f:	551b                                    	addi.n	a5, a5, 1
    3491:	465252                                    	s16i	a5, a2, 140
    3494:	7349                                    	s32i.n	a4, a3, 28
    3496:	f01d                                    	retw.n

00003498 <VAD_commom>:
    3498:	004136                                    	entry	a1, 32
    349b:	70d252                                    	addmi	a5, a2, 0x7000
    349e:	a8a062                                    	movi	a6, 168
    34a1:	541552                                    	l16ui	a5, a5, 168
    34a4:	04bd                                    	mov.n	a11, a4
    34a6:	483c                                    	movi.n	a8, 52
    34a8:	22d242                                    	addmi	a4, a2, 0x2200
    34ab:	22d8a2                                    	addmi	a10, a8, 0x2200
    34ae:	690c                                    	movi.n	a9, 6
    34b0:	70d672                                    	addmi	a7, a6, 0x7000
    34b3:	95bc                                    	beqz.n	a5, 34f0 <VAD_commom+0x58>
    34b5:	f35151                                    	l32r	a5, 1fc (2d74 <TxRef_VAD_V2>)
    34b8:	a27a                                    	add.n	a10, a2, a7
    34ba:	0005e0                                    	callx8	a5
    34bd:	271442                                    	l16ui	a4, a4, 78
    34c0:	e54c                                    	movi.n	a5, 78
    34c2:	22d552                                    	addmi	a5, a5, 0x2200
    34c5:	525a                                    	add.n	a5, a2, a5
    34c7:	846d                                    	ae_sext16	a6, a4
    34c9:	05da16                                    	beqz	a10, 352a <VAD_commom+0x92>

000034cc <VAD_commom+0x34>:
    34cc:	847d                                    	ae_sext16	a7, a4
    34ce:	186c                                    	movi.n	a8, -31
    34d0:	960b                                    	addi.n	a9, a6, -1
    34d2:	ff7c                                    	movi.n	a15, -1
    34d4:	042787                                    	blt	a7, a8, 34dc <VAD_commom+0x44>
    34d7:	4349f0                                    	min	a4, a9, a15
    34da:	654d                                    	ae_s16i.n	a4, a5, 0
    34dc:	42d222                                    	addmi	a2, a2, 0x4200
    34df:	ffa162                                    	movi	a6, 0x1ff
    34e2:	059252                                    	l16si	a5, a2, 10
    34e5:	751b                                    	addi.n	a7, a5, 1
    34e7:	4d2657                                    	blt	a6, a5, 3538 <VAD_commom+0xa0>
    34ea:	055272                                    	s16i	a7, a2, 10
    34ed:	0011c6                                    	j	3538 <VAD_commom+0xa0>

000034f0 <VAD_commom+0x58>:
    34f0:	42aa                                    	add.n	a4, a2, a10
    34f2:	058976                                    	loop	a9, 34fb <VAD_commom+0x63>
    34f5:	345d                                    	ae_l16si.n	a5, a4, 2
    34f7:	645d                                    	ae_s16i.n	a5, a4, 0
    34f9:	442b                                    	addi.n	a4, a4, 2

000034fb <VAD_commom+0x63>:
    34fb:	22d252                                    	addmi	a5, a2, 0x2200
    34fe:	70d262                                    	addmi	a6, a2, 0x7000
    3501:	289552                                    	l16si	a5, a5, 80
    3504:	22d2e2                                    	addmi	a14, a2, 0x2200
    3507:	ef4c                                    	movi.n	a15, 78
    3509:	ffa382                                    	movi	a8, 0x3ff
    350c:	115590                                    	slli	a5, a5, 7
    350f:	645d                                    	ae_s16i.n	a5, a4, 0
    3511:	521642                                    	l16ui	a4, a6, 164
    3514:	279e62                                    	l16si	a6, a14, 78
    3517:	904420                                    	addx2	a4, a4, a2
    351a:	22d442                                    	addmi	a4, a4, 0x2200
    351d:	1a9472                                    	l16si	a7, a4, 52
    3520:	22df42                                    	addmi	a4, a15, 0x2200
    3523:	524a                                    	add.n	a5, a2, a4
    3525:	064d                                    	mov.n	a4, a6
    3527:	a12877                                    	blt	a8, a7, 34cc <VAD_commom+0x34>

0000352a <VAD_commom+0x92>:
    352a:	842d                                    	ae_sext16	a2, a4
    352c:	761b                                    	addi.n	a7, a6, 1
    352e:	06c2e6                                    	bgei	a2, 32, 3538 <VAD_commom+0xa0>
    3531:	140c                                    	movi.n	a4, 1
    3533:	534740                                    	max	a4, a7, a4
    3536:	654d                                    	ae_s16i.n	a4, a5, 0
    3538:	842d                                    	ae_sext16	a2, a4
    353a:	0329                                    	s32i.n	a2, a3, 0
    353c:	f01d                                    	retw.n

0000353e <VAD_commom+0xa6>:
	...

00003540 <EC_block_common>:
    3540:	052136                                    	entry	a1, 0x290
    3543:	fca0f2                                    	movi	a15, 252
    3546:	360c                                    	movi.n	a6, 3
    3548:	7fdff2                                    	addmi	a15, a15, 0x7f00
    354b:	84a0e2                                    	movi	a14, 132
    354e:	90a0c2                                    	movi	a12, 144
    3551:	8ca0b2                                    	movi	a11, 140
    3554:	3f0683471cb3effe                  	{ ae_cvtp24a16x2.ll	aed31, a15, a15; add	a15, a3, a14 }
    355c:	40d662                                    	addmi	a6, a6, 0x4000
    355f:	9ca0d2                                    	movi	a13, 156
    3562:	1f04084004a3e66e                  	{ ae_cvtp24a16x2.ll	aed0, a6, a6; movi	a14, 216 }
    356a:	9061f2                                    	s32i	a15, a1, 0x240
    356d:	41de62                                    	addmi	a6, a14, 0x4100
    3570:	f3da                                    	add.n	a15, a3, a13
    3572:	c3ca                                    	add.n	a12, a3, a12
    3574:	b3ba                                    	add.n	a11, a3, a11
    3576:	05a2d2                                    	movi	a13, 0x205
    3579:	7961c2                                    	s32i	a12, a1, 0x1e4
    357c:	626a                                    	add.n	a6, a2, a6
    357e:	7d61b2                                    	s32i	a11, a1, 0x1f4
    3581:	a5a7c2                                    	movi	a12, 0x7a5
    3584:	94a3e2                                    	movi	a14, 0x394
    3587:	11bdc0                                    	slli	a11, a13, 4
    358a:	8f61f2                                    	s32i	a15, a1, 0x23c
    358d:	2da7f2                                    	movi	a15, 0x72d
    3590:	1e6162                                    	s32i	a6, a1, 120
    3593:	116cd0                                    	slli	a6, a12, 3
    3596:	b0cee0                                    	addx8	a12, a14, a14
    3599:	e2ba                                    	add.n	a14, a2, a11
    359b:	11dfc0                                    	slli	a13, a15, 4
    359e:	f2ca                                    	add.n	a15, a2, a12
    35a0:	626a                                    	add.n	a6, a2, a6
    35a2:	1761e2                                    	s32i	a14, a1, 92
    35a5:	c1a3c2                                    	movi	a12, 0x3c1
    35a8:	07a4e2                                    	movi	a14, 0x407
    35ab:	266162                                    	s32i	a6, a1, 152
    35ae:	b2da                                    	add.n	a11, a2, a13
    35b0:	116cc0                                    	slli	a6, a12, 4
    35b3:	5861f2                                    	s32i	a15, a1, 0x160
    35b6:	19a2d2                                    	movi	a13, 0x219
    35b9:	11ced0                                    	slli	a12, a14, 3
    35bc:	8e61b2                                    	s32i	a11, a1, 0x238
    35bf:	c3a3f2                                    	movi	a15, 0x3c3
    35c2:	11bdb0                                    	slli	a11, a13, 5
    35c5:	11dfc0                                    	slli	a13, a15, 4
    35c8:	e2ba                                    	add.n	a14, a2, a11
    35ca:	f2ca                                    	add.n	a15, a2, a12
    35cc:	b2da                                    	add.n	a11, a2, a13
    35ce:	7861f2                                    	s32i	a15, a1, 0x1e0
    35d1:	15a2d2                                    	movi	a13, 0x215
    35d4:	cba3f2                                    	movi	a15, 0x3cb
    35d7:	626a                                    	add.n	a6, a2, a6
    35d9:	8d61e2                                    	s32i	a14, a1, 0x234
    35dc:	9a61b2                                    	s32i	a11, a1, 0x268
    35df:	11bdb0                                    	slli	a11, a13, 5
    35e2:	13a1c2                                    	movi	a12, 0x113
    35e5:	13a2e2                                    	movi	a14, 0x213
    35e8:	576162                                    	s32i	a6, a1, 0x15c
    35eb:	11dfc0                                    	slli	a13, a15, 4
    35ee:	116ca0                                    	slli	a6, a12, 6
    35f1:	11ceb0                                    	slli	a12, a14, 5
    35f4:	e2ba                                    	add.n	a14, a2, a11
    35f6:	b2da                                    	add.n	a11, a2, a13
    35f8:	f2ca                                    	add.n	a15, a2, a12
    35fa:	8d0c                                    	movi.n	a13, 8
    35fc:	9861e2                                    	s32i	a14, a1, 0x260
    35ff:	626a                                    	add.n	a6, a2, a6
    3601:	9661b2                                    	s32i	a11, a1, 0x258
    3604:	11a2c2                                    	movi	a12, 0x211
    3607:	17a2e2                                    	movi	a14, 0x217
    360a:	45ddb2                                    	addmi	a11, a13, 0x4500
    360d:	996162                                    	s32i	a6, a1, 0x264
    3610:	116cb0                                    	slli	a6, a12, 5
    3613:	9761f2                                    	s32i	a15, a1, 0x25c
    3616:	11ceb0                                    	slli	a12, a14, 5
    3619:	94a0f2                                    	movi	a15, 148
    361c:	e2ba                                    	add.n	a14, a2, a11
    361e:	45dfd2                                    	addmi	a13, a15, 0x4500
    3621:	f2ca                                    	add.n	a15, a2, a12
    3623:	626a                                    	add.n	a6, a2, a6
    3625:	9461e2                                    	s32i	a14, a1, 0x250
    3628:	c4a0c2                                    	movi	a12, 196
    362b:	9fa3e2                                    	movi	a14, 0x39f
    362e:	956162                                    	s32i	a6, a1, 0x254
    3631:	b2da                                    	add.n	a11, a2, a13
    3633:	74dc62                                    	addmi	a6, a12, 0x7400
    3636:	9361f2                                    	s32i	a15, a1, 0x24c
    3639:	c7a3d2                                    	movi	a13, 0x3c7
    363c:	11ceb0                                    	slli	a12, a14, 5
    363f:	3761b2                                    	s32i	a11, a1, 220
    3642:	35a7f2                                    	movi	a15, 0x735
    3645:	11bdc0                                    	slli	a11, a13, 4
    3648:	11dfc0                                    	slli	a13, a15, 4
    364b:	e2ba                                    	add.n	a14, a2, a11
    364d:	f2ca                                    	add.n	a15, a2, a12
    364f:	b2da                                    	add.n	a11, a2, a13
    3651:	3061f2                                    	s32i	a15, a1, 192
    3654:	cd3c                                    	movi.n	a13, 60
    3656:	c5a3f2                                    	movi	a15, 0x3c5
    3659:	626a                                    	add.n	a6, a2, a6
    365b:	1d61e2                                    	s32i	a14, a1, 116
    365e:	2f61b2                                    	s32i	a11, a1, 188
    3661:	20ddb2                                    	addmi	a11, a13, 0x2000
    3664:	eca0c2                                    	movi	a12, 236
    3667:	2fa7e2                                    	movi	a14, 0x72f
    366a:	316162                                    	s32i	a6, a1, 196
    366d:	11dfc0                                    	slli	a13, a15, 4
    3670:	3ddc62                                    	addmi	a6, a12, 0x3d00
    3673:	11cec0                                    	slli	a12, a14, 4
    3676:	e2ba                                    	add.n	a14, a2, a11
    3678:	b2da                                    	add.n	a11, a2, a13
    367a:	f2ca                                    	add.n	a15, a2, a12
    367c:	55a4d2                                    	movi	a13, 0x455
    367f:	4b61e2                                    	s32i	a14, a1, 0x12c
    3682:	626a                                    	add.n	a6, a2, a6
    3684:	4a61b2                                    	s32i	a11, a1, 0x128
    3687:	23a2c2                                    	movi	a12, 0x223
    368a:	1fa2e2                                    	movi	a14, 0x21f
    368d:	11bdc0                                    	slli	a11, a13, 4
    3690:	5f6162                                    	s32i	a6, a1, 0x17c
    3693:	116cb0                                    	slli	a6, a12, 5
    3696:	7661f2                                    	s32i	a15, a1, 0x1d8
    3699:	11ceb0                                    	slli	a12, a14, 5
    369c:	1da2f2                                    	movi	a15, 0x21d
    369f:	e2ba                                    	add.n	a14, a2, a11
    36a1:	11dfb0                                    	slli	a13, a15, 5
    36a4:	f2ca                                    	add.n	a15, a2, a12
    36a6:	626a                                    	add.n	a6, a2, a6
    36a8:	8561e2                                    	s32i	a14, a1, 0x214
    36ab:	99a7c2                                    	movi	a12, 0x799
    36ae:	21a2e2                                    	movi	a14, 0x221
    36b1:	756162                                    	s32i	a6, a1, 0x1d4
    36b4:	b2da                                    	add.n	a11, a2, a13
    36b6:	116cd0                                    	slli	a6, a12, 3
    36b9:	8461f2                                    	s32i	a15, a1, 0x210
    36bc:	1ba2d2                                    	movi	a13, 0x21b
    36bf:	11ceb0                                    	slli	a12, a14, 5
    36c2:	8361b2                                    	s32i	a11, a1, 0x20c
    36c5:	3ba7f2                                    	movi	a15, 0x73b
    36c8:	11bdb0                                    	slli	a11, a13, 5
    36cb:	11dfc0                                    	slli	a13, a15, 4
    36ce:	e2ba                                    	add.n	a14, a2, a11
    36d0:	f2ca                                    	add.n	a15, a2, a12
    36d2:	b2da                                    	add.n	a11, a2, a13
    36d4:	8061f2                                    	s32i	a15, a1, 0x200
    36d7:	d4a0d2                                    	movi	a13, 212
    36da:	dca6f2                                    	movi	a15, 0x6dc
    36dd:	626a                                    	add.n	a6, a2, a6
    36df:	8161e2                                    	s32i	a14, a1, 0x204
    36e2:	6461b2                                    	s32i	a11, a1, 0x190
    36e5:	3dddb2                                    	addmi	a11, a13, 0x3d00
    36e8:	c8a0c2                                    	movi	a12, 200
    36eb:	a4a0e2                                    	movi	a14, 164
    36ee:	826162                                    	s32i	a6, a1, 0x208
    36f1:	b0dff0                                    	addx8	a13, a15, a15
    36f4:	73dc62                                    	addmi	a6, a12, 0x7300
    36f7:	3ddec2                                    	addmi	a12, a14, 0x3d00
    36fa:	e2ba                                    	add.n	a14, a2, a11
    36fc:	b2da                                    	add.n	a11, a2, a13
    36fe:	f7a7d2                                    	movi	a13, 0x7f7
    3701:	f2ca                                    	add.n	a15, a2, a12
    3703:	626a                                    	add.n	a6, a2, a6
    3705:	6261e2                                    	s32i	a14, a1, 0x188
    3708:	6e61b2                                    	s32i	a11, a1, 0x1b8
    370b:	11bdd0                                    	slli	a11, a13, 3
    370e:	e3a7c2                                    	movi	a12, 0x7e3
    3711:	8e5c                                    	movi.n	a14, 88
    3713:	636162                                    	s32i	a6, a1, 0x18c
    3716:	116cd0                                    	slli	a6, a12, 3
    3719:	6f61f2                                    	s32i	a15, a1, 0x1bc
    371c:	40dec2                                    	addmi	a12, a14, 0x4000
    371f:	61a4f2                                    	movi	a15, 0x461
    3722:	b2ba                                    	add.n	a11, a2, a11
    3724:	e2ca                                    	add.n	a14, a2, a12
    3726:	11dfc0                                    	slli	a13, a15, 4
    3729:	4961b2                                    	s32i	a11, a1, 0x124
    372c:	626a                                    	add.n	a6, a2, a6
    372e:	fca0b2                                    	movi	a11, 252
    3731:	c9a3c2                                    	movi	a12, 0x3c9
    3734:	2c6162                                    	s32i	a6, a1, 176
    3737:	f2da                                    	add.n	a15, a2, a13
    3739:	74db62                                    	addmi	a6, a11, 0x7400
    373c:	4861e2                                    	s32i	a14, a1, 0x120
    373f:	11bcc0                                    	slli	a11, a12, 4
    3742:	2d5c                                    	movi.n	a13, 82
    3744:	37a7e2                                    	movi	a14, 0x737
    3747:	4761f2                                    	s32i	a15, a1, 0x11c
    374a:	74ddc2                                    	addmi	a12, a13, 0x7400
    374d:	f2ba                                    	add.n	a15, a2, a11
    374f:	11dec0                                    	slli	a13, a14, 4
    3752:	b2ca                                    	add.n	a11, a2, a12
    3754:	c2da                                    	add.n	a12, a2, a13
    3756:	626a                                    	add.n	a6, a2, a6
    3758:	2361f2                                    	s32i	a15, a1, 140
    375b:	09a4d2                                    	movi	a13, 0x409
    375e:	39a7f2                                    	movi	a15, 0x739
    3761:	406162                                    	s32i	a6, a1, 0x100
    3764:	3e61c2                                    	s32i	a12, a1, 248
    3767:	116dd0                                    	slli	a6, a13, 3
    376a:	11cfc0                                    	slli	a12, a15, 4
    376d:	22d2f2                                    	addmi	a15, a2, 0x2200
    3770:	81a0e2                                    	movi	a14, 129
    3773:	3f61b2                                    	s32i	a11, a1, 252
    3776:	11bea0                                    	slli	a11, a14, 6
    3779:	626a                                    	add.n	a6, a2, a6
    377b:	c2ca                                    	add.n	a12, a2, a12
    377d:	75d2e2                                    	addmi	a14, a2, 0x7500
    3780:	1861f2                                    	s32i	a15, a1, 96
    3783:	20d2f2                                    	addmi	a15, a2, 0x2000
    3786:	3b6162                                    	s32i	a6, a1, 236
    3789:	75d2d2                                    	addmi	a13, a2, 0x7500
    378c:	7c61c2                                    	s32i	a12, a1, 0x1f0
    378f:	43d262                                    	addmi	a6, a2, 0x4300
    3792:	5261e2                                    	s32i	a14, a1, 0x148
    3795:	22d2c2                                    	addmi	a12, a2, 0x2200
    3798:	5b61f2                                    	s32i	a15, a1, 0x16c
    379b:	42d2e2                                    	addmi	a14, a2, 0x4200
    379e:	44d2f2                                    	addmi	a15, a2, 0x4400
    37a1:	75d242                                    	addmi	a4, a2, 0x7500
    37a4:	1a61d2                                    	s32i	a13, a1, 104
    37a7:	42d2d2                                    	addmi	a13, a2, 0x4200
    37aa:	196162                                    	s32i	a6, a1, 100
    37ad:	42d262                                    	addmi	a6, a2, 0x4200
    37b0:	2b61c2                                    	s32i	a12, a1, 172
    37b3:	43d2c2                                    	addmi	a12, a2, 0x4300
    37b6:	3961e2                                    	s32i	a14, a1, 228
    37b9:	44d2e2                                    	addmi	a14, a2, 0x4400
    37bc:	5561f2                                    	s32i	a15, a1, 0x154
    37bf:	3dd2f2                                    	addmi	a15, a2, 0x3d00
    37c2:	2a61d2                                    	s32i	a13, a1, 168
    37c5:	242482                                    	l32i	a8, a4, 144
    37c8:	386162                                    	s32i	a6, a1, 224
    37cb:	75d2d2                                    	addmi	a13, a2, 0x7500
    37ce:	43d262                                    	addmi	a6, a2, 0x4300
    37d1:	2161c2                                    	s32i	a12, a1, 132
    37d4:	2061e2                                    	s32i	a14, a1, 128
    37d7:	22d2e2                                    	addmi	a14, a2, 0x2200
    37da:	2d61f2                                    	s32i	a15, a1, 180
    37dd:	3ed2f2                                    	addmi	a15, a2, 0x3e00
    37e0:	2861d2                                    	s32i	a13, a1, 160
    37e3:	44d2d2                                    	addmi	a13, a2, 0x4400
    37e6:	546162                                    	s32i	a6, a1, 0x150
    37e9:	3ed262                                    	addmi	a6, a2, 0x3e00
    37ec:	7f61c2                                    	s32i	a12, a1, 0x1fc
    37ef:	3dd2c2                                    	addmi	a12, a2, 0x3d00
    37f2:	7e61e2                                    	s32i	a14, a1, 0x1f8
    37f5:	3ed2e2                                    	addmi	a14, a2, 0x3e00
    37f8:	4161f2                                    	s32i	a15, a1, 0x104
    37fb:	78a142                                    	movi	a4, 0x178
    37fe:	3261d2                                    	s32i	a13, a1, 200
    3801:	3dd2d2                                    	addmi	a13, a2, 0x3d00
    3804:	446162                                    	s32i	a6, a1, 0x110
    3807:	b2ba                                    	add.n	a11, a2, a11
    3809:	6d61c2                                    	s32i	a12, a1, 0x1b4
    380c:	3fd2c2                                    	addmi	a12, a2, 0x3f00
    380f:	2461e2                                    	s32i	a14, a1, 144
    3812:	48d2e2                                    	addmi	a14, a2, 0x4800
    3815:	1f61f2                                    	s32i	a15, a1, 124
    3818:	22d2f2                                    	addmi	a15, a2, 0x2200
    381b:	6c61d2                                    	s32i	a13, a1, 0x1b0
    381e:	4ad2d2                                    	addmi	a13, a2, 0x4a00
    3821:	276162                                    	s32i	a6, a1, 156
    3824:	3fd262                                    	addmi	a6, a2, 0x3f00
    3827:	3c61c2                                    	s32i	a12, a1, 240
    382a:	f8a192                                    	movi	a9, 0x1f8
    382d:	4261e2                                    	s32i	a14, a1, 0x108
    3830:	3dd2e2                                    	addmi	a14, a2, 0x3d00
    3833:	3a61f2                                    	s32i	a15, a1, 232
    3836:	f84a                                    	add.n	a15, a8, a4
    3838:	a8a072                                    	movi	a7, 168
    383b:	38a142                                    	movi	a4, 0x138
    383e:	5661b2                                    	s32i	a11, a1, 0x158
    3841:	3dd2b2                                    	addmi	a11, a2, 0x3d00
    3844:	5e61d2                                    	s32i	a13, a1, 0x178
    3847:	40d2d2                                    	addmi	a13, a2, 0x4000
    384a:	616162                                    	s32i	a6, a1, 0x184
    384d:	40d262                                    	addmi	a6, a2, 0x4000
    3850:	2961c2                                    	s32i	a12, a1, 164
    3853:	c89a                                    	add.n	a12, a8, a9
    3855:	6b61e2                                    	s32i	a14, a1, 0x1ac
    3858:	e87a                                    	add.n	a14, a8, a7
    385a:	eca0a2                                    	movi	a10, 236
    385d:	284a                                    	add.n	a2, a8, a4
    385f:	2561d2                                    	s32i	a13, a1, 148
    3862:	b8a172                                    	movi	a7, 0x1b8
    3865:	6961b2                                    	s32i	a11, a1, 0x1a4
    3868:	d8aa                                    	add.n	a13, a8, a10
    386a:	6661c2                                    	s32i	a12, a1, 0x198
    386d:	e0a392                                    	movi	a9, 0x3e0
    3870:	8a6122                                    	s32i	a2, a1, 0x228
    3873:	287a                                    	add.n	a2, a8, a7
    3875:	38a2c2                                    	movi	a12, 0x238
    3878:	dca2b2                                    	movi	a11, 0x2dc
    387b:	6561d2                                    	s32i	a13, a1, 0x194
    387e:	a89a                                    	add.n	a10, a8, a9
    3880:	8c61e2                                    	s32i	a14, a1, 0x230
    3883:	d8ca                                    	add.n	a13, a8, a12
    3885:	8b61f2                                    	s32i	a15, a1, 0x22c
    3888:	e0a2f2                                    	movi	a15, 0x2e0
    388b:	7b6122                                    	s32i	a2, a1, 0x1ec
    388e:	28ba                                    	add.n	a2, a8, a11
    3890:	f0a0e2                                    	movi	a14, 240
    3893:	7461a2                                    	s32i	a10, a1, 0x1d0
    3896:	736122                                    	s32i	a2, a1, 0x1cc
    3899:	28ea                                    	add.n	a2, a8, a14
    389b:	8861d2                                    	s32i	a13, a1, 0x220
    389e:	48fa                                    	add.n	a4, a8, a15
    38a0:	38c192                                    	addi	a9, a1, 56
    38a3:	40c1a2                                    	addi	a10, a1, 64
    38a6:	74c3b2                                    	addi	a11, a3, 116
    38a9:	40c3c2                                    	addi	a12, a3, 64
    38ac:	24c3d2                                    	addi	a13, a3, 36
    38af:	2cc3e2                                    	addi	a14, a3, 44
    38b2:	686192                                    	s32i	a9, a1, 0x1a0
    38b5:	30c3f2                                    	addi	a15, a3, 48
    38b8:	6761a2                                    	s32i	a10, a1, 0x19c
    38bb:	54c392                                    	addi	a9, a3, 84
    38be:	7761b2                                    	s32i	a11, a1, 0x1dc
    38c1:	4cc3a2                                    	addi	a10, a3, 76
    38c4:	8761c2                                    	s32i	a12, a1, 0x21c
    38c7:	44c3b2                                    	addi	a11, a3, 68
    38ca:	5361d2                                    	s32i	a13, a1, 0x14c
    38cd:	28c3c2                                    	addi	a12, a3, 40
    38d0:	9161e2                                    	s32i	a14, a1, 0x244
    38d3:	34c3d2                                    	addi	a13, a3, 52
    38d6:	1c61f2                                    	s32i	a15, a1, 112
    38d9:	50c3e2                                    	addi	a14, a3, 80
    38dc:	f8a052                                    	movi	a5, 248
    38df:	38c3f2                                    	addi	a15, a3, 56
    38e2:	6a6162                                    	s32i	a6, a1, 0x1a8
    38e5:	685a                                    	add.n	a6, a8, a5
    38e7:	516122                                    	s32i	a2, a1, 0x144
    38ea:	60a422                                    	movi	a2, 0x460
    38ed:	346192                                    	s32i	a9, a1, 208
    38f0:	7cc392                                    	addi	a9, a3, 124
    38f3:	2e61a2                                    	s32i	a10, a1, 184
    38f6:	3cc3a2                                    	addi	a10, a3, 60
    38f9:	7161b2                                    	s32i	a11, a1, 0x1c4
    38fc:	58c3b2                                    	addi	a11, a3, 88
    38ff:	4661c2                                    	s32i	a12, a1, 0x118
    3902:	30c8c2                                    	addi	a12, a8, 48
    3905:	2261d2                                    	s32i	a13, a1, 136
    3908:	04d8d2                                    	addmi	a13, a8, 0x400
    390b:	3d61e2                                    	s32i	a14, a1, 244
    390e:	02d8e2                                    	addmi	a14, a8, 0x200
    3911:	5061f2                                    	s32i	a15, a1, 0x140
    3914:	04d8f2                                    	addmi	a15, a8, 0x400
    3917:	48c172                                    	addi	a7, a1, 72
    391a:	f21f51                                    	l32r	a5, 198 (24c0 <tx_downsample_by2_N>)
    391d:	896162                                    	s32i	a6, a1, 0x224
    3920:	648b                                    	addi.n	a6, a4, 8
    3922:	456192                                    	s32i	a9, a1, 0x114
    3925:	74c892                                    	addi	a9, a8, 116
    3928:	4f61a2                                    	s32i	a10, a1, 0x13c
    392b:	68c8a2                                    	addi	a10, a8, 104
    392e:	7a61b2                                    	s32i	a11, a1, 0x1e8
    3931:	282a                                    	add.n	a2, a8, a2
    3933:	4e61c2                                    	s32i	a12, a1, 0x138
    3936:	04d8b2                                    	addmi	a11, a8, 0x400
    3939:	5a61d2                                    	s32i	a13, a1, 0x168
    393c:	04d8c2                                    	addmi	a12, a8, 0x400
    393f:	03d8d2                                    	addmi	a13, a8, 0x300
    3942:	5961e2                                    	s32i	a14, a1, 0x164
    3945:	3661f2                                    	s32i	a15, a1, 216
    3948:	50c8f2                                    	addi	a15, a8, 80
    394b:	606172                                    	s32i	a7, a1, 0x180
    394e:	0704024000e0931e                  	{ ae_s64.i	aed0, a1, 32; movi	a7, 2 }
    3956:	0504064718e0871e                  	{ ae_s64.i	aed31, a1, 40; movi	a4, 6 }
    395e:	726162                                    	s32i	a6, a1, 0x1c8
    3961:	356192                                    	s32i	a9, a1, 212
    3964:	4d61a2                                    	s32i	a10, a1, 0x134
    3967:	706122                                    	s32i	a2, a1, 0x1c0
    396a:	5d61b2                                    	s32i	a11, a1, 0x174
    396d:	5c61c2                                    	s32i	a12, a1, 0x170
    3970:	4361d2                                    	s32i	a13, a1, 0x10c
    3973:	8661e2                                    	s32i	a14, a1, 0x218
    3976:	1b6182                                    	s32i	a8, a1, 108
    3979:	4c61f2                                    	s32i	a15, a1, 0x130
    397c:	926132                                    	s32i	a3, a1, 0x248
    397f:	001286                                    	j	39cd <EC_block_common+0x48d>

00003982 <EC_block_common+0x442>:
    3982:	4c21d2                                    	l32i	a13, a1, 0x130
    3985:	8f2c                                    	movi.n	a15, 40
    3987:	4f21e2                                    	l32i	a14, a1, 0x13c
    398a:	862c                                    	movi.n	a6, 40
    398c:	f20441                                    	l32r	a4, 19c (255c <tx_upsample_by2_N>)
    398f:	0004e0                                    	callx8	a4
    3992:	02bd                                    	mov.n	a11, a2
    3994:	2623a2                                    	l32i	a10, a3, 152
    3997:	f21221                                    	l32r	a2, 1e0 (572c <vector_gain_Q9_15>)
    399a:	8c2c                                    	movi.n	a12, 40
    399c:	0002e0                                    	callx8	a2
    399f:	2623a2                                    	l32i	a10, a3, 152
    39a2:	1721b2                                    	l32i	a11, a1, 92
    39a5:	5121c2                                    	l32i	a12, a1, 0x144
    39a8:	8d2c                                    	movi.n	a13, 40
    39aa:	f20b21                                    	l32r	a2, 1d8 (269c <deemph_filter_N>)
    39ad:	0002e0                                    	callx8	a2
    39b0:	452122                                    	l32i	a2, a1, 0x114
    39b3:	0288                                    	l32i.n	a8, a2, 0
    39b5:	262392                                    	l32i	a9, a3, 152
    39b8:	50c882                                    	addi	a8, a8, 80
    39bb:	906690                                    	addx2	a6, a6, a9
    39be:	0289                                    	s32i.n	a8, a2, 0
    39c0:	266362                                    	s32i	a6, a3, 152
    39c3:	9b2142                                    	l32i	a4, a1, 0x26c
    39c6:	440b                                    	addi.n	a4, a4, -1
    39c8:	14cc                                    	bnez.n	a4, 39cd <EC_block_common+0x48d>
    39ca:	03fcc6                                    	j	49c1 <EC_block_common+0x1481>
    39cd:	180322                                    	l8ui	a2, a3, 24
    39d0:	9b6142                                    	s32i	a4, a1, 0x26c
    39d3:	8c2c                                    	movi.n	a12, 40
    39d5:	2123b2                                    	l32i	a11, a3, 132
    39d8:	f19341                                    	l32r	a4, 24 (a5c4 <xt_memcpy>)
    39db:	8d2c                                    	movi.n	a13, 40
    39dd:	1d23a2                                    	l32i	a10, a3, 116
    39e0:	070216                                    	beqz	a2, 3a54 <EC_block_common+0x514>
    39e3:	1a2122                                    	l32i	a2, a1, 104
    39e6:	1422a2                                    	l32i	a10, a2, 80
    39e9:	0004e0                                    	callx8	a4
    39ec:	1d23a2                                    	l32i	a10, a3, 116
    39ef:	1721b2                                    	l32i	a11, a1, 92
    39f2:	5821c2                                    	l32i	a12, a1, 0x160
    39f5:	0d5c                                    	movi.n	a13, 80
    39f7:	f1fb41                                    	l32r	a4, 1e4 (260c <emph_filter_N>)
    39fa:	0004e0                                    	callx8	a4
    39fd:	522142                                    	l32i	a4, a1, 0x148
    3a00:	1d23c2                                    	l32i	a12, a3, 116
    3a03:	8e21d2                                    	l32i	a13, a1, 0x238
    3a06:	8721e2                                    	l32i	a14, a1, 0x21c
    3a09:	8f2c                                    	movi.n	a15, 40
    3a0b:	e4a8                                    	l32i.n	a10, a4, 56
    3a0d:	1224b2                                    	l32i	a11, a4, 72
    3a10:	0005e0                                    	callx8	a5
    3a13:	182162                                    	l32i	a6, a1, 96
    3a16:	e4c8                                    	l32i.n	a12, a4, 56
    3a18:	5721d2                                    	l32i	a13, a1, 0x15c
    3a1b:	5321e2                                    	l32i	a14, a1, 0x14c
    3a1e:	4f1c                                    	movi.n	a15, 20
    3a20:	1726a2                                    	l32i	a10, a6, 92
    3a23:	1826b2                                    	l32i	a11, a6, 96
    3a26:	0005e0                                    	callx8	a5
    3a29:	03d8                                    	l32i.n	a13, a3, 0
    3a2b:	1e21a2                                    	l32i	a10, a1, 120
    3a2e:	8d21b2                                    	l32i	a11, a1, 0x234
    3a31:	8c2c                                    	movi.n	a12, 40
    3a33:	f1f341                                    	l32r	a4, 200 (14f8 <subband_aec_block>)
    3a36:	5e0c                                    	movi.n	a14, 5
    3a38:	0004e0                                    	callx8	a4
    3a3b:	192182                                    	l32i	a8, a1, 100
    3a3e:	0b0c                                    	movi.n	a11, 0
    3a40:	f1f141                                    	l32r	a4, 204 (2f68 <gain_after_ec_ch5>)
    3a43:	0c0c                                    	movi.n	a12, 0
    3a45:	1728a2                                    	l32i	a10, a8, 92
    3a48:	0004e0                                    	callx8	a4
    3a4b:	162222                                    	l32i	a2, a2, 88
    3a4e:	286322                                    	s32i	a2, a3, 160
    3a51:	000d06                                    	j	3a89 <EC_block_common+0x549>

00003a54 <EC_block_common+0x514>:
    3a54:	172142                                    	l32i	a4, a1, 92
    3a57:	5821c2                                    	l32i	a12, a1, 0x160
    3a5a:	f1e221                                    	l32r	a2, 1e4 (260c <emph_filter_N>)
    3a5d:	04bd                                    	mov.n	a11, a4
    3a5f:	0002e0                                    	callx8	a2
    3a62:	2023a2                                    	l32i	a10, a3, 128
    3a65:	7821c2                                    	l32i	a12, a1, 0x1e0
    3a68:	28a0d2                                    	movi	a13, 40
    3a6b:	20b440                                    	or	a11, a4, a4
    3a6e:	0002e0                                    	callx8	a2
    3a71:	182162                                    	l32i	a6, a1, 96
    3a74:	1d23c2                                    	l32i	a12, a3, 116
    3a77:	5721d2                                    	l32i	a13, a1, 0x15c
    3a7a:	5321e2                                    	l32i	a14, a1, 0x14c
    3a7d:	14a0f2                                    	movi	a15, 20
    3a80:	1726a2                                    	l32i	a10, a6, 92
    3a83:	1826b2                                    	l32i	a11, a6, 96
    3a86:	0005e0                                    	callx8	a5
    3a89:	2023c2                                    	l32i	a12, a3, 128
    3a8c:	1b26a2                                    	l32i	a10, a6, 108
    3a8f:	1c26b2                                    	l32i	a11, a6, 112
    3a92:	9a21d2                                    	l32i	a13, a1, 0x268
    3a95:	9121e2                                    	l32i	a14, a1, 0x244
    3a98:	2a2132                                    	l32i	a3, a1, 168
    3a9b:	14a0f2                                    	movi	a15, 20
    3a9e:	0005e0                                    	callx8	a5
    3aa1:	2b2122                                    	l32i	a2, a1, 172
    3aa4:	392152                                    	l32i	a5, a1, 228
    3aa7:	1726a2                                    	l32i	a10, a6, 92
    3aaa:	3523d2                                    	l32i	a13, a3, 212
    3aad:	9921b2                                    	l32i	a11, a1, 0x264
    3ab0:	1622c2                                    	l32i	a12, a2, 88
    3ab3:	2525e2                                    	l32i	a14, a5, 148
    3ab6:	f1d441                                    	l32r	a4, 208 (272c <analy2_3band>)
    3ab9:	0004e0                                    	callx8	a4
    3abc:	382142                                    	l32i	a4, a1, 224
    3abf:	1622a2                                    	l32i	a10, a2, 88
    3ac2:	9621b2                                    	l32i	a11, a1, 0x258
    3ac5:	0aa0e2                                    	movi	a14, 10
    3ac8:	5b21c2                                    	l32i	a12, a1, 0x16c
    3acb:	f1bc81                                    	l32r	a8, 1bc (2900 <biquad_2cascade_24bitTxB>)
    3ace:	1524d2                                    	l32i	a13, a4, 84
    3ad1:	0008e0                                    	callx8	a8
    3ad4:	3623d2                                    	l32i	a13, a3, 216
    3ad7:	1b26a2                                    	l32i	a10, a6, 108
    3ada:	1622c2                                    	l32i	a12, a2, 88
    3add:	2625e2                                    	l32i	a14, a5, 152
    3ae0:	9421b2                                    	l32i	a11, a1, 0x250
    3ae3:	f1c931                                    	l32r	a3, 208 (272c <analy2_3band>)
    3ae6:	0003e0                                    	callx8	a3
    3ae9:	162462                                    	l32i	a6, a4, 88
    3aec:	162222                                    	l32i	a2, a2, 88
    3aef:	05a032                                    	movi	a3, 5
    3af2:	fcc662                                    	addi	a6, a6, -4
    3af5:	1f8376                                    	loop	a3, 3b18 <EC_block_common+0x5d8>
    3af8:	230720c004a5b92e                  	{ ae_l32x2f24.ip	aed0, a2, 8; nop }
    3b00:	0ead217b0d440cd0c50001380c01015f 	{ nop; nop; nop; ae_roundsp16f24asym	aed0, aed0 }
    3b10:	220740c004c5716e                  	{ ae_s16x2m.iu	aed0, a6, 4; nop }

00003b18 <EC_block_common+0x5d8>:
    3b18:	922152                                    	l32i	a5, a1, 0x248
    3b1b:	1e2122                                    	l32i	a2, a1, 120
    3b1e:	9521b2                                    	l32i	a11, a1, 0x254
    3b21:	ac0c                                    	movi.n	a12, 10
    3b23:	f1b741                                    	l32r	a4, 200 (14f8 <subband_aec_block>)
    3b26:	1e0c                                    	movi.n	a14, 1
    3b28:	05d8                                    	l32i.n	a13, a5, 0
    3b2a:	02ad                                    	mov.n	a10, a2
    3b2c:	0004e0                                    	callx8	a4
    3b2f:	05d8                                    	l32i.n	a13, a5, 0
    3b31:	9821b2                                    	l32i	a11, a1, 0x260
    3b34:	ac0c                                    	movi.n	a12, 10
    3b36:	3e0c                                    	movi.n	a14, 3
    3b38:	02ad                                    	mov.n	a10, a2
    3b3a:	0004e0                                    	callx8	a4
    3b3d:	05d8                                    	l32i.n	a13, a5, 0
    3b3f:	9321b2                                    	l32i	a11, a1, 0x24c
    3b42:	4c1c                                    	movi.n	a12, 20
    3b44:	4e0c                                    	movi.n	a14, 4
    3b46:	02ad                                    	mov.n	a10, a2
    3b48:	0004e0                                    	callx8	a4
    3b4b:	02ad                                    	mov.n	a10, a2
    3b4d:	05c8                                    	l32i.n	a12, a5, 0
    3b4f:	9721b2                                    	l32i	a11, a1, 0x25c
    3b52:	2d0c                                    	movi.n	a13, 2
    3b54:	f1ae21                                    	l32r	a2, 20c (1a10 <subband_aec_mid_channel>)
    3b57:	0002e0                                    	callx8	a2
    3b5a:	382142                                    	l32i	a4, a1, 224
    3b5d:	2a2132                                    	l32i	a3, a1, 168
    3b60:	212122                                    	l32i	a2, a1, 132
    3b63:	0e0c                                    	movi.n	a14, 0
    3b65:	392162                                    	l32i	a6, a1, 228
    3b68:	0f0c                                    	movi.n	a15, 0
    3b6a:	1724a2                                    	l32i	a10, a4, 92
    3b6d:	3723b2                                    	l32i	a11, a3, 220
    3b70:	72c8                                    	l32i.n	a12, a2, 28
    3b72:	2726d2                                    	l32i	a13, a6, 156
    3b75:	f1a621                                    	l32r	a2, 210 (2a1c <gain_after_ec>)
    3b78:	0002e0                                    	callx8	a2
    3b7b:	0d1522                                    	l16ui	a2, a5, 26
    3b7e:	180582                                    	l8ui	a8, a5, 24
    3b81:	f19f91                                    	l32r	a9, 200 (14f8 <subband_aec_block>)
    3b84:	6a2266                                    	bnei	a2, 2, 3bf2 <EC_block_common+0x6b2>
    3b87:	1e25a2                                    	l32i	a10, a5, 120
    3b8a:	053d                                    	mov.n	a3, a5
    3b8c:	096d                                    	mov.n	a6, a9
    3b8e:	0de816                                    	beqz	a8, 3c70 <EC_block_common+0x730>
    3b91:	1721b2                                    	l32i	a11, a1, 92
    3b94:	4b21c2                                    	l32i	a12, a1, 0x12c
    3b97:	f19321                                    	l32r	a2, 1e4 (260c <emph_filter_N>)
    3b9a:	0d5c                                    	movi.n	a13, 80
    3b9c:	0002e0                                    	callx8	a2
    3b9f:	522122                                    	l32i	a2, a1, 0x148
    3ba2:	1e23c2                                    	l32i	a12, a3, 120
    3ba5:	7621d2                                    	l32i	a13, a1, 0x1d8
    3ba8:	7121e2                                    	l32i	a14, a1, 0x1c4
    3bab:	f17b41                                    	l32r	a4, 198 (24c0 <tx_downsample_by2_N>)
    3bae:	8f2c                                    	movi.n	a15, 40
    3bb0:	f2a8                                    	l32i.n	a10, a2, 60
    3bb2:	1322b2                                    	l32i	a11, a2, 76
    3bb5:	0004e0                                    	callx8	a4
    3bb8:	182152                                    	l32i	a5, a1, 96
    3bbb:	f2c8                                    	l32i.n	a12, a2, 60
    3bbd:	4a21d2                                    	l32i	a13, a1, 0x128
    3bc0:	4621e2                                    	l32i	a14, a1, 0x118
    3bc3:	4f1c                                    	movi.n	a15, 20
    3bc5:	1925a2                                    	l32i	a10, a5, 100
    3bc8:	1a25b2                                    	l32i	a11, a5, 104
    3bcb:	0004e0                                    	callx8	a4
    3bce:	1e2142                                    	l32i	a4, a1, 120
    3bd1:	03d8                                    	l32i.n	a13, a3, 0
    3bd3:	7521b2                                    	l32i	a11, a1, 0x1d4
    3bd6:	8c2c                                    	movi.n	a12, 40
    3bd8:	5e0c                                    	movi.n	a14, 5
    3bda:	04ad                                    	mov.n	a10, a4
    3bdc:	0006e0                                    	callx8	a6
    3bdf:	202122                                    	l32i	a2, a1, 128
    3be2:	1b0c                                    	movi.n	a11, 1
    3be4:	0c0c                                    	movi.n	a12, 0
    3be6:	2722a2                                    	l32i	a10, a2, 156
    3be9:	f18621                                    	l32r	a2, 204 (2f68 <gain_after_ec_ch5>)
    3bec:	0002e0                                    	callx8	a2
    3bef:	002a06                                    	j	3c9b <EC_block_common+0x75b>

00003bf2 <EC_block_common+0x6b2>:
    3bf2:	2726c2                                    	l32i	a12, a6, 156
    3bf5:	182162                                    	l32i	a6, a1, 96
    3bf8:	3723b2                                    	l32i	a11, a3, 220
    3bfb:	1724a2                                    	l32i	a10, a4, 92
    3bfe:	3721d2                                    	l32i	a13, a1, 220
    3c01:	053d                                    	mov.n	a3, a5
    3c03:	1e26e2                                    	l32i	a14, a6, 120
    3c06:	f18d21                                    	l32r	a2, 23c (2844 <synth_3band>)
    3c09:	0002e0                                    	callx8	a2
    3c0c:	180522                                    	l8ui	a2, a5, 24
    3c0f:	f18c51                                    	l32r	a5, 240 (3084 <hb_buf_delay>)
    3c12:	2c1216                                    	beqz	a2, 3ed7 <EC_block_common+0x997>
    3c15:	212122                                    	l32i	a2, a1, 132
    3c18:	282142                                    	l32i	a4, a1, 160
    3c1b:	3121c2                                    	l32i	a12, a1, 196
    3c1e:	4b1c                                    	movi.n	a11, 20
    3c20:	cd1c                                    	movi.n	a13, 28
    3c22:	72a8                                    	l32i.n	a10, a2, 28
    3c24:	d4e8                                    	l32i.n	a14, a4, 52
    3c26:	0005e0                                    	callx8	a5
    3c29:	72b8                                    	l32i.n	a11, a2, 28
    3c2b:	1a2122                                    	l32i	a2, a1, 104
    3c2e:	1e26a2                                    	l32i	a10, a6, 120
    3c31:	1d21d2                                    	l32i	a13, a1, 116
    3c34:	1c21e2                                    	l32i	a14, a1, 112
    3c37:	8f2c                                    	movi.n	a15, 40
    3c39:	1622c2                                    	l32i	a12, a2, 88
    3c3c:	f15851                                    	l32r	a5, 19c (255c <tx_upsample_by2_N>)
    3c3f:	0005e0                                    	callx8	a5
    3c42:	192162                                    	l32i	a6, a1, 100
    3c45:	d4e8                                    	l32i.n	a14, a4, 52
    3c47:	3021c2                                    	l32i	a12, a1, 192
    3c4a:	8b2c                                    	movi.n	a11, 40
    3c4c:	f17d41                                    	l32r	a4, 240 (3084 <hb_buf_delay>)
    3c4f:	9d3c                                    	movi.n	a13, 57
    3c51:	1726a2                                    	l32i	a10, a6, 92
    3c54:	0004e0                                    	callx8	a4
    3c57:	3421f2                                    	l32i	a15, a1, 208
    3c5a:	1622a2                                    	l32i	a10, a2, 88
    3c5d:	1726b2                                    	l32i	a11, a6, 92
    3c60:	2f21d2                                    	l32i	a13, a1, 188
    3c63:	2e21e2                                    	l32i	a14, a1, 184
    3c66:	ffc8                                    	l32i.n	a12, a15, 60
    3c68:	0f5c                                    	movi.n	a15, 80
    3c6a:	0005e0                                    	callx8	a5
    3c6d:	01cf06                                    	j	43ad <EC_block_common+0xe6d>

00003c70 <EC_block_common+0x730>:
    3c70:	1721b2                                    	l32i	a11, a1, 92
    3c73:	4b21c2                                    	l32i	a12, a1, 0x12c
    3c76:	f15b21                                    	l32r	a2, 1e4 (260c <emph_filter_N>)
    3c79:	8d2c                                    	movi.n	a13, 40
    3c7b:	0002e0                                    	callx8	a2
    3c7e:	182152                                    	l32i	a5, a1, 96
    3c81:	1e23c2                                    	l32i	a12, a3, 120
    3c84:	4a21d2                                    	l32i	a13, a1, 0x128
    3c87:	4621e2                                    	l32i	a14, a1, 0x118
    3c8a:	f14321                                    	l32r	a2, 198 (24c0 <tx_downsample_by2_N>)
    3c8d:	4f1c                                    	movi.n	a15, 20
    3c8f:	1925a2                                    	l32i	a10, a5, 100
    3c92:	1a25b2                                    	l32i	a11, a5, 104
    3c95:	0002e0                                    	callx8	a2
    3c98:	1e2142                                    	l32i	a4, a1, 120
    3c9b:	2b2122                                    	l32i	a2, a1, 172
    3c9e:	1925a2                                    	l32i	a10, a5, 100
    3ca1:	5521e2                                    	l32i	a14, a1, 0x154
    3ca4:	5421f2                                    	l32i	a15, a1, 0x150
    3ca7:	8521b2                                    	l32i	a11, a1, 0x214
    3caa:	1622c2                                    	l32i	a12, a2, 88
    3cad:	5ed8                                    	l32i.n	a13, a14, 20
    3caf:	352fe2                                    	l32i	a14, a15, 212
    3cb2:	f15551                                    	l32r	a5, 208 (272c <analy2_3band>)
    3cb5:	0005e0                                    	callx8	a5
    3cb8:	1921f2                                    	l32i	a15, a1, 100
    3cbb:	1622a2                                    	l32i	a10, a2, 88
    3cbe:	8221b2                                    	l32i	a11, a1, 0x208
    3cc1:	5b21c2                                    	l32i	a12, a1, 0x16c
    3cc4:	f13e21                                    	l32r	a2, 1bc (2900 <biquad_2cascade_24bitTxB>)
    3cc7:	ae0c                                    	movi.n	a14, 10
    3cc9:	252fd2                                    	l32i	a13, a15, 148
    3ccc:	0002e0                                    	callx8	a2
    3ccf:	03d8                                    	l32i.n	a13, a3, 0
    3cd1:	8121b2                                    	l32i	a11, a1, 0x204
    3cd4:	ac0c                                    	movi.n	a12, 10
    3cd6:	1e0c                                    	movi.n	a14, 1
    3cd8:	04ad                                    	mov.n	a10, a4
    3cda:	0006e0                                    	callx8	a6
    3cdd:	03d8                                    	l32i.n	a13, a3, 0
    3cdf:	8421b2                                    	l32i	a11, a1, 0x210
    3ce2:	ac0c                                    	movi.n	a12, 10
    3ce4:	3e0c                                    	movi.n	a14, 3
    3ce6:	04ad                                    	mov.n	a10, a4
    3ce8:	0006e0                                    	callx8	a6
    3ceb:	03d8                                    	l32i.n	a13, a3, 0
    3ced:	8021b2                                    	l32i	a11, a1, 0x200
    3cf0:	4c1c                                    	movi.n	a12, 20
    3cf2:	4e0c                                    	movi.n	a14, 4
    3cf4:	04ad                                    	mov.n	a10, a4
    3cf6:	0006e0                                    	callx8	a6
    3cf9:	03c8                                    	l32i.n	a12, a3, 0
    3cfb:	8321b2                                    	l32i	a11, a1, 0x20c
    3cfe:	f14321                                    	l32r	a2, 20c (1a10 <subband_aec_mid_channel>)
    3d01:	04ad                                    	mov.n	a10, a4
    3d03:	552162                                    	l32i	a6, a1, 0x154
    3d06:	2d0c                                    	movi.n	a13, 2
    3d08:	542142                                    	l32i	a4, a1, 0x150
    3d0b:	0002e0                                    	callx8	a2
    3d0e:	322122                                    	l32i	a2, a1, 200
    3d11:	7f2152                                    	l32i	a5, a1, 0x1fc
    3d14:	76b8                                    	l32i.n	a11, a6, 28
    3d16:	3724d2                                    	l32i	a13, a4, 220
    3d19:	1e0c                                    	movi.n	a14, 1
    3d1b:	0f0c                                    	movi.n	a15, 0
    3d1d:	1722c2                                    	l32i	a12, a2, 92
    3d20:	2725a2                                    	l32i	a10, a5, 156
    3d23:	f13b21                                    	l32r	a2, 210 (2a1c <gain_after_ec>)
    3d26:	0002e0                                    	callx8	a2
    3d29:	7e2122                                    	l32i	a2, a1, 0x1f8
    3d2c:	2d2182                                    	l32i	a8, a1, 180
    3d2f:	550222                                    	l8ui	a2, a2, 85
    3d32:	8e2c                                    	movi.n	a14, 40
    3d34:	026207                                    	bbci	a2, 0, 3d3a <EC_block_common+0x7fa>
    3d37:	003dc6                                    	j	3e32 <EC_block_common+0x8f2>
    3d3a:	76b8                                    	l32i.n	a11, a6, 28
    3d3c:	182162                                    	l32i	a6, a1, 96
    3d3f:	3724c2                                    	l32i	a12, a4, 220
    3d42:	2725a2                                    	l32i	a10, a5, 156
    3d45:	4721d2                                    	l32i	a13, a1, 0x11c
    3d48:	1d26e2                                    	l32i	a14, a6, 116
    3d4b:	f13c41                                    	l32r	a4, 23c (2844 <synth_3band>)
    3d4e:	0004e0                                    	callx8	a4
    3d51:	2a21e2                                    	l32i	a14, a1, 168
    3d54:	382122                                    	l32i	a2, a1, 224
    3d57:	3921f2                                    	l32i	a15, a1, 228
    3d5a:	3721d2                                    	l32i	a13, a1, 220
    3d5d:	372eb2                                    	l32i	a11, a14, 220
    3d60:	1722a2                                    	l32i	a10, a2, 92
    3d63:	272fc2                                    	l32i	a12, a15, 156
    3d66:	1e26e2                                    	l32i	a14, a6, 120
    3d69:	0004e0                                    	callx8	a4
    3d6c:	180322                                    	l8ui	a2, a3, 24
    3d6f:	f13441                                    	l32r	a4, 240 (3084 <hb_buf_delay>)
    3d72:	17f216                                    	beqz	a2, 3ef5 <EC_block_common+0x9b5>
    3d75:	322122                                    	l32i	a2, a1, 200
    3d78:	4021c2                                    	l32i	a12, a1, 0x100
    3d7b:	282152                                    	l32i	a5, a1, 160
    3d7e:	4b1c                                    	movi.n	a11, 20
    3d80:	cd1c                                    	movi.n	a13, 28
    3d82:	1722a2                                    	l32i	a10, a2, 92
    3d85:	d5e8                                    	l32i.n	a14, a5, 52
    3d87:	0004e0                                    	callx8	a4
    3d8a:	1722b2                                    	l32i	a11, a2, 92
    3d8d:	1a2122                                    	l32i	a2, a1, 104
    3d90:	1d26a2                                    	l32i	a10, a6, 116
    3d93:	2321d2                                    	l32i	a13, a1, 140
    3d96:	2221e2                                    	l32i	a14, a1, 136
    3d99:	8f2c                                    	movi.n	a15, 40
    3d9b:	1722c2                                    	l32i	a12, a2, 92
    3d9e:	f0ff41                                    	l32r	a4, 19c (255c <tx_upsample_by2_N>)
    3da1:	0004e0                                    	callx8	a4
    3da4:	202142                                    	l32i	a4, a1, 128
    3da7:	d5e8                                    	l32i.n	a14, a5, 52
    3da9:	3f21c2                                    	l32i	a12, a1, 252
    3dac:	8b2c                                    	movi.n	a11, 40
    3dae:	f12481                                    	l32r	a8, 240 (3084 <hb_buf_delay>)
    3db1:	9d3c                                    	movi.n	a13, 57
    3db3:	2724a2                                    	l32i	a10, a4, 156
    3db6:	0008e0                                    	callx8	a8
    3db9:	2724b2                                    	l32i	a11, a4, 156
    3dbc:	1722a2                                    	l32i	a10, a2, 92
    3dbf:	2523c2                                    	l32i	a12, a3, 148
    3dc2:	3e21d2                                    	l32i	a13, a1, 248
    3dc5:	3d21e2                                    	l32i	a14, a1, 244
    3dc8:	0f5c                                    	movi.n	a15, 80
    3dca:	f0f441                                    	l32r	a4, 19c (255c <tx_upsample_by2_N>)
    3dcd:	0004e0                                    	callx8	a4
    3dd0:	2523a2                                    	l32i	a10, a3, 148
    3dd3:	1721b2                                    	l32i	a11, a1, 92
    3dd6:	3b21c2                                    	l32i	a12, a1, 236
    3dd9:	0d5c                                    	movi.n	a13, 80
    3ddb:	f0ff41                                    	l32r	a4, 1d8 (269c <deemph_filter_N>)
    3dde:	0004e0                                    	callx8	a4
    3de1:	212142                                    	l32i	a4, a1, 132
    3de4:	d5e8                                    	l32i.n	a14, a5, 52
    3de6:	3121c2                                    	l32i	a12, a1, 196
    3de9:	4b1c                                    	movi.n	a11, 20
    3deb:	f11581                                    	l32r	a8, 240 (3084 <hb_buf_delay>)
    3dee:	cd1c                                    	movi.n	a13, 28
    3df0:	74a8                                    	l32i.n	a10, a4, 28
    3df2:	0008e0                                    	callx8	a8
    3df5:	74b8                                    	l32i.n	a11, a4, 28
    3df7:	1e26a2                                    	l32i	a10, a6, 120
    3dfa:	1622c2                                    	l32i	a12, a2, 88
    3dfd:	1d21d2                                    	l32i	a13, a1, 116
    3e00:	1c21e2                                    	l32i	a14, a1, 112
    3e03:	8f2c                                    	movi.n	a15, 40
    3e05:	f0e541                                    	l32r	a4, 19c (255c <tx_upsample_by2_N>)
    3e08:	0004e0                                    	callx8	a4
    3e0b:	192162                                    	l32i	a6, a1, 100
    3e0e:	d5e8                                    	l32i.n	a14, a5, 52
    3e10:	3021c2                                    	l32i	a12, a1, 192
    3e13:	8b2c                                    	movi.n	a11, 40
    3e15:	f10a51                                    	l32r	a5, 240 (3084 <hb_buf_delay>)
    3e18:	9d3c                                    	movi.n	a13, 57
    3e1a:	1726a2                                    	l32i	a10, a6, 92
    3e1d:	0005e0                                    	callx8	a5
    3e20:	1622a2                                    	l32i	a10, a2, 88
    3e23:	1726b2                                    	l32i	a11, a6, 92
    3e26:	2423c2                                    	l32i	a12, a3, 144
    3e29:	2f21d2                                    	l32i	a13, a1, 188
    3e2c:	2e21e2                                    	l32i	a14, a1, 184
    3e2f:	015686                                    	j	438d <EC_block_common+0xe4d>

00003e32 <EC_block_common+0x8f2>:
    3e32:	180362                                    	l8ui	a6, a3, 24
    3e35:	3e1822                                    	l16ui	a2, a8, 124
    3e38:	2503814004a6f22e                  	{ ae_cvtp24a16x2.ll	aed0, a2, a2; l32i	a5, a1, 104 }
    3e40:	1921f2                                    	l32i	a15, a1, 100
    3e43:	0ef616                                    	beqz	a6, 3f36 <EC_block_common+0x9f6>
    3e46:	336122                                    	s32i	a2, a1, 204
    3e49:	172562                                    	l32i	a6, a5, 92
    3e4c:	442122                                    	l32i	a2, a1, 0x110
    3e4f:	286362                                    	s32i	a6, a3, 160
    3e52:	6421d2                                    	l32i	a13, a1, 0x190
    3e55:	172fa2                                    	l32i	a10, a15, 92
    3e58:	2b2152                                    	l32i	a5, a1, 172
    3e5b:	f322b2                                    	l32i	a11, a2, 0x3cc
    3e5e:	f0ee61                                    	l32r	a6, 218 (30b8 <downsample_by4>)
    3e61:	1625c2                                    	l32i	a12, a5, 88
    3e64:	0006e0                                    	callx8	a6
    3e67:	202142                                    	l32i	a4, a1, 128
    3e6a:	f422b2                                    	l32i	a11, a2, 0x3d0
    3e6d:	1625c2                                    	l32i	a12, a5, 88
    3e70:	6321d2                                    	l32i	a13, a1, 0x18c
    3e73:	8e2c                                    	movi.n	a14, 40
    3e75:	2724a2                                    	l32i	a10, a4, 156
    3e78:	0006e0                                    	callx8	a6
    3e7b:	262152                                    	l32i	a5, a1, 152
    3e7e:	6221b2                                    	l32i	a11, a1, 0x188
    3e81:	6021d2                                    	l32i	a13, a1, 0x180
    3e84:	5c0c                                    	movi.n	a12, 5
    3e86:	f0e341                                    	l32r	a4, 214 (8724 <prelim_filter3>)
    3e89:	05ad                                    	mov.n	a10, a5
    3e8b:	0004e0                                    	callx8	a4
    3e8e:	122162                                    	l32i	a6, a1, 72
    3e91:	200706441c80212e                  	{ l32i	a2, a1, 204; ae_cvt48a32	aed0, a6 }
    3e99:	230700c014a5f22e                  	{ ae_cvtp24a16x2.ll	aed2, a2, a2; nop }
    3ea1:	2283130d20022f1e                  	{ ae_s64.i	aed2, a1, 24; nop; ae_mulf48q32sp16s.l	aed1, aed0, aed2 }
    3ea9:	1e83540b3402b13e                  	{ nop; nop; ae_mulaf48q32sp16s.l	aed1, aed0, aed2 }
    3eb1:	0ead217b0d4c0ce8c30021380c01015f 	{ nop; nop; nop; ae_roundsp16q48x2asym	aed0, aed1, aed1 }
    3ec1:	0ead257b0e240cd0c400813910017f0f 	{ ae_cvta32f24s.l	a15, aed0; nop; nop; nop }
    3ed1:	1261f2                                    	s32i	a15, a1, 72
    3ed4:	001b06                                    	j	3f44 <EC_block_common+0xa04>

00003ed7 <EC_block_common+0x997>:
    3ed7:	212122                                    	l32i	a2, a1, 132
    3eda:	1e26a2                                    	l32i	a10, a6, 120
    3edd:	3421f2                                    	l32i	a15, a1, 208
    3ee0:	1d21d2                                    	l32i	a13, a1, 116
    3ee3:	1c21e2                                    	l32i	a14, a1, 112
    3ee6:	72b8                                    	l32i.n	a11, a2, 28
    3ee8:	ffc8                                    	l32i.n	a12, a15, 60
    3eea:	8f2c                                    	movi.n	a15, 40
    3eec:	f0ac21                                    	l32r	a2, 19c (255c <tx_upsample_by2_N>)
    3eef:	0002e0                                    	callx8	a2
    3ef2:	012dc6                                    	j	43ad <EC_block_common+0xe6d>

00003ef5 <EC_block_common+0x9b5>:
    3ef5:	322122                                    	l32i	a2, a1, 200
    3ef8:	1d26a2                                    	l32i	a10, a6, 116
    3efb:	2523c2                                    	l32i	a12, a3, 148
    3efe:	2321d2                                    	l32i	a13, a1, 140
    3f01:	2221e2                                    	l32i	a14, a1, 136
    3f04:	8f2c                                    	movi.n	a15, 40
    3f06:	1722b2                                    	l32i	a11, a2, 92
    3f09:	f0a441                                    	l32r	a4, 19c (255c <tx_upsample_by2_N>)
    3f0c:	0004e0                                    	callx8	a4
    3f0f:	2523a2                                    	l32i	a10, a3, 148
    3f12:	1721b2                                    	l32i	a11, a1, 92
    3f15:	3b21c2                                    	l32i	a12, a1, 236
    3f18:	8d2c                                    	movi.n	a13, 40
    3f1a:	f0af21                                    	l32r	a2, 1d8 (269c <deemph_filter_N>)
    3f1d:	0002e0                                    	callx8	a2
    3f20:	212122                                    	l32i	a2, a1, 132
    3f23:	1e26a2                                    	l32i	a10, a6, 120
    3f26:	2423c2                                    	l32i	a12, a3, 144
    3f29:	1d21d2                                    	l32i	a13, a1, 116
    3f2c:	1c21e2                                    	l32i	a14, a1, 112
    3f2f:	8f2c                                    	movi.n	a15, 40
    3f31:	72b8                                    	l32i.n	a11, a2, 28
    3f33:	011606                                    	j	438f <EC_block_common+0xe4f>

00003f36 <EC_block_common+0x9f6>:
    3f36:	262152                                    	l32i	a5, a1, 152
    3f39:	f0b641                                    	l32r	a4, 214 (8724 <prelim_filter3>)
    3f3c:	220700c000e59f1e                  	{ ae_s64.i	aed0, a1, 24; nop }
    3f44:	f0b621                                    	l32r	a2, 21c (82e4 <prelim_filter>)
    3f47:	30c1b2                                    	addi	a11, a1, 48
    3f4a:	14c1c2                                    	addi	a12, a1, 20
    3f4d:	05ad                                    	mov.n	a10, a5
    3f4f:	0002e0                                    	callx8	a2
    3f52:	6f21b2                                    	l32i	a11, a1, 0x1bc
    3f55:	6821d2                                    	l32i	a13, a1, 0x1a0
    3f58:	3c0c                                    	movi.n	a12, 3
    3f5a:	05ad                                    	mov.n	a10, a5
    3f5c:	0004e0                                    	callx8	a4
    3f5f:	6e21b2                                    	l32i	a11, a1, 0x1b8
    3f62:	6721d2                                    	l32i	a13, a1, 0x19c
    3f65:	4c0c                                    	movi.n	a12, 4
    3f67:	05ad                                    	mov.n	a10, a5
    3f69:	0004e0                                    	callx8	a4
    3f6c:	c128                                    	l32i.n	a2, a1, 48
    3f6e:	1021b2                                    	l32i	a11, a1, 64
    3f71:	6c2142                                    	l32i	a4, a1, 0x1b0
    3f74:	e168                                    	l32i.n	a6, a1, 56
    3f76:	2007024100e00f1e                  	{ ae_l64.i	aed4, a1, 24; ae_cvt48a32	aed0, a2 }
    3f7e:	0e9d468b19e1b3d0c4808e110004160f 	{ ae_cvt48a32	aed1, a6; ae_cvt48a32	aed3, a11; ae_mulf48q32sp16s.l	aed2, aed0, aed4; nop }
    3f8e:	0e1cc680f1e44d1dbf2b4ef20c24b1cf 	{ l32i	a12, a1, 0x1b4; l16si	a13, a4, 60; ae_mulf48q32sp16s.l	aed30, aed1, aed4; ae_mulf48q32sp16s.l	aed31, aed3, aed4 }
    3f9e:	0e9d241b0d440c08bd130e100c04015f 	{ nop; nop; ae_mulaf48q32sp16s.l	aed2, aed0, aed4; ae_mulaf48q32sp16s.l	aed30, aed1, aed4 }
    3fae:	1e81f4fa3064119e                  	{ l32i	a9, a1, 0x104; nop; ae_mulaf48q32sp16s.l	aed31, aed3, aed4 }
    3fb6:	3c2142                                    	l32i	a4, a1, 240
    3fb9:	0eace16924741ce8c308413804019c2f 	{ l16si	a2, a12, 72; l32i	a12, a1, 144; nop; ae_roundsp16q48x2asym	aed2, aed2, aed2 }
    3fc9:	0eacfd693e341ae8c203c1391001782f 	{ ae_cvta32f24s.l	a8, aed2; l32i	a10, a1, 156; nop; ae_roundsp16q48x2asym	aed0, aed30, aed30 }
    3fd9:	0eacfd77fe38dbe8c207e13910017e0f 	{ ae_cvta32f24s.l	a14, aed0; movi	a11, -3; nop; ae_roundsp16q48x2asym	aed1, aed31, aed31 }
    3fe9:	000003ed038300ffb6a383032460118f 	{ s32i	a8, a1, 48; ae_cvta32f24s.l	a15, aed1; nop }
    3ff9:	060c                                    	movi.n	a6, 0
    3ffb:	e1e9                                    	s32i.n	a14, a1, 56
    3ffd:	f480b0                                    	extui	a8, a11, 0, 16
    4000:	1061f2                                    	s32i	a15, a1, 64
    4003:	2ea2d7                                    	bge	a2, a13, 4035 <EC_block_common+0xaf5>
    4006:	30c122                                    	addi	a2, a1, 48
    4009:	5f21b2                                    	l32i	a11, a1, 0x17c
    400c:	f08541                                    	l32r	a4, 220 (8b30 <cali_power>)
    400f:	05ad                                    	mov.n	a10, a5
    4011:	02cd                                    	mov.n	a12, a2
    4013:	0004e0                                    	callx8	a4
    4016:	5e2142                                    	l32i	a4, a1, 0x178
    4019:	02bd                                    	mov.n	a11, a2
    401b:	f08221                                    	l32r	a2, 224 (8924 <cali_module_short>)
    401e:	05ad                                    	mov.n	a10, a5
    4020:	6794c2                                    	l16si	a12, a4, 206
    4023:	0002e0                                    	callx8	a2
    4026:	272142                                    	l32i	a4, a1, 156
    4029:	2421c2                                    	l32i	a12, a1, 144
    402c:	191422                                    	l16ui	a2, a4, 50
    402f:	1a1462                                    	l16ui	a6, a4, 52
    4032:	000406                                    	j	4046 <EC_block_common+0xb06>

00004035 <EC_block_common+0xaf5>:
    4035:	020c                                    	movi.n	a2, 0
    4037:	1b5962                                    	s16i	a6, a9, 54
    403a:	175c82                                    	s16i	a8, a12, 46
    403d:	195a62                                    	s16i	a6, a10, 50
    4040:	1a5a62                                    	s16i	a6, a10, 52
    4043:	095462                                    	s16i	a6, a4, 18
    4046:	1f2142                                    	l32i	a4, a1, 124
    4049:	052c                                    	movi.n	a5, 32
    404b:	822d                                    	ae_sext16	a2, a2
    404d:	868d                                    	ae_sext16	a8, a6
    404f:	7e1492                                    	l16ui	a9, a4, 252
    4052:	1803a2                                    	l8ui	a10, a3, 24
    4055:	612142                                    	l32i	a4, a1, 0x184
    4058:	3c21d2                                    	l32i	a13, a1, 240
    405b:	53b8                                    	l32i.n	a11, a3, 20
    405d:	63f950                                    	minu	a15, a9, a5
    4060:	c065f0                                    	sub	a6, a5, a15
    4063:	829f20                                    	mull	a9, a15, a2
    4066:	826680                                    	mull	a6, a6, a8
    4069:	669a                                    	add.n	a6, a6, a9
    406b:	6a9c                                    	beqz.n	a10, 4085 <EC_block_common+0xb45>
    406d:	081492                                    	l16ui	a9, a4, 16
    4070:	099da2                                    	l16si	a10, a13, 18
    4073:	639950                                    	minu	a9, a9, a5
    4076:	828980                                    	mull	a8, a9, a8
    4079:	c09590                                    	sub	a9, a5, a9
    407c:	8299a0                                    	mull	a9, a9, a10
    407f:	88ba                                    	add.n	a8, a8, a11
    4081:	889a                                    	add.n	a8, a8, a9
    4083:	5389                                    	s32i.n	a8, a3, 20
    4085:	412152                                    	l32i	a5, a1, 0x104
    4088:	23a8                                    	l32i.n	a10, a3, 8
    408a:	43f8                                    	l32i.n	a15, a3, 16
    408c:	179cd2                                    	l16si	a13, a12, 46
    408f:	13b8                                    	l32i.n	a11, a3, 4
    4091:	10c682                                    	addi	a8, a6, 16
    4094:	1b9592                                    	l16si	a9, a5, 54
    4097:	3358                                    	l32i.n	a5, a3, 12
    4099:	ff6a                                    	add.n	a15, a15, a6
    409b:	262162                                    	l32i	a6, a1, 152
    409e:	bbda                                    	add.n	a11, a11, a13
    40a0:	272142                                    	l32i	a4, a1, 156
    40a3:	ea9a                                    	add.n	a14, a10, a9
    40a5:	252a                                    	add.n	a2, a5, a2
    40a7:	23e9                                    	s32i.n	a14, a3, 8
    40a9:	1f21e2                                    	l32i	a14, a1, 124
    40ac:	13b9                                    	s32i.n	a11, a3, 4
    40ae:	2c21b2                                    	l32i	a11, a1, 176
    40b1:	f05d51                                    	l32r	a5, 228 (91b8 <beam1_proc>)
    40b4:	418580                                    	srli	a8, a8, 5
    40b7:	462ec2                                    	l32i	a12, a14, 0x118
    40ba:	43f9                                    	s32i.n	a15, a3, 16
    40bc:	0e0c                                    	movi.n	a14, 0
    40be:	1f0c                                    	movi.n	a15, 1
    40c0:	06ad                                    	mov.n	a10, a6
    40c2:	1a5482                                    	s16i	a8, a4, 52
    40c5:	3329                                    	s32i.n	a2, a3, 12
    40c7:	0005e0                                    	callx8	a5
    40ca:	292122                                    	l32i	a2, a1, 164
    40cd:	1994d2                                    	l16si	a13, a4, 50
    40d0:	4921b2                                    	l32i	a11, a1, 0x124
    40d3:	0e0c                                    	movi.n	a14, 0
    40d5:	0f0c                                    	movi.n	a15, 0
    40d7:	06ad                                    	mov.n	a10, a6
    40d9:	3022c2                                    	l32i	a12, a2, 192
    40dc:	0005e0                                    	callx8	a5
    40df:	252152                                    	l32i	a5, a1, 148
    40e2:	1a94d2                                    	l16si	a13, a4, 52
    40e5:	482122                                    	l32i	a2, a1, 0x120
    40e8:	0e0c                                    	movi.n	a14, 0
    40ea:	f04f81                                    	l32r	a8, 228 (91b8 <beam1_proc>)
    40ed:	0f0c                                    	movi.n	a15, 0
    40ef:	1825c2                                    	l32i	a12, a5, 96
    40f2:	06ad                                    	mov.n	a10, a6
    40f4:	02bd                                    	mov.n	a11, a2
    40f6:	0008e0                                    	callx8	a8
    40f9:	02bd                                    	mov.n	a11, a2
    40fb:	1825c2                                    	l32i	a12, a5, 96
    40fe:	1a94d2                                    	l16si	a13, a4, 52
    4101:	ae0c                                    	movi.n	a14, 10
    4103:	f04921                                    	l32r	a2, 228 (91b8 <beam1_proc>)
    4106:	0f0c                                    	movi.n	a15, 0
    4108:	06ad                                    	mov.n	a10, a6
    410a:	0002e0                                    	callx8	a2
    410d:	292122                                    	l32i	a2, a1, 164
    4110:	5c0c                                    	movi.n	a12, 5
    4112:	f04641                                    	l32r	a4, 22c (2d0c <gain_ref>)
    4115:	2f22a2                                    	l32i	a10, a2, 188
    4118:	6b2122                                    	l32i	a2, a1, 0x1ac
    411b:	1892b2                                    	l16si	a11, a2, 48
    411e:	0004e0                                    	callx8	a4
    4121:	1725a2                                    	l32i	a10, a5, 92
    4124:	1992b2                                    	l16si	a11, a2, 50
    4127:	ac0c                                    	movi.n	a12, 10
    4129:	0004e0                                    	callx8	a4
    412c:	422142                                    	l32i	a4, a1, 0x108
    412f:	efbd51                                    	l32r	a5, 24 (a5c4 <xt_memcpy>)
    4132:	1f2182                                    	l32i	a8, a1, 124
    4135:	791422                                    	l16ui	a2, a4, 242
    4138:	1f2142                                    	l32i	a4, a1, 124
    413b:	3a21e2                                    	l32i	a14, a1, 232
    413e:	06ad                                    	mov.n	a10, a6
    4140:	09f216                                    	beqz	a2, 41e3 <EC_block_common+0xca3>
    4143:	2d2122                                    	l32i	a2, a1, 180
    4146:	ac0c                                    	movi.n	a12, 10
    4148:	4624b2                                    	l32i	a11, a4, 0x118
    414b:	2822a2                                    	l32i	a10, a2, 160
    414e:	0005e0                                    	callx8	a5
    4151:	242122                                    	l32i	a2, a1, 144
    4154:	3a21e2                                    	l32i	a14, a1, 232
    4157:	050c                                    	movi.n	a5, 0
    4159:	4624c2                                    	l32i	a12, a4, 0x118
    415c:	0a91f2                                    	l16si	a15, a1, 20
    415f:	2c21b2                                    	l32i	a11, a1, 176
    4162:	1792d2                                    	l16si	a13, a2, 46
    4165:	279e22                                    	l16si	a2, a14, 78
    4168:	1159                                    	s32i.n	a5, a1, 4
    416a:	8e1c                                    	movi.n	a14, 24
    416c:	0129                                    	s32i.n	a2, a1, 0
    416e:	06ad                                    	mov.n	a10, a6
    4170:	f03021                                    	l32r	a2, 230 (9404 <beam2_proc>)
    4173:	0002e0                                    	callx8	a2
    4176:	422122                                    	l32i	a2, a1, 0x108
    4179:	2d21c2                                    	l32i	a12, a1, 180
    417c:	462462                                    	l32i	a6, a4, 0x118
    417f:	fd7c                                    	movi.n	a13, -1
    4181:	f002e1                                    	l32r	a14, 18c (7fff0000 <_end+0x7ffe2714>)
    4184:	014d10                                    	slli	a4, a13, 31
    4187:	781282                                    	l16ui	a8, a2, 240
    418a:	282c22                                    	l32i	a2, a12, 160
    418d:	af0c                                    	movi.n	a15, 10
    418f:	fec662                                    	addi	a6, a6, -2
    4192:	889d                                    	ae_sext16	a9, a8
    4194:	11a900                                    	slli	a10, a9, 16
    4197:	309940                                    	xor	a9, a9, a4
    419a:	110412420ce149ae                  	{ sub	a9, a9, a10; ae_l16m.iu	aed1, a2, 0 }
    41a2:	839e80                                    	moveqz	a9, a14, a8
    41a5:	2e8330902000199e                  	{ ae_cvtp24a16x2.lh	aed0, a9, a9; nop; nop }
    41ad:	2f8f76                                    	loop	a15, 41e0 <EC_block_common+0xca0>
    41b0:	2282280c2801216e                  	{ ae_l16m.iu	aed2, a6, 2; nop; ae_mulf32s.hh	aed1, aed0, aed1 }
    41b8:	1e834b0b3402b13e                  	{ nop; nop; ae_mulaf32s.ll	aed1, aed0, aed2 }
    41c0:	0ead217b0d4c0ce8c30421380c01015f 	{ nop; nop; nop; ae_roundsp16q48x2asym	aed1, aed1, aed1 }
    41d0:	220740c00cc5106e                  	{ ae_s16m.l.i	aed1, a6, 0; nop }
    41d8:	230760c00c85712e                  	{ ae_l16m.iu	aed1, a2, 2; nop }

000041e0 <EC_block_common+0xca0>:
    41e0:	0007c6                                    	j	4203 <EC_block_common+0xcc3>

000041e3 <EC_block_common+0xca3>:
    41e3:	2421d2                                    	l32i	a13, a1, 144
    41e6:	040c                                    	movi.n	a4, 0
    41e8:	0a91f2                                    	l16si	a15, a1, 20
    41eb:	2c21b2                                    	l32i	a11, a1, 176
    41ee:	279e22                                    	l16si	a2, a14, 78
    41f1:	4628c2                                    	l32i	a12, a8, 0x118
    41f4:	179dd2                                    	l16si	a13, a13, 46
    41f7:	1149                                    	s32i.n	a4, a1, 4
    41f9:	0129                                    	s32i.n	a2, a1, 0
    41fb:	8e1c                                    	movi.n	a14, 24
    41fd:	f00c21                                    	l32r	a2, 230 (9404 <beam2_proc>)
    4200:	0002e0                                    	callx8	a2
    4203:	292122                                    	l32i	a2, a1, 164
    4206:	ffa0f2                                    	movi	a15, 255
    4209:	272142                                    	l32i	a4, a1, 156
    420c:	050c                                    	movi.n	a5, 0
    420e:	4921b2                                    	l32i	a11, a1, 0x124
    4211:	8e1c                                    	movi.n	a14, 24
    4213:	f00781                                    	l32r	a8, 230 (9404 <beam2_proc>)
    4216:	7fdff2                                    	addmi	a15, a15, 0x7f00
    4219:	3022c2                                    	l32i	a12, a2, 192
    421c:	262122                                    	l32i	a2, a1, 152
    421f:	061c                                    	movi.n	a6, 16
    4221:	1994d2                                    	l16si	a13, a4, 50
    4224:	02ad                                    	mov.n	a10, a2
    4226:	1159                                    	s32i.n	a5, a1, 4
    4228:	0169                                    	s32i.n	a6, a1, 0
    422a:	0008e0                                    	callx8	a8
    422d:	252162                                    	l32i	a6, a1, 148
    4230:	1a94d2                                    	l16si	a13, a4, 52
    4233:	081c                                    	movi.n	a8, 16
    4235:	ffa0f2                                    	movi	a15, 255
    4238:	9e1c                                    	movi.n	a14, 25
    423a:	02ad                                    	mov.n	a10, a2
    423c:	0d03a6400886015e                  	{ s32i	a5, a1, 4; l32i	a12, a6, 96 }
    4244:	482152                                    	l32i	a5, a1, 0x120
    4247:	0189                                    	s32i.n	a8, a1, 0
    4249:	eff981                                    	l32r	a8, 230 (9404 <beam2_proc>)
    424c:	7fdff2                                    	addmi	a15, a15, 0x7f00
    424f:	05bd                                    	mov.n	a11, a5
    4251:	0008e0                                    	callx8	a8
    4254:	1a94d2                                    	l16si	a13, a4, 52
    4257:	ffa0f2                                    	movi	a15, 255
    425a:	a80c                                    	movi.n	a8, 10
    425c:	1826c2                                    	l32i	a12, a6, 96
    425f:	eff441                                    	l32r	a4, 230 (9404 <beam2_proc>)
    4262:	9e1c                                    	movi.n	a14, 25
    4264:	02ad                                    	mov.n	a10, a2
    4266:	05bd                                    	mov.n	a11, a5
    4268:	091c                                    	movi.n	a9, 16
    426a:	7fdff2                                    	addmi	a15, a15, 0x7f00
    426d:	1189                                    	s32i.n	a8, a1, 4
    426f:	0199                                    	s32i.n	a9, a1, 0
    4271:	0004e0                                    	callx8	a4
    4274:	eff041                                    	l32r	a4, 234 (980c <beam1_mid_band>)
    4277:	02ad                                    	mov.n	a10, a2
    4279:	0004e0                                    	callx8	a4
    427c:	6a2142                                    	l32i	a4, a1, 0x1a8
    427f:	ac0c                                    	movi.n	a12, 10
    4281:	692152                                    	l32i	a5, a1, 0x1a4
    4284:	3f24a2                                    	l32i	a10, a4, 252
    4287:	1795b2                                    	l16si	a11, a5, 46
    428a:	efe851                                    	l32r	a5, 22c (2d0c <gain_ref>)
    428d:	0005e0                                    	callx8	a5
    4290:	02ad                                    	mov.n	a10, a2
    4292:	efe921                                    	l32r	a2, 238 (9a44 <beam2_mid_band>)
    4295:	0002e0                                    	callx8	a2
    4298:	1f2122                                    	l32i	a2, a1, 124
    429b:	182162                                    	l32i	a6, a1, 96
    429e:	292152                                    	l32i	a5, a1, 164
    42a1:	3e24c2                                    	l32i	a12, a4, 248
    42a4:	3721d2                                    	l32i	a13, a1, 220
    42a7:	4622a2                                    	l32i	a10, a2, 0x118
    42aa:	1e26e2                                    	l32i	a14, a6, 120
    42ad:	2e25b2                                    	l32i	a11, a5, 184
    42b0:	efe381                                    	l32r	a8, 23c (2844 <synth_3band>)
    42b3:	0008e0                                    	callx8	a8
    42b6:	4822a2                                    	l32i	a10, a2, 0x120
    42b9:	3025b2                                    	l32i	a11, a5, 192
    42bc:	4024c2                                    	l32i	a12, a4, 0x100
    42bf:	1d26e2                                    	l32i	a14, a6, 116
    42c2:	4721d2                                    	l32i	a13, a1, 0x11c
    42c5:	efdd21                                    	l32r	a2, 23c (2844 <synth_3band>)
    42c8:	0002e0                                    	callx8	a2
    42cb:	180322                                    	l8ui	a2, a3, 24
    42ce:	3cf216                                    	beqz	a2, 46a1 <EC_block_common+0x1161>
    42d1:	1a2122                                    	l32i	a2, a1, 104
    42d4:	8c2c                                    	movi.n	a12, 40
    42d6:	192142                                    	l32i	a4, a1, 100
    42d9:	1822a2                                    	l32i	a10, a2, 96
    42dc:	1724b2                                    	l32i	a11, a4, 92
    42df:	ef5141                                    	l32r	a4, 24 (a5c4 <xt_memcpy>)
    42e2:	0004e0                                    	callx8	a4
    42e5:	252142                                    	l32i	a4, a1, 148
    42e8:	3121c2                                    	l32i	a12, a1, 196
    42eb:	282152                                    	l32i	a5, a1, 160
    42ee:	4b1c                                    	movi.n	a11, 20
    42f0:	cd1c                                    	movi.n	a13, 28
    42f2:	1624a2                                    	l32i	a10, a4, 88
    42f5:	d5e8                                    	l32i.n	a14, a5, 52
    42f7:	efd251                                    	l32r	a5, 240 (3084 <hb_buf_delay>)
    42fa:	0005e0                                    	callx8	a5
    42fd:	1e26a2                                    	l32i	a10, a6, 120
    4300:	1624b2                                    	l32i	a11, a4, 88
    4303:	1622c2                                    	l32i	a12, a2, 88
    4306:	1d21d2                                    	l32i	a13, a1, 116
    4309:	1c21e2                                    	l32i	a14, a1, 112
    430c:	8f2c                                    	movi.n	a15, 40
    430e:	efa351                                    	l32r	a5, 19c (255c <tx_upsample_by2_N>)
    4311:	0005e0                                    	callx8	a5
    4314:	192152                                    	l32i	a5, a1, 100
    4317:	282162                                    	l32i	a6, a1, 160
    431a:	3021c2                                    	l32i	a12, a1, 192
    431d:	8b2c                                    	movi.n	a11, 40
    431f:	efc881                                    	l32r	a8, 240 (3084 <hb_buf_delay>)
    4322:	9d3c                                    	movi.n	a13, 57
    4324:	1725a2                                    	l32i	a10, a5, 92
    4327:	d6e8                                    	l32i.n	a14, a6, 52
    4329:	0008e0                                    	callx8	a8
    432c:	1622a2                                    	l32i	a10, a2, 88
    432f:	1725b2                                    	l32i	a11, a5, 92
    4332:	2423c2                                    	l32i	a12, a3, 144
    4335:	2f21d2                                    	l32i	a13, a1, 188
    4338:	2e21e2                                    	l32i	a14, a1, 184
    433b:	0f5c                                    	movi.n	a15, 80
    433d:	ef9781                                    	l32r	a8, 19c (255c <tx_upsample_by2_N>)
    4340:	0008e0                                    	callx8	a8
    4343:	1824a2                                    	l32i	a10, a4, 96
    4346:	d6e8                                    	l32i.n	a14, a6, 52
    4348:	4021c2                                    	l32i	a12, a1, 0x100
    434b:	4b1c                                    	movi.n	a11, 20
    434d:	efbc51                                    	l32r	a5, 240 (3084 <hb_buf_delay>)
    4350:	cd1c                                    	movi.n	a13, 28
    4352:	0005e0                                    	callx8	a5
    4355:	182182                                    	l32i	a8, a1, 96
    4358:	1824b2                                    	l32i	a11, a4, 96
    435b:	1722c2                                    	l32i	a12, a2, 92
    435e:	2321d2                                    	l32i	a13, a1, 140
    4361:	2221e2                                    	l32i	a14, a1, 136
    4364:	8f2c                                    	movi.n	a15, 40
    4366:	1d28a2                                    	l32i	a10, a8, 116
    4369:	ef8c41                                    	l32r	a4, 19c (255c <tx_upsample_by2_N>)
    436c:	0004e0                                    	callx8	a4
    436f:	1822a2                                    	l32i	a10, a2, 96
    4372:	d6e8                                    	l32i.n	a14, a6, 52
    4374:	3f21c2                                    	l32i	a12, a1, 252
    4377:	8b2c                                    	movi.n	a11, 40
    4379:	9d3c                                    	movi.n	a13, 57
    437b:	0005e0                                    	callx8	a5
    437e:	1722a2                                    	l32i	a10, a2, 92
    4381:	2523c2                                    	l32i	a12, a3, 148
    4384:	1822b2                                    	l32i	a11, a2, 96
    4387:	3e21d2                                    	l32i	a13, a1, 248
    438a:	3d21e2                                    	l32i	a14, a1, 244
    438d:	0f5c                                    	movi.n	a15, 80
    438f:	0004e0                                    	callx8	a4
    4392:	180322                                    	l8ui	a2, a3, 24
    4395:	2523f2                                    	l32i	a15, a3, 148
    4398:	1e2362                                    	l32i	a6, a3, 120
    439b:	085c                                    	movi.n	a8, 80
    439d:	a0a042                                    	movi	a4, 160
    43a0:	938420                                    	movnez	a8, a4, a2
    43a3:	668a                                    	add.n	a6, a6, a8
    43a5:	2f8a                                    	add.n	a2, a15, a8
    43a7:	1e6362                                    	s32i	a6, a3, 120
    43aa:	256322                                    	s32i	a2, a3, 148
    43ad:	180322                                    	l8ui	a2, a3, 24
    43b0:	8c2c                                    	movi.n	a12, 40
    43b2:	342152                                    	l32i	a5, a1, 208
    43b5:	2723a2                                    	l32i	a10, a3, 156
    43b8:	2823b2                                    	l32i	a11, a3, 160
    43bb:	8d2c                                    	movi.n	a13, 40
    43bd:	a0a042                                    	movi	a4, 160
    43c0:	e2ac                                    	beqz.n	a2, 43f2 <EC_block_common+0xeb2>
    43c2:	ef1821                                    	l32r	a2, 24 (a5c4 <xt_memcpy>)
    43c5:	0002e0                                    	callx8	a2
    43c8:	2423a2                                    	l32i	a10, a3, 144
    43cb:	1721b2                                    	l32i	a11, a1, 92
    43ce:	5621c2                                    	l32i	a12, a1, 0x158
    43d1:	0d5c                                    	movi.n	a13, 80
    43d3:	ef8121                                    	l32r	a2, 1d8 (269c <deemph_filter_N>)
    43d6:	0002e0                                    	callx8	a2
    43d9:	1d2322                                    	l32i	a2, a3, 116
    43dc:	242362                                    	l32i	a6, a3, 144
    43df:	224a                                    	add.n	a2, a2, a4
    43e1:	664a                                    	add.n	a6, a6, a4
    43e3:	1d6322                                    	s32i	a2, a3, 116
    43e6:	902122                                    	l32i	a2, a1, 0x240
    43e9:	246362                                    	s32i	a6, a3, 144
    43ec:	8f2162                                    	l32i	a6, a1, 0x23c
    43ef:	0004c6                                    	j	4406 <EC_block_common+0xec6>

000043f2 <EC_block_common+0xeb2>:
    43f2:	1721b2                                    	l32i	a11, a1, 92
    43f5:	5621c2                                    	l32i	a12, a1, 0x158
    43f8:	f5a8                                    	l32i.n	a10, a5, 60
    43fa:	ef7721                                    	l32r	a2, 1d8 (269c <deemph_filter_N>)
    43fd:	0002e0                                    	callx8	a2
    4400:	772122                                    	l32i	a2, a1, 0x1dc
    4403:	792162                                    	l32i	a6, a1, 0x1e4
    4406:	0288                                    	l32i.n	a8, a2, 0
    4408:	0698                                    	l32i.n	a9, a6, 0
    440a:	2023a2                                    	l32i	a10, a3, 128
    440d:	1903b2                                    	l8ui	a11, a3, 25
    4410:	1a2142                                    	l32i	a4, a1, 104
    4413:	50c882                                    	addi	a8, a8, 80
    4416:	ef6051                                    	l32r	a5, 198 (24c0 <tx_downsample_by2_N>)
    4419:	50c9e2                                    	addi	a14, a9, 80
    441c:	50caf2                                    	addi	a15, a10, 80
    441f:	0289                                    	s32i.n	a8, a2, 0
    4421:	180322                                    	l8ui	a2, a3, 24
    4424:	06e9                                    	s32i.n	a14, a6, 0
    4426:	8c2c                                    	movi.n	a12, 40
    4428:	2063f2                                    	s32i	a15, a3, 128
    442b:	8d2c                                    	movi.n	a13, 40
    442d:	1bcc                                    	bnez.n	a11, 4432 <EC_block_common+0xef2>
    442f:	fd6406                                    	j	39c3 <EC_block_common+0x483>
    4432:	2323b2                                    	l32i	a11, a3, 140
    4435:	b2bc                                    	beqz.n	a2, 4474 <EC_block_common+0xf34>
    4437:	1524a2                                    	l32i	a10, a4, 84
    443a:	eefa21                                    	l32r	a2, 24 (a5c4 <xt_memcpy>)
    443d:	0002e0                                    	callx8	a2
    4440:	1b2142                                    	l32i	a4, a1, 108
    4443:	2223c2                                    	l32i	a12, a3, 136
    4446:	4e21d2                                    	l32i	a13, a1, 0x138
    4449:	4f1c                                    	movi.n	a15, 20
    444b:	5021e2                                    	l32i	a14, a1, 0x140
    444e:	b124a2                                    	l32i	a10, a4, 0x2c4
    4451:	b224b2                                    	l32i	a11, a4, 0x2c8
    4454:	0005e0                                    	callx8	a5
    4457:	5a2122                                    	l32i	a2, a1, 0x168
    445a:	960222                                    	l8ui	a2, a2, 150
    445d:	d2bc                                    	beqz.n	a2, 449e <EC_block_common+0xf5e>
    445f:	03d8                                    	l32i.n	a13, a3, 0
    4461:	1e21a2                                    	l32i	a10, a1, 120
    4464:	6621b2                                    	l32i	a11, a1, 0x198
    4467:	8c2c                                    	movi.n	a12, 40
    4469:	ef6521                                    	l32r	a2, 200 (14f8 <subband_aec_block>)
    446c:	5e0c                                    	movi.n	a14, 5
    446e:	0002e0                                    	callx8	a2
    4471:	000dc6                                    	j	44ac <EC_block_common+0xf6c>

00004474 <EC_block_common+0xf34>:
    4474:	452142                                    	l32i	a4, a1, 0x114
    4477:	1721b2                                    	l32i	a11, a1, 92
    447a:	6521c2                                    	l32i	a12, a1, 0x194
    447d:	ef5921                                    	l32r	a2, 1e4 (260c <emph_filter_N>)
    4480:	04a8                                    	l32i.n	a10, a4, 0
    4482:	0002e0                                    	callx8	a2
    4485:	1b2122                                    	l32i	a2, a1, 108
    4488:	04c8                                    	l32i.n	a12, a4, 0
    448a:	4e21d2                                    	l32i	a13, a1, 0x138
    448d:	4f1c                                    	movi.n	a15, 20
    448f:	5021e2                                    	l32i	a14, a1, 0x140
    4492:	b122a2                                    	l32i	a10, a2, 0x2c4
    4495:	b222b2                                    	l32i	a11, a2, 0x2c8
    4498:	0005e0                                    	callx8	a5
    449b:	000886                                    	j	44c1 <EC_block_common+0xf81>

0000449e <EC_block_common+0xf5e>:
    449e:	8d24a2                                    	l32i	a10, a4, 0x234
    44a1:	0b0c                                    	movi.n	a11, 0
    44a3:	ef1e21                                    	l32r	a2, 11c (a5b0 <xt_memset>)
    44a6:	28a0c2                                    	movi	a12, 40
    44a9:	0002e0                                    	callx8	a2
    44ac:	5921f2                                    	l32i	a15, a1, 0x164
    44af:	202440                                    	or	a2, a4, a4
    44b2:	8d24a2                                    	l32i	a10, a4, 0x234
    44b5:	00a0b2                                    	movi	a11, 0
    44b8:	ef5341                                    	l32r	a4, 204 (2f68 <gain_after_ec_ch5>)
    44bb:	5f9fc2                                    	l16si	a12, a15, 190
    44be:	0004e0                                    	callx8	a4
    44c1:	2b2152                                    	l32i	a5, a1, 172
    44c4:	b122a2                                    	l32i	a10, a2, 0x2c4
    44c7:	6b22d2                                    	l32i	a13, a2, 0x1ac
    44ca:	8c21b2                                    	l32i	a11, a1, 0x230
    44cd:	5b22e2                                    	l32i	a14, a2, 0x16c
    44d0:	1625c2                                    	l32i	a12, a5, 88
    44d3:	ef4d41                                    	l32r	a4, 208 (272c <analy2_3band>)
    44d6:	0004e0                                    	callx8	a4
    44d9:	4b2262                                    	l32i	a6, a2, 0x12c
    44dc:	162522                                    	l32i	a2, a5, 88
    44df:	05a042                                    	movi	a4, 5
    44e2:	fcc662                                    	addi	a6, a6, -4
    44e5:	1f8476                                    	loop	a4, 4508 <EC_block_common+0xfc8>
    44e8:	230720c004a5b92e                  	{ ae_l32x2f24.ip	aed0, a2, 8; nop }
    44f0:	0ead217b0d440cd0c50001380c01015f 	{ nop; nop; nop; ae_roundsp16f24asym	aed0, aed0 }
    4500:	220740c004c5716e                  	{ ae_s16x2m.iu	aed0, a6, 4; nop }

00004508 <EC_block_common+0xfc8>:
    4508:	1e2162                                    	l32i	a6, a1, 120
    450b:	03d8                                    	l32i.n	a13, a3, 0
    450d:	8921b2                                    	l32i	a11, a1, 0x224
    4510:	ac0c                                    	movi.n	a12, 10
    4512:	ef3b41                                    	l32r	a4, 200 (14f8 <subband_aec_block>)
    4515:	1e0c                                    	movi.n	a14, 1
    4517:	06ad                                    	mov.n	a10, a6
    4519:	0004e0                                    	callx8	a4
    451c:	03d8                                    	l32i.n	a13, a3, 0
    451e:	8b21b2                                    	l32i	a11, a1, 0x22c
    4521:	ac0c                                    	movi.n	a12, 10
    4523:	3e0c                                    	movi.n	a14, 3
    4525:	06ad                                    	mov.n	a10, a6
    4527:	0004e0                                    	callx8	a4
    452a:	5a2122                                    	l32i	a2, a1, 0x168
    452d:	7b21b2                                    	l32i	a11, a1, 0x1ec
    4530:	960222                                    	l8ui	a2, a2, 150
    4533:	c28c                                    	beqz.n	a2, 4543 <EC_block_common+0x1003>
    4535:	03d8                                    	l32i.n	a13, a3, 0
    4537:	4c1c                                    	movi.n	a12, 20
    4539:	4e0c                                    	movi.n	a14, 4
    453b:	06ad                                    	mov.n	a10, a6
    453d:	0004e0                                    	callx8	a4
    4540:	0003c6                                    	j	4553 <EC_block_common+0x1013>

00004543 <EC_block_common+0x1003>:
    4543:	1b2122                                    	l32i	a2, a1, 108
    4546:	0b0c                                    	movi.n	a11, 0
    4548:	4c1c                                    	movi.n	a12, 20
    454a:	7d22a2                                    	l32i	a10, a2, 0x1f4
    454d:	eef321                                    	l32r	a2, 11c (a5b0 <xt_memset>)
    4550:	0002e0                                    	callx8	a2
    4553:	03c8                                    	l32i.n	a12, a3, 0
    4555:	8a21b2                                    	l32i	a11, a1, 0x228
    4558:	ef2d21                                    	l32r	a2, 20c (1a10 <subband_aec_mid_channel>)
    455b:	2d0c                                    	movi.n	a13, 2
    455d:	06ad                                    	mov.n	a10, a6
    455f:	ef0e51                                    	l32r	a5, 198 (24c0 <tx_downsample_by2_N>)
    4562:	0002e0                                    	callx8	a2
    4565:	210322                                    	l8ui	a2, a3, 33
    4568:	7348                                    	l32i.n	a4, a3, 28
    456a:	0368                                    	l32i.n	a6, a3, 0
    456c:	02e247                                    	bbsi	a2, 4, 4572 <EC_block_common+0x1032>
    456f:	00e546                                    	j	4908 <EC_block_common+0x13c8>
    4572:	e27c                                    	movi.n	a2, -2
    4574:	348c                                    	beqz.n	a4, 457b <EC_block_common+0x103b>
    4576:	220c                                    	movi.n	a2, 2
    4578:	000086                                    	j	457e <EC_block_common+0x103e>

0000457b <EC_block_common+0x103b>:
    457b:	f716a6                                    	blti	a6, 1, 4576 <EC_block_common+0x1036>
    457e:	362152                                    	l32i	a5, a1, 216
    4581:	ac0c                                    	movi.n	a12, 10
    4583:	eea841                                    	l32r	a4, 24 (a5c4 <xt_memcpy>)
    4586:	1d25a2                                    	l32i	a10, a5, 116
    4589:	1f25b2                                    	l32i	a11, a5, 124
    458c:	0004e0                                    	callx8	a4
    458f:	202142                                    	l32i	a4, a1, 128
    4592:	3521e2                                    	l32i	a14, a1, 212
    4595:	0c0700430c8141de                  	{ l32i	a13, a1, 0x134; ae_movi	aed1, 0 }
    459d:	1e2562                                    	l32i	a6, a5, 120
    45a0:	7421b2                                    	l32i	a11, a1, 0x1d0
    45a3:	7021c2                                    	l32i	a12, a1, 0x1c0
    45a6:	2a2492                                    	l32i	a9, a4, 168
    45a9:	ff2e82                                    	l32i	a8, a14, 0x3fc
    45ac:	fe2da2                                    	l32i	a10, a13, 0x3f8
    45af:	5f0c                                    	movi.n	a15, 5
    45b1:	f3f6b0                                    	wur.ae_cbegin0	a11
    45b4:	f3f7c0                                    	wur.ae_cend0	a12
    45b7:	21076a401480a06e                  	{ ae_l16x2m.i	aed2, a6, 0; ae_cvt48a32	aed0, a10 }
    45bf:	440c                                    	movi.n	a4, 4
    45c1:	fcc992                                    	addi	a9, a9, -4
    45c4:	0020f0                                    	nop
    45c7:	0020f0                                    	nop
    45ca:	0020f0                                    	nop
    45cd:	5f8f76                                    	loop	a15, 4630 <EC_block_common+0x10f0>
    45d0:	0e9cc690fbe684d0c4008e201002312f 	{ ae_sel16i	aed3, aed2, aed2, 1; ae_l16x2m.xc	aed31, a8, a4; ae_mulf48q32sp16s.l	aed4, aed0, aed2; nop }
    45e0:	0e9d229b0d540c0089130ee80c03015f 	{ nop; nop; ae_mulf48q32sp16s.l	aed29, aed0, aed3; ae_mulaf48q32sp16s.l	aed4, aed0, aed2 }
    45f0:	0e1d3c1b0d5c0cfe432f4ee80c03015f 	{ nop; nop; ae_mulaf48q32sp16s.l	aed29, aed0, aed3; ae_mulssfd32s.hh.ll	aed1, aed31, aed31 }
    4600:	0ead257b0d440ce8c37881380c01015f 	{ nop; nop; nop; ae_roundsp16q48x2asym	aed30, aed4, aed4 }
    4610:	0ead3d7b0d4c0ce8c30ba1380c01015f 	{ nop; nop; nop; ae_roundsp16q48x2asym	aed2, aed29, aed29 }
    4620:	3c0071401483c16e                  	{ ae_l16x2m.iu	aed2, a6, 4; ae_sel16i	aed3, aed2, aed30, 2 }
    4628:	1c82da092063319e                  	{ ae_s16x2m.iu	aed3, a9, 4; nop; ae_mulaafd32s.hh.ll	aed1, aed3, aed3 }

00004630 <EC_block_common+0x10f0>:
    4630:	0e6cc57169f88840070021381c01614f 	{ l32i	a4, a1, 108; movi	a8, 0x2d8; nop; ae_srai64	aed0, aed1, 8 }
    4640:	442152                                    	l32i	a5, a1, 0x110
    4643:	3f03a14714d0684e                  	{ ae_l64.x	aed30, a4, a8; l32i	a14, a1, 0x10c }
    464b:	0ea4c40b99e515d0c5009e021d60f56f 	{ l32i	a6, a5, 0x3fc; l32i	a5, a1, 0x1cc; ae_add64	aed0, aed30, aed0; nop }
    465b:	0ead442bf9e063d0c50080020d60719f 	{ l32i	a9, a1, 0x174; ae_cvt48a32	aed31, a6; ae_sat48s	aed0, aed0; nop }
    466b:	0eacc57078e0fcd0c480813f1c01000f 	{ ae_max64	aed0, aed0, aed31; movi	a12, 255; nop; nop }
    467b:	230700c000a5584e                  	{ ae_s64.x	aed0, a4, a8; nop }
    4683:	098d                                    	mov.n	a8, a9
    4685:	0622d6                                    	bgez	a2, 46eb <EC_block_common+0x11ab>
    4688:	359962                                    	l16si	a6, a9, 106
    468b:	da4c                                    	movi.n	a10, 77
    468d:	5c21b2                                    	l32i	a11, a1, 0x170
    4690:	11aa00                                    	slli	a10, a10, 16
    4693:	461b                                    	addi.n	a4, a6, 1
    4695:	3926c7                                    	blt	a6, a12, 46d2 <EC_block_common+0x1192>
    4698:	349b62                                    	l16si	a6, a11, 104
    469b:	11a600                                    	slli	a10, a6, 16
    469e:	000cc6                                    	j	46d5 <EC_block_common+0x1195>

000046a1 <EC_block_common+0x1161>:
    46a1:	252142                                    	l32i	a4, a1, 148
    46a4:	1e26a2                                    	l32i	a10, a6, 120
    46a7:	2423c2                                    	l32i	a12, a3, 144
    46aa:	1d21d2                                    	l32i	a13, a1, 116
    46ad:	1c21e2                                    	l32i	a14, a1, 112
    46b0:	8f2c                                    	movi.n	a15, 40
    46b2:	1624b2                                    	l32i	a11, a4, 88
    46b5:	eeb921                                    	l32r	a2, 19c (255c <tx_upsample_by2_N>)
    46b8:	0002e0                                    	callx8	a2
    46bb:	1d26a2                                    	l32i	a10, a6, 116
    46be:	1824b2                                    	l32i	a11, a4, 96
    46c1:	2523c2                                    	l32i	a12, a3, 148
    46c4:	2321d2                                    	l32i	a13, a1, 140
    46c7:	2221e2                                    	l32i	a14, a1, 136
    46ca:	8f2c                                    	movi.n	a15, 40
    46cc:	0002e0                                    	callx8	a2
    46cf:	ff2fc6                                    	j	4392 <EC_block_common+0xe52>

000046d2 <EC_block_common+0x1192>:
    46d2:	355842                                    	s16i	a4, a8, 106
    46d5:	000003f3010300fdd1e303022c607d4f 	{ l32r	a4, 14c (7270 <airoha_divide>); ae_trunca32q48	a11, aed0; nop }
    46e5:	0004e0                                    	callx8	a4
    46e8:	4321e2                                    	l32i	a14, a1, 0x10c
    46eb:	3621d2                                    	l32i	a13, a1, 216
    46ee:	202142                                    	l32i	a4, a1, 128
    46f1:	20070b450c8021fe                  	{ l32i	a15, a1, 212; ae_cvt48a32	aed0, a11 }
    46f9:	a90c                                    	movi.n	a9, 10
    46fb:	1d2dc2                                    	l32i	a12, a13, 116
    46fe:	2a2462                                    	l32i	a6, a4, 168
    4701:	1f2dd2                                    	l32i	a13, a13, 124
    4704:	ff2f82                                    	l32i	a8, a15, 0x3fc
    4707:	044c                                    	movi.n	a4, 64
    4709:	fec6b2                                    	addi	a11, a6, -2
    470c:	feccc2                                    	addi	a12, a12, -2
    470f:	fecd62                                    	addi	a6, a13, -2
    4712:	04c5d2                                    	addi	a13, a5, 4
    4715:	3904fe400c8261be                  	{ ae_l16m.iu	aed1, a11, 2; ae_l32f24.i	aed2, a14, -32 }
    471d:	0d02cd400cc1378e                  	{ ae_s16m.l.xc	aed1, a8, a7; addi	a13, a13, 4 }
    4725:	230760c00c8571ce                  	{ ae_l16m.iu	aed1, a12, 2; nop }
    472d:	220740c008e5112e                  	{ ae_cvtq56p32s.l	aed1, aed1; nop }
    4735:	0f8476                                    	loop	a4, 4748 <EC_block_common+0x1208>
    4738:	230760c01c85978e                  	{ ae_l16m.xc	aed3, a8, a7; nop }
    4740:	2682920a204321de                  	{ ae_l32f24.ip	aed2, a13, 4; nop; ae_mulsf32s.ll	aed1, aed2, aed3 }

00004748 <EC_block_common+0x1208>:
    4748:	0ead217b0c6c0ce8c2042138040115df 	{ addi	a13, a5, 4; nop; nop; ae_roundsp16q48x2asym	aed1, aed1, aed1 }
    4758:	2282b30f3001116e                  	{ ae_s16m.l.iu	aed1, a6, 2; nop; ae_mulf48q32sp16s.l	aed1, aed0, aed1 }
    4760:	dd4b                                    	addi.n	a13, a13, 4
    4762:	0422d6                                    	bgez	a2, 47a8 <EC_block_common+0x1268>
    4765:	38049e4010a24a1e                  	{ ae_slaasq56s	aed1, aed1, a10; ae_l32f24.i	aed2, a14, -32 }
    476d:	0020f0                                    	nop
    4770:	0ead217b0d2c0c98c30421380401d40f 	{ loop	a4, 47a8 <EC_block_common+0x1268>; nop; nop; ae_round24x2f48sasym	aed1, aed1, aed1 }
    4780:	3604584100e3122e                  	{ ae_cvtq56p32s.l	aed4, aed2; ae_l16m.xc	aed3, a8, a7 }
    4788:	1e828b2220232fde                  	{ ae_l32f24.ip	aed2, a13, -4; nop; ae_mulaf32s.ll	aed4, aed1, aed3 }
    4790:	0ead057b08e40cd0c48081390401e34f 	{ ae_round24x2f48sasym	aed3, aed4, aed4; nop; nop; nop }
    47a0:	220760c018c572de                  	{ ae_s32f24.l.ip	aed3, a13, 8; nop }

000047a8 <EC_block_common+0x1268>:
    47a8:	990b                                    	addi.n	a9, a9, -1
    47aa:	d54b                                    	addi.n	a13, a5, 4
    47ac:	f65956                                    	bnez	a9, 4715 <EC_block_common+0x11d5>
    47af:	362142                                    	l32i	a4, a1, 216
    47b2:	5f0c                                    	movi.n	a15, 5
    47b4:	0d07404004a14c0e                  	{ ae_movi	aed0, 0; ae_movi	aed1, 0 }
    47bc:	3521e2                                    	l32i	a14, a1, 212
    47bf:	1d24b2                                    	l32i	a11, a4, 116
    47c2:	1f24a2                                    	l32i	a10, a4, 124
    47c5:	ff6e82                                    	s32i	a8, a14, 0x3fc
    47c8:	fccb62                                    	addi	a6, a11, -4
    47cb:	fcca82                                    	addi	a8, a10, -4
    47ce:	178f76                                    	loop	a15, 47e9 <EC_block_common+0x12a9>
    47d1:	200478c01483d16e                  	{ ae_l16x2m.iu	aed2, a6, 4; ae_l16x2m.iu	aed3, a8, 4 }
    47d9:	0e1523fb0d540c16012b38080c63015f 	{ nop; nop; ae_mulaafd32s.hh.ll	aed1, aed3, aed3; ae_mulaafd32s.hh.ll	aed0, aed2, aed2 }

000047e9 <EC_block_common+0x12a9>:
    47e9:	0e6cc17001f9ac608600213a14016f5f 	{ l32r	a5, 198 (24c0 <tx_downsample_by2_N>); movi	a12, 10; nop; ae_srai64	aed2, aed1, 4 }
    47f9:	0ea5043b09e50cd0c400811214810e4f 	{ l32r	a4, 24 (a5c4 <xt_memcpy>); nop; ae_sub64	aed1, aed1, aed2; nop }
    4809:	0ead057b08c40cd0c50081380801040f 	{ ae_lt64	b0, aed0, aed1; nop; nop; nop }
    4819:	020076                                    	bf	b0, 481f <EC_block_common+0x12df>
    481c:	0004e0                                    	callx8	a4

0000481f <EC_block_common+0x12df>:
    481f:	1b2142                                    	l32i	a4, a1, 108
    4822:	e0a262                                    	movi	a6, 0x2e0
    4825:	0c074040108000fe                  	{ movi	a15, 32; ae_movi	aed0, 0 }
    482d:	2703a14008dca64e                  	{ ae_l32x2f24.x	aed1, a4, a6; l32i	a6, a1, 0x1c8 }
    4835:	078f76                                    	loop	a15, 4840 <EC_block_common+0x1300>
    4838:	1c827a002821136e                  	{ ae_l32x2f24.ip	aed1, a6, 8; nop; ae_mulaafd32s.hh.ll	aed0, aed1, aed1 }

00004840 <EC_block_common+0x1300>:
    4840:	0e6d016411f81f500700013a0c01318f 	{ l32i	a8, a1, 0x134; ae_l64.i	aed2, a1, 32; nop; ae_srai64	aed0, aed0, 2 }
    4850:	0ead017b09e50cd0c404413a1c017d4f 	{ l32r	a4, 244 (6ffff <_end+0x62713>); nop; nop; ae_roundsq32f48asym	aed1, aed0 }
    4860:	ff2862                                    	l32i	a6, a8, 0x3fc
    4863:	2107064018e0071e                  	{ ae_l64.i	aed3, a1, 40; ae_cvt48a32	aed0, a6 }
    486b:	0502d6                                    	bgez	a2, 48bf <EC_block_common+0x137f>
    486e:	0e9ce690052076d0c4008e0b0c02621f 	{ ae_trunca32q48	a2, aed1; movi	a6, 7; ae_mulf48q32sp16s.l	aed1, aed0, aed2; nop }
    487e:	119600                                    	slli	a9, a6, 16
    4881:	1e0014093c02c42e                  	{ blt.w15	a4, a2, 4894 <EC_block_common+0x1354>; nop; ae_mulaf48q32sp16s.l	aed1, aed0, aed2 }
    4889:	228353033403b13e                  	{ nop; nop; ae_mulf48q32sp16s.l	aed0, aed0, aed3 }
    4891:	000286                                    	j	489f <EC_block_common+0x135f>

00004894 <EC_block_common+0x1354>:
    4894:	071297                                    	beq	a2, a9, 489f <EC_block_common+0x135f>
    4897:	220740c000e5116e                  	{ ae_mov	aed0, aed1; nop }
    489f:	0ead217b0d440cd0c50041380c01015f 	{ nop; nop; nop; ae_roundsq32f48asym	aed0, aed0 }
    48af:	0ead257b0d240cd0c400813b0c01660f 	{ ae_trunca32q48	a6, aed0; nop; nop; nop }
    48bf:	ee2141                                    	l32r	a4, 144 (b540 <immediate_num>)
    48c2:	1d0c                                    	movi.n	a13, 1
    48c4:	fe2822                                    	l32i	a2, a8, 0x3f8
    48c7:	1b21e2                                    	l32i	a14, a1, 108
    48ca:	2107224010a20dbe                  	{ slli	a2, a13, 21; ae_cvt48a32	aed2, a2 }
    48d2:	2306e6c00c88a54e                  	{ ae_l16x2m.i	aed1, a4, 20; max	a2, a6, a2 }
    48da:	228113102841411e                  	{ ae_sel16i	aed1, aed1, aed1, 1; nop; ae_mulf48q32sp16s.l	aed2, aed2, aed1 }
    48e2:	60a4f2                                    	movi	a15, 0x460
    48e5:	ff6822                                    	s32i	a2, a8, 0x3fc
    48e8:	1e8354133401b13e                  	{ nop; nop; ae_mulaf48q32sp16s.l	aed2, aed0, aed1 }
    48f0:	0ead217b0d540cd0c50041380c01015f 	{ nop; nop; nop; ae_roundsq32f48asym	aed0, aed2 }
    4900:	220760c000c5dfee                  	{ ae_s32m.x	aed0, a14, a15; nop }
    4908:	1b2142                                    	l32i	a4, a1, 108
    490b:	592162                                    	l32i	a6, a1, 0x164
    490e:	ee4021                                    	l32r	a2, 210 (2a1c <gain_after_ec>)
    4911:	0e0c                                    	movi.n	a14, 0
    4913:	4d24a2                                    	l32i	a10, a4, 0x134
    4916:	5f96f2                                    	l16si	a15, a6, 190
    4919:	6d24b2                                    	l32i	a11, a4, 0x1b4
    491c:	7d24c2                                    	l32i	a12, a4, 0x1f4
    491f:	5d24d2                                    	l32i	a13, a4, 0x174
    4922:	0002e0                                    	callx8	a2
    4925:	4d24a2                                    	l32i	a10, a4, 0x134
    4928:	b324e2                                    	l32i	a14, a4, 0x2cc
    492b:	6d24b2                                    	l32i	a11, a4, 0x1b4
    492e:	8821d2                                    	l32i	a13, a1, 0x220
    4931:	5d24c2                                    	l32i	a12, a4, 0x174
    4934:	ee4221                                    	l32r	a2, 23c (2844 <synth_3band>)
    4937:	0002e0                                    	callx8	a2
    493a:	862122                                    	l32i	a2, a1, 0x218
    493d:	d20662                                    	l8ui	a6, a6, 210
    4940:	180382                                    	l8ui	a8, a3, 24
    4943:	b324a2                                    	l32i	a10, a4, 0x2cc
    4946:	4c21d2                                    	l32i	a13, a1, 0x130
    4949:	7d24b2                                    	l32i	a11, a4, 0x1f4
    494c:	689222                                    	l16si	a2, a2, 208
    494f:	046360                                    	extui	a6, a6, 3, 1
    4952:	4f21e2                                    	l32i	a14, a1, 0x13c
    4955:	2623c2                                    	l32i	a12, a3, 152
    4958:	609020                                    	neg	a9, a2
    495b:	8f2c                                    	movi.n	a15, 40
    495d:	839260                                    	moveqz	a9, a2, a6
    4960:	1a2162                                    	l32i	a6, a1, 104
    4963:	1129c0                                    	slli	a2, a9, 4
    4966:	18cc                                    	bnez.n	a8, 496b <EC_block_common+0x142b>
    4968:	fc0586                                    	j	3982 <EC_block_common+0x442>
    496b:	ee0c81                                    	l32r	a8, 19c (255c <tx_upsample_by2_N>)
    496e:	336122                                    	s32i	a2, a1, 204
    4971:	1926c2                                    	l32i	a12, a6, 100
    4974:	052d                                    	mov.n	a2, a5
    4976:	085d                                    	mov.n	a5, a8
    4978:	0008e0                                    	callx8	a8
    497b:	1926a2                                    	l32i	a10, a6, 100
    497e:	8d24b2                                    	l32i	a11, a4, 0x234
    4981:	2623c2                                    	l32i	a12, a3, 152
    4984:	7c21d2                                    	l32i	a13, a1, 0x1f0
    4987:	7a21e2                                    	l32i	a14, a1, 0x1e8
    498a:	0f5c                                    	movi.n	a15, 80
    498c:	065c                                    	movi.n	a6, 80
    498e:	0005e0                                    	callx8	a5
    4991:	025d                                    	mov.n	a5, a2
    4993:	2623a2                                    	l32i	a10, a3, 152
    4996:	3321b2                                    	l32i	a11, a1, 204
    4999:	0c5c                                    	movi.n	a12, 80
    499b:	ee1121                                    	l32r	a2, 1e0 (572c <vector_gain_Q9_15>)
    499e:	0002e0                                    	callx8	a2
    49a1:	2623a2                                    	l32i	a10, a3, 152
    49a4:	1721b2                                    	l32i	a11, a1, 92
    49a7:	5121c2                                    	l32i	a12, a1, 0x144
    49aa:	0d5c                                    	movi.n	a13, 80
    49ac:	ee0b21                                    	l32r	a2, 1d8 (269c <deemph_filter_N>)
    49af:	0002e0                                    	callx8	a2
    49b2:	222322                                    	l32i	a2, a3, 136
    49b5:	50c222                                    	addi	a2, a2, 80
    49b8:	226322                                    	s32i	a2, a3, 136
    49bb:	7d2122                                    	l32i	a2, a1, 0x1f4
    49be:	fbfc46                                    	j	39b3 <EC_block_common+0x473>

000049c1 <EC_block_common+0x1481>:
    49c1:	f01d                                    	retw.n

000049c3 <EC_block_common+0x1483>:
	...

000049c4 <sum_commom>:
    49c4:	004136                                    	entry	a1, 32
    49c7:	092352                                    	l32i	a5, a3, 36
    49ca:	01a042                                    	movi	a4, 1
    49cd:	aca662                                    	movi	a6, 0x6ac
    49d0:	114420                                    	slli	a4, a4, 14
    49d3:	b06660                                    	addx8	a6, a6, a6
    49d6:	c1a372                                    	movi	a7, 0x3c1
    49d9:	3b2457                                    	blt	a4, a5, 4a18 <sum_commom+0x54>
    49dc:	1157c0                                    	slli	a5, a7, 4
    49df:	806260                                    	add	a6, a2, a6
    49e2:	0604284000c0b25e                  	{ ae_l32m.xu	aed0, a5, a2; movi	a7, 8 }
    49ea:	04c662                                    	addi	a6, a6, 4
    49ed:	278776                                    	loop	a7, 4a18 <sum_commom+0x54>
    49f0:	0ead257b09040cd0c580813a0c01010f 	{ ae_srai64	aed0, aed0, 1; nop; nop; nop }
    4a00:	0eacc57900e451d0c48081380401e10f 	{ ae_round24x2f48sasym	aed1, aed0, aed0; ae_l32m.iu	aed0, a5, 4; nop; nop }
    4a10:	220760c008c5716e                  	{ ae_s32f24.l.ip	aed1, a6, 4; nop }

00004a18 <sum_commom+0x54>:
    4a18:	6ca062                                    	movi	a6, 108
    4a1b:	c358                                    	l32i.n	a5, a3, 48
    4a1d:	3cd662                                    	addmi	a6, a6, 0x3c00
    4a20:	626a                                    	add.n	a6, a2, a6
    4a22:	c7a372                                    	movi	a7, 0x3c7
    4a25:	3f2457                                    	blt	a4, a5, 4a68 <sum_commom+0xa4>
    4a28:	1157c0                                    	slli	a5, a7, 4
    4a2b:	870c                                    	movi.n	a7, 8
    4a2d:	0602a64000c1a25e                  	{ ae_l32m.xu	aed0, a5, a2; addi	a6, a6, 4 }
    4a35:	230720c318e5747e                  	{ nop; nop }
    4a3d:	278776                                    	loop	a7, 4a68 <sum_commom+0xa4>
    4a40:	0ead257b09040cd0c580813a0c01010f 	{ ae_srai64	aed0, aed0, 1; nop; nop; nop }
    4a50:	0eacc57900e451d0c48081380401e10f 	{ ae_round24x2f48sasym	aed1, aed0, aed0; ae_l32m.iu	aed0, a5, 4; nop; nop }
    4a60:	220760c008c5716e                  	{ ae_s32f24.l.ip	aed1, a6, 4; nop }
    4a68:	c62c                                    	movi.n	a6, 44
    4a6a:	b358                                    	l32i.n	a5, a3, 44
    4a6c:	3cd662                                    	addmi	a6, a6, 0x3c00
    4a6f:	626a                                    	add.n	a6, a2, a6
    4a71:	c3a372                                    	movi	a7, 0x3c3
    4a74:	402457                                    	blt	a4, a5, 4ab8 <sum_commom+0xf4>
    4a77:	1157c0                                    	slli	a5, a7, 4
    4a7a:	870c                                    	movi.n	a7, 8
    4a7c:	0602a64000c1a25e                  	{ ae_l32m.xu	aed0, a5, a2; addi	a6, a6, 4 }
    4a84:	0020f0                                    	nop
    4a87:	0020f0                                    	nop
    4a8a:	0020f0                                    	nop
    4a8d:	278776                                    	loop	a7, 4ab8 <sum_commom+0xf4>
    4a90:	0ead257b09040cd0c580813a0c01010f 	{ ae_srai64	aed0, aed0, 1; nop; nop; nop }
    4aa0:	0eacc57900e451d0c48081380401e10f 	{ ae_round24x2f48sasym	aed1, aed0, aed0; ae_l32m.iu	aed0, a5, 4; nop; nop }
    4ab0:	220760c008c5716e                  	{ ae_s32f24.l.ip	aed1, a6, 4; nop }
    4ab8:	180352                                    	l8ui	a5, a3, 24
    4abb:	cca072                                    	movi	a7, 204
    4abe:	102362                                    	l32i	a6, a3, 64
    4ac1:	2da782                                    	movi	a8, 0x72d
    4ac4:	72d792                                    	addmi	a9, a7, 0x7200
    4ac7:	729a                                    	add.n	a7, a2, a9
    4ac9:	0eb516                                    	beqz	a5, 4bb8 <sum_commom+0x1f4>
    4acc:	774b                                    	addi.n	a7, a7, 4
    4ace:	462467                                    	blt	a4, a6, 4b18 <sum_commom+0x154>
    4ad1:	1168c0                                    	slli	a6, a8, 4
    4ad4:	880c                                    	movi.n	a8, 8
    4ad6:	220720c000c5b26e                  	{ ae_l32m.xu	aed0, a6, a2; nop }
    4ade:	230720c318e5747e                  	{ nop; nop }
    4ae6:	0020f0                                    	nop
    4ae9:	f03d                                    	nop.n
    4aeb:	f03d                                    	nop.n
    4aed:	278876                                    	loop	a8, 4b18 <sum_commom+0x154>
    4af0:	0ead257b09040cd0c580813a0c01010f 	{ ae_srai64	aed0, aed0, 1; nop; nop; nop }
    4b00:	0eacc57900e461d0c48081380401e10f 	{ ae_round24x2f48sasym	aed1, aed0, aed0; ae_l32m.iu	aed0, a6, 4; nop; nop }
    4b10:	220760c008c5717e                  	{ ae_s32f24.l.ip	aed1, a7, 4; nop }
    4b18:	c74c                                    	movi.n	a7, 76
    4b1a:	132362                                    	l32i	a6, a3, 76
    4b1d:	73d772                                    	addmi	a7, a7, 0x7300
    4b20:	727a                                    	add.n	a7, a2, a7
    4b22:	35a782                                    	movi	a8, 0x735
    4b25:	3f2467                                    	blt	a4, a6, 4b68 <sum_commom+0x1a4>
    4b28:	1168c0                                    	slli	a6, a8, 4
    4b2b:	880c                                    	movi.n	a8, 8
    4b2d:	0602a74000c1b26e                  	{ ae_l32m.xu	aed0, a6, a2; addi	a7, a7, 4 }
    4b35:	230720c318e5747e                  	{ nop; nop }
    4b3d:	278876                                    	loop	a8, 4b68 <sum_commom+0x1a4>
    4b40:	0ead257b09040cd0c580813a0c01010f 	{ ae_srai64	aed0, aed0, 1; nop; nop; nop }
    4b50:	0eacc57900e461d0c48081380401e10f 	{ ae_round24x2f48sasym	aed1, aed0, aed0; ae_l32m.iu	aed0, a6, 4; nop; nop }
    4b60:	220760c008c5717e                  	{ ae_s32f24.l.ip	aed1, a7, 4; nop }
    4b68:	c70c                                    	movi.n	a7, 12
    4b6a:	122362                                    	l32i	a6, a3, 72
    4b6d:	73d772                                    	addmi	a7, a7, 0x7300
    4b70:	727a                                    	add.n	a7, a2, a7
    4b72:	31a782                                    	movi	a8, 0x731
    4b75:	3f2467                                    	blt	a4, a6, 4bb8 <sum_commom+0x1f4>
    4b78:	1168c0                                    	slli	a6, a8, 4
    4b7b:	880c                                    	movi.n	a8, 8
    4b7d:	0602a74000c1b26e                  	{ ae_l32m.xu	aed0, a6, a2; addi	a7, a7, 4 }
    4b85:	230720c318e5747e                  	{ nop; nop }
    4b8d:	278876                                    	loop	a8, 4bb8 <sum_commom+0x1f4>
    4b90:	0ead257b09040cd0c580813a0c01010f 	{ ae_srai64	aed0, aed0, 1; nop; nop; nop }
    4ba0:	0eacc57900e461d0c48081380401e10f 	{ ae_round24x2f48sasym	aed1, aed0, aed0; ae_l32m.iu	aed0, a6, 4; nop; nop }
    4bb0:	220760c008c5717e                  	{ ae_s32f24.l.ip	aed1, a7, 4; nop }
    4bb8:	0d1362                                    	l16ui	a6, a3, 26
    4bbb:	c84c                                    	movi.n	a8, 76
    4bbd:	a378                                    	l32i.n	a7, a3, 40
    4bbf:	3cd892                                    	addmi	a9, a8, 0x3c00
    4bc2:	880c                                    	movi.n	a8, 8
    4bc4:	a29a                                    	add.n	a10, a2, a9
    4bc6:	022626                                    	beqi	a6, 2, 4bcc <sum_commom+0x208>
    4bc9:	006a46                                    	j	4d76 <sum_commom+0x3b2>
    4bcc:	c5a362                                    	movi	a6, 0x3c5
    4bcf:	352477                                    	blt	a4, a7, 4c08 <sum_commom+0x244>
    4bd2:	1166c0                                    	slli	a6, a6, 4
    4bd5:	0602aa4000c1b26e                  	{ ae_l32m.xu	aed0, a6, a2; addi	a7, a10, 4 }
    4bdd:	278876                                    	loop	a8, 4c08 <sum_commom+0x244>
    4be0:	0ead257b09040cd0c580813a0c01010f 	{ ae_srai64	aed0, aed0, 1; nop; nop; nop }
    4bf0:	0eacc57900e461d0c48081380401e10f 	{ ae_round24x2f48sasym	aed1, aed0, aed0; ae_l32m.iu	aed0, a6, 4; nop; nop }
    4c00:	220760c008c5717e                  	{ ae_s32f24.l.ip	aed1, a7, 4; nop }
    4c08:	8ca072                                    	movi	a7, 140
    4c0b:	d368                                    	l32i.n	a6, a3, 52
    4c0d:	3cd772                                    	addmi	a7, a7, 0x3c00
    4c10:	727a                                    	add.n	a7, a2, a7
    4c12:	c9a382                                    	movi	a8, 0x3c9
    4c15:	3f2467                                    	blt	a4, a6, 4c58 <sum_commom+0x294>
    4c18:	1168c0                                    	slli	a6, a8, 4
    4c1b:	880c                                    	movi.n	a8, 8
    4c1d:	0602a74000c1b26e                  	{ ae_l32m.xu	aed0, a6, a2; addi	a7, a7, 4 }
    4c25:	230720c318e5747e                  	{ nop; nop }
    4c2d:	278876                                    	loop	a8, 4c58 <sum_commom+0x294>
    4c30:	0ead257b09040cd0c580813a0c01010f 	{ ae_srai64	aed0, aed0, 1; nop; nop; nop }
    4c40:	0eacc57900e461d0c48081380401e10f 	{ ae_round24x2f48sasym	aed1, aed0, aed0; ae_l32m.iu	aed0, a6, 4; nop; nop }
    4c50:	220760c008c5717e                  	{ ae_s32f24.l.ip	aed1, a7, 4; nop }
    4c58:	4378                                    	l32i.n	a7, a3, 16
    4c5a:	a5a762                                    	movi	a6, 0x7a5
    4c5d:	112382                                    	l32i	a8, a3, 68
    4c60:	1166d0                                    	slli	a6, a6, 3
    4c63:	10c772                                    	addi	a7, a7, 16
    4c66:	890c                                    	movi.n	a9, 8
    4c68:	217570                                    	srai	a7, a7, 5
    4c6b:	4379                                    	s32i.n	a7, a3, 16
    4c6d:	eca072                                    	movi	a7, 236
    4c70:	72d772                                    	addmi	a7, a7, 0x7200
    4c73:	09b516                                    	beqz	a5, 4d12 <sum_commom+0x34e>
    4c76:	2fa752                                    	movi	a5, 0x72f
    4c79:	3b2487                                    	blt	a4, a8, 4cb8 <sum_commom+0x2f4>
    4c7c:	1155c0                                    	slli	a5, a5, 4
    4c7f:	727a                                    	add.n	a7, a2, a7
    4c81:	0602a74000c1b25e                  	{ ae_l32m.xu	aed0, a5, a2; addi	a7, a7, 4 }
    4c89:	f03d                                    	nop.n
    4c8b:	f03d                                    	nop.n
    4c8d:	278976                                    	loop	a9, 4cb8 <sum_commom+0x2f4>
    4c90:	0ead257b09040cd0c580813a0c01010f 	{ ae_srai64	aed0, aed0, 1; nop; nop; nop }
    4ca0:	0eacc57900e451d0c48081380401e10f 	{ ae_round24x2f48sasym	aed1, aed0, aed0; ae_l32m.iu	aed0, a5, 4; nop; nop }
    4cb0:	220760c008c5717e                  	{ ae_s32f24.l.ip	aed1, a7, 4; nop }
    4cb8:	6ca072                                    	movi	a7, 108
    4cbb:	142352                                    	l32i	a5, a3, 80
    4cbe:	73d792                                    	addmi	a9, a7, 0x7300
    4cc1:	870c                                    	movi.n	a7, 8
    4cc3:	a29a                                    	add.n	a10, a2, a9
    4cc5:	37a782                                    	movi	a8, 0x737
    4cc8:	3c2457                                    	blt	a4, a5, 4d08 <sum_commom+0x344>
    4ccb:	1148c0                                    	slli	a4, a8, 4
    4cce:	0402aa4000c1b24e                  	{ ae_l32m.xu	aed0, a4, a2; addi	a5, a10, 4 }
    4cd6:	0020f0                                    	nop
    4cd9:	f03d                                    	nop.n
    4cdb:	f03d                                    	nop.n
    4cdd:	278776                                    	loop	a7, 4d08 <sum_commom+0x344>
    4ce0:	0ead257b09040cd0c580813a0c01010f 	{ ae_srai64	aed0, aed0, 1; nop; nop; nop }
    4cf0:	0eacc57900e441d0c48081380401e10f 	{ ae_round24x2f48sasym	aed1, aed0, aed0; ae_l32m.iu	aed0, a4, 4; nop; nop }
    4d00:	220760c008c5715e                  	{ ae_s32f24.l.ip	aed1, a5, 4; nop }
    4d08:	5348                                    	l32i.n	a4, a3, 20
    4d0a:	10c442                                    	addi	a4, a4, 16
    4d0d:	214540                                    	srai	a4, a4, 5
    4d10:	5349                                    	s32i.n	a4, a3, 20

00004d12 <sum_commom+0x34e>:
    4d12:	3dd242                                    	addmi	a4, a2, 0x3d00
    4d15:	a26a                                    	add.n	a10, a2, a6
    4d17:	1b9442                                    	l16si	a4, a4, 54
    4d1a:	3ed252                                    	addmi	a5, a2, 0x3e00
    4d1d:	440b                                    	addi.n	a4, a4, -1
    4d1f:	3dd262                                    	addmi	a6, a2, 0x3d00
    4d22:	944d                                    	ae_zext16	a4, a4
    4d24:	170c                                    	movi.n	a7, 1
    4d26:	3b24f6                                    	bgeui	a4, 2, 4d65 <sum_commom+0x3a1>
    4d29:	1e9542                                    	l16si	a4, a5, 60
    4d2c:	117700                                    	slli	a7, a7, 16
    4d2f:	3224a6                                    	blti	a4, 2, 4d65 <sum_commom+0x3a1>
    4d32:	f49642                                    	l16si	a4, a6, 0x1e8
    4d35:	ff9652                                    	l16si	a5, a6, 0x1fe
    4d38:	160c                                    	movi.n	a6, 1
    4d3a:	13b8                                    	l32i.n	a11, a3, 4
    4d3c:	116610                                    	slli	a6, a6, 15
    4d3f:	2388                                    	l32i.n	a8, a3, 8
    4d41:	d14540                                    	mul16s	a4, a5, a4
    4d44:	33c8                                    	l32i.n	a12, a3, 12
    4d46:	909440                                    	addx2	a9, a4, a4
    4d49:	646a                                    	add.n	a6, a4, a6
    4d4b:	40d442                                    	addmi	a4, a4, 0x4000
    4d4e:	797a                                    	add.n	a7, a9, a7
    4d50:	214f40                                    	srai	a4, a4, 15
    4d53:	316060                                    	srai	a6, a6, 16
    4d56:	31e170                                    	srai	a14, a7, 17
    4d59:	44ba                                    	add.n	a4, a4, a11
    4d5b:	dc6a                                    	add.n	a13, a12, a6
    4d5d:	fe8a                                    	add.n	a15, a14, a8
    4d5f:	1349                                    	s32i.n	a4, a3, 4
    4d61:	33d9                                    	s32i.n	a13, a3, 12
    4d63:	23f9                                    	s32i.n	a15, a3, 8
    4d65:	ed3831                                    	l32r	a3, 248 (8fb8 <mag_calibration>)
    4d68:	3dd222                                    	addmi	a2, a2, 0x3d00
    4d6b:	0003e0                                    	callx8	a3
    4d6e:	030c                                    	movi.n	a3, 0
    4d70:	1d6232                                    	s32i	a3, a2, 116
    4d73:	1e6232                                    	s32i	a3, a2, 120
    4d76:	f01d                                    	retw.n

00004d78 <avc_commom>:
    4d78:	006136                                    	entry	a1, 48
    4d7b:	faa062                                    	movi	a6, 250
    4d7e:	f8a052                                    	movi	a5, 248
    4d81:	41d662                                    	addmi	a6, a6, 0x4100
    4d84:	42d552                                    	addmi	a5, a5, 0x4200
    4d87:	240562400481b26e                  	{ ae_l16m.xu	aed0, a6, a2; ae_l32m.x	aed1, a2, a5 }
    4d8f:	2281b306302022de                  	{ addmi	a13, a2, 0x4200; nop; ae_mulf48q32sp16s.l	aed0, aed1, aed0 }
    4d97:	d8a082                                    	movi	a8, 216
    4d9a:	ede8                                    	l32i.n	a14, a13, 56
    4d9c:	41d882                                    	addmi	a8, a8, 0x4100
    4d9f:	1e02f24000ddb21e                  	{ ae_s32m.i	aed0, a1, 8; addmi	a15, a2, 0x7500 }
    4da7:	2198                                    	l32i.n	a9, a1, 8
    4da9:	a28a                                    	add.n	a10, a2, a8
    4dab:	ed2871                                    	l32r	a7, 24c (1d54 <dt_detect>)
    4dae:	242f52                                    	l32i	a5, a15, 144
    4db1:	53be90                                    	max	a11, a14, a9
    4db4:	0007e0                                    	callx8	a7
    4db7:	22d272                                    	addmi	a7, a2, 0x2200
    4dba:	41d282                                    	addmi	a8, a2, 0x4100
    4dbd:	279772                                    	l16si	a7, a7, 78
    4dc0:	fca092                                    	movi	a9, 252
    4dc3:	6d9882                                    	l16si	a8, a8, 218
    4dc6:	42d9a2                                    	addmi	a10, a9, 0x4200
    4dc9:	ffa0c2                                    	movi	a12, 255
    4dcc:	5ca7b2                                    	movi	a11, 0x75c
    4dcf:	ecefd1                                    	l32r	a13, 18c (7fff0000 <_end+0x7ffe2714>)
    4dd2:	21070d020800487e                  	{ bge.w15	a8, a7, 4de0 <avc_commom+0x68>; ae_cvt48a32	aed0, a13 }
    4dda:	7fdc82                                    	addmi	a8, a12, 0x7f00
    4ddd:	0009c6                                    	j	4e08 <avc_commom+0x90>

00004de0 <avc_commom+0x68>:
    4de0:	2a0562400481606e                  	{ ae_l16m.i	aed0, a6, 0; ae_l32m.x	aed1, a2, a10 }
    4de8:	228313023c206bbe                  	{ addx8	a6, a11, a11; nop; ae_mulf48q32sp16s.l	aed0, aed1, aed0 }
    4df0:	0804204718c0862e                  	{ ae_l32m.x	aed31, a2, a6; movi	a8, 0 }
    4df8:	0ead057b08e40cd0c480813f1c01000f 	{ ae_max64	aed0, aed0, aed31; nop; nop; nop }
    4e08:	0eacc17001e046e8c30001390c01637f 	{ l8ui	a7, a3, 25; movi	a6, 4; nop; ae_roundsp16q48x2asym	aed0, aed0, aed0 }
    4e18:	e3a8                                    	l32i.n	a10, a3, 56
    4e1a:	42d662                                    	addmi	a6, a6, 0x4200
    4e1d:	190c                                    	movi.n	a9, 1
    4e1f:	1206c94004c6262e                  	{ ae_s16m.l.x	aed0, a2, a6; slli	a9, a9, 14 }
    4e27:	1ad716                                    	beqz	a7, 4fd8 <avc_commom+0x260>
    4e2a:	3189                                    	s32i.n	a8, a1, 12
    4e2c:	2cc572                                    	addi	a7, a5, 44
    4e2f:	30c562                                    	addi	a6, a5, 48
    4e32:	4229a7                                    	blt	a9, a10, 4e78 <avc_commom+0x100>
    4e35:	0804284000c0606e                  	{ ae_l32m.i	aed0, a6, 0; movi	a8, 8 }
    4e3d:	774b                                    	addi.n	a7, a7, 4
    4e3f:	230720c318e5747e                  	{ nop; nop }
    4e47:	0020f0                                    	nop
    4e4a:	0020f0                                    	nop
    4e4d:	278876                                    	loop	a8, 4e78 <avc_commom+0x100>
    4e50:	0ead257b09040cd0c580813a0c01010f 	{ ae_srai64	aed0, aed0, 1; nop; nop; nop }
    4e60:	0eacc57900e461d0c48081380401e10f 	{ ae_round24x2f48sasym	aed1, aed0, aed0; ae_l32m.iu	aed0, a6, 4; nop; nop }
    4e70:	220760c008c5717e                  	{ ae_s32f24.l.ip	aed1, a7, 4; nop }

00004e78 <avc_commom+0x100>:
    4e78:	4cc572                                    	addi	a7, a5, 76
    4e7b:	f368                                    	l32i.n	a6, a3, 60
    4e7d:	774b                                    	addi.n	a7, a7, 4
    4e7f:	880c                                    	movi.n	a8, 8
    4e81:	432967                                    	blt	a9, a6, 4ec8 <avc_commom+0x150>
    4e84:	50c562                                    	addi	a6, a5, 80
    4e87:	220720c000c5706e                  	{ ae_l32m.i	aed0, a6, 0; nop }
    4e8f:	230720c318e5747e                  	{ nop; nop }
    4e97:	0020f0                                    	nop
    4e9a:	0020f0                                    	nop
    4e9d:	278876                                    	loop	a8, 4ec8 <avc_commom+0x150>
    4ea0:	0ead257b09040cd0c580813a0c01010f 	{ ae_srai64	aed0, aed0, 1; nop; nop; nop }
    4eb0:	0eacc57900e461d0c48081380401e10f 	{ ae_round24x2f48sasym	aed1, aed0, aed0; ae_l32m.iu	aed0, a6, 4; nop; nop }
    4ec0:	220760c008c5717e                  	{ ae_s32f24.l.ip	aed1, a7, 4; nop }
    4ec8:	442582                                    	l32i	a8, a5, 0x110
    4ecb:	22d272                                    	addmi	a7, a2, 0x2200
    4ece:	2b1792                                    	l16ui	a9, a7, 86
    4ed1:	360c                                    	movi.n	a6, 3
    4ed3:	6425a2                                    	l32i	a10, a5, 0x190
    4ed6:	08bd                                    	mov.n	a11, a8
    4ed8:	130697                                    	bnone	a6, a9, 4eef <avc_commom+0x177>
    4edb:	149090                                    	extui	a9, a9, 0, 2
    4ede:	0abd                                    	mov.n	a11, a10
    4ee0:	082926                                    	beqi	a9, 2, 4eec <avc_commom+0x174>
    4ee3:	081926                                    	beqi	a9, 1, 4eef <avc_commom+0x177>
    4ee6:	43b8b0                                    	min	a11, a8, a11
    4ee9:	000086                                    	j	4eef <avc_commom+0x177>

00004eec <avc_commom+0x174>:
    4eec:	53b8b0                                    	max	a11, a8, a11
    4eef:	42d282                                    	addmi	a8, a2, 0x4200
    4ef2:	05ad                                    	mov.n	a10, a5
    4ef4:	0598c2                                    	l16si	a12, a8, 10
    4ef7:	ecd681                                    	l32r	a8, 250 (1d98 <dt_detect_FB>)
    4efa:	0008e0                                    	callx8	a8
    4efd:	452582                                    	l32i	a8, a5, 0x114
    4f00:	2b1792                                    	l16ui	a9, a7, 86
    4f03:	6525a2                                    	l32i	a10, a5, 0x194
    4f06:	087d                                    	mov.n	a7, a8
    4f08:	130697                                    	bnone	a6, a9, 4f1f <avc_commom+0x1a7>
    4f0b:	146090                                    	extui	a6, a9, 0, 2
    4f0e:	0a7d                                    	mov.n	a7, a10
    4f10:	082626                                    	beqi	a6, 2, 4f1c <avc_commom+0x1a4>
    4f13:	081626                                    	beqi	a6, 1, 4f1f <avc_commom+0x1a7>
    4f16:	437870                                    	min	a7, a8, a7
    4f19:	000086                                    	j	4f1f <avc_commom+0x1a7>

00004f1c <avc_commom+0x1a4>:
    4f1c:	537870                                    	max	a7, a8, a7
    4f1f:	31e8                                    	l32i.n	a14, a1, 12
    4f21:	1803f2                                    	l8ui	a15, a3, 24
    4f24:	f56070                                    	extui	a6, a7, 16, 16
    4f27:	04d552                                    	addmi	a5, a5, 0x400
    4f2a:	152392                                    	l32i	a9, a3, 84
    4f2d:	180c                                    	movi.n	a8, 1
    4f2f:	936ee0                                    	movnez	a6, a14, a14
    4f32:	118820                                    	slli	a8, a8, 14
    4f35:	495562                                    	s16i	a6, a5, 146
    4f38:	c62c                                    	movi.n	a6, 44
    4f3a:	33a752                                    	movi	a5, 0x733
    4f3d:	097f16                                    	beqz	a15, 4fd8 <avc_commom+0x260>
    4f40:	73d662                                    	addmi	a6, a6, 0x7300
    4f43:	412897                                    	blt	a8, a9, 4f88 <avc_commom+0x210>
    4f46:	1155c0                                    	slli	a5, a5, 4
    4f49:	626a                                    	add.n	a6, a2, a6
    4f4b:	0604284000c0b25e                  	{ ae_l32m.xu	aed0, a5, a2; movi	a7, 8 }
    4f53:	664b                                    	addi.n	a6, a6, 4
    4f55:	230720c318e5747e                  	{ nop; nop }
    4f5d:	278776                                    	loop	a7, 4f88 <avc_commom+0x210>
    4f60:	0ead257b09040cd0c580813a0c01010f 	{ ae_srai64	aed0, aed0, 1; nop; nop; nop }
    4f70:	0eacc57900e451d0c48081380401e10f 	{ ae_round24x2f48sasym	aed1, aed0, aed0; ae_l32m.iu	aed0, a5, 4; nop; nop }
    4f80:	220760c008c5716e                  	{ ae_s32f24.l.ip	aed1, a6, 4; nop }

00004f88 <avc_commom+0x210>:
    4f88:	8ca052                                    	movi	a5, 140
    4f8b:	162332                                    	l32i	a3, a3, 88
    4f8e:	73d552                                    	addmi	a5, a5, 0x7300
    4f91:	525a                                    	add.n	a5, a2, a5
    4f93:	39a762                                    	movi	a6, 0x739
    4f96:	3e2837                                    	blt	a8, a3, 4fd8 <avc_commom+0x260>
    4f99:	1136c0                                    	slli	a3, a6, 4
    4f9c:	860c                                    	movi.n	a6, 8
    4f9e:	0402a54000c1b23e                  	{ ae_l32m.xu	aed0, a3, a2; addi	a5, a5, 4 }
    4fa6:	0020f0                                    	nop
    4fa9:	f03d                                    	nop.n
    4fab:	f03d                                    	nop.n
    4fad:	278676                                    	loop	a6, 4fd8 <avc_commom+0x260>
    4fb0:	0ead257b09040cd0c580813a0c01010f 	{ ae_srai64	aed0, aed0, 1; nop; nop; nop }
    4fc0:	0eacc57900e431d0c48081380401e10f 	{ ae_round24x2f48sasym	aed1, aed0, aed0; ae_l32m.iu	aed0, a3, 4; nop; nop }
    4fd0:	220760c008c5715e                  	{ ae_s32f24.l.ip	aed1, a5, 4; nop }
    4fd8:	70d252                                    	addmi	a5, a2, 0x7000
    4fdb:	d4a032                                    	movi	a3, 212
    4fde:	0c0700450c80257e                  	{ l32i	a7, a5, 212; ae_movi	aed0, 0 }
    4fe6:	78a062                                    	movi	a6, 120
    4fe9:	0302f3400c9cb04e                  	{ ae_l16x2m.i	aed1, a4, 0; addmi	a3, a3, 0x7000 }
    4ff1:	366572                                    	s32i	a7, a5, 216
    4ff4:	078676                                    	loop	a6, 4fff <avc_commom+0x287>
    4ff7:	1c823a053821114e                  	{ ae_l16x2m.iu	aed1, a4, 4; nop; ae_mulaafd32s.hh.ll	aed0, aed1, aed1 }

00004fff <avc_commom+0x287>:
    4fff:	0e6ce57005380a40060001380801e34f 	{ movi	a4, 119; movi	a10, 0; nop; ae_srai64	aed0, aed0, 8 }
    500f:	52d442                                    	addmi	a4, a4, 0x5200
    5012:	230700c00ca5f44e                  	{ ae_cvtp24a16x2.ll	aed1, a4, a4; nop }
    501a:	228073053001074e                  	{ l32r	a4, 38 (7b4 <HIFI_sqrt>); nop; ae_mulf48q32sp16s.l	aed0, aed0, aed1 }
    5022:	0ead217b0d440cd0c50041380c01015f 	{ nop; nop; nop; ae_roundsq32f48asym	aed0, aed0 }
    5032:	0ead257b0d240cd0c400813b0c016b0f 	{ ae_trunca32q48	a11, aed0; nop; nop; nop }
    5042:	0004e0                                    	callx8	a4
    5045:	21072b4318e0647e                  	{ nop; ae_cvt48a32	aed0, a11 }
    504d:	220700c010a51a0e                  	{ ae_slaasq56s	aed0, aed0, a10; nop }
    5055:	0ead217b0d440cd0c50041380c01015f 	{ nop; nop; nop; ae_roundsq32f48asym	aed0, aed0 }
    5065:	220760c000c5d32e                  	{ ae_s32m.x	aed0, a2, a3; nop }
    506d:	f01d                                    	retw.n

0000506f <avc_commom+0x2f7>:
	...

00005070 <Voice_SWB_EC_Prcs_common>:
    5070:	01c136                                    	entry	a1, 224
    5073:	2f6152                                    	s32i	a5, a1, 188
    5076:	10c1a2                                    	addi	a10, a1, 16
    5079:	ec2851                                    	l32r	a5, 11c (a5b0 <xt_memset>)
    507c:	0b0c                                    	movi.n	a11, 0
    507e:	2c5c                                    	movi.n	a12, 82
    5080:	2e6162                                    	s32i	a6, a1, 184
    5083:	2d6192                                    	s32i	a9, a1, 180
    5086:	060c                                    	movi.n	a6, 0
    5088:	0005e0                                    	callx8	a5
    508b:	ebe451                                    	l32r	a5, 1c (d8e8 <p_ecnr_mem>)
    508e:	7da3b2                                    	movi	a11, 0x37d
    5091:	41a392                                    	movi	a9, 0x341
    5094:	11bbc0                                    	slli	a11, a11, 4
    5097:	62a640                                    	saltu	a10, a6, a4
    509a:	1c0c                                    	movi.n	a12, 1
    509c:	0588                                    	l32i.n	a8, a5, 0
    509e:	1199c0                                    	slli	a9, a9, 4
    50a1:	2941a2                                    	s8i	a10, a1, 41
    50a4:	2841c2                                    	s8i	a12, a1, 40
    50a7:	22d8d2                                    	addmi	a13, a8, 0x2200
    50aa:	e8ba                                    	add.n	a14, a8, a11
    50ac:	261dd2                                    	l16ui	a13, a13, 76
    50af:	44d8f2                                    	addmi	a15, a8, 0x4400
    50b2:	1f61e2                                    	s32i	a14, a1, 124
    50b5:	511fe2                                    	l16ui	a14, a15, 162
    50b8:	a89a                                    	add.n	a10, a8, a9
    50ba:	4b5c                                    	movi.n	a11, 84
    50bc:	fecdf2                                    	addi	a15, a13, -2
    50bf:	1e61a2                                    	s32i	a10, a1, 120
    50c2:	93dcf0                                    	movnez	a13, a12, a15
    50c5:	2061a2                                    	s32i	a10, a1, 128
    50c8:	83dc30                                    	moveqz	a13, a12, a3
    50cb:	42d8f2                                    	addmi	a15, a8, 0x4200
    50ce:	1551d2                                    	s16i	a13, a1, 42
    50d1:	42d8d2                                    	addmi	a13, a8, 0x4200
    50d4:	2e21c2                                    	l32i	a12, a1, 184
    50d7:	12be16                                    	beqz	a14, 5206 <Voice_SWB_EC_Prcs_common+0x196>
    50da:	226132                                    	s32i	a3, a1, 136
    50dd:	20db32                                    	addmi	a3, a11, 0x2000
    50e0:	75d8e2                                    	addmi	a14, a8, 0x7500
    50e3:	3821b2                                    	l32i	a11, a1, 224
    50e6:	216122                                    	s32i	a2, a1, 132
    50e9:	212e22                                    	l32i	a2, a14, 132
    50ec:	2d2192                                    	l32i	a9, a1, 180
    50ef:	ed69                                    	s32i.n	a6, a13, 56
    50f1:	fd69                                    	s32i.n	a6, a13, 60
    50f3:	43d8d2                                    	addmi	a13, a8, 0x4300
    50f6:	42d892                                    	addmi	a9, a8, 0x4200
    50f9:	2e6f62                                    	s32i	a6, a15, 184
    50fc:	2f6f62                                    	s32i	a6, a15, 188
    50ff:	2861c2                                    	s32i	a12, a1, 160
    5102:	3ed8c2                                    	addmi	a12, a8, 0x3e00
    5105:	2b6122                                    	s32i	a2, a1, 172
    5108:	2a61b2                                    	s32i	a11, a1, 168
    510b:	2f21b2                                    	l32i	a11, a1, 188
    510e:	ed69                                    	s32i.n	a6, a13, 56
    5110:	fd69                                    	s32i.n	a6, a13, 60
    5112:	459ed2                                    	l16si	a13, a14, 138
    5115:	ec4f21                                    	l32r	a2, 254 (2edc <mic480_delay>)
    5118:	745c62                                    	s16i	a6, a12, 232
    511b:	c83a                                    	add.n	a12, a8, a3
    511d:	2d6172                                    	s32i	a7, a1, 180
    5120:	296172                                    	s32i	a7, a1, 164
    5123:	236142                                    	s32i	a4, a1, 140
    5126:	1e6962                                    	s32i	a6, a9, 120
    5129:	1f6962                                    	s32i	a6, a9, 124
    512c:	3e6962                                    	s32i	a6, a9, 248
    512f:	3f6962                                    	s32i	a6, a9, 252
    5132:	0002e0                                    	callx8	a2
    5135:	c48c                                    	beqz.n	a4, 5145 <Voice_SWB_EC_Prcs_common+0xd5>
    5137:	05a8                                    	l32i.n	a10, a5, 0
    5139:	10c1b2                                    	addi	a11, a1, 16
    513c:	ec2121                                    	l32r	a2, 1c0 (32a4 <Inear_pre_commom>)
    513f:	e0a1c2                                    	movi	a12, 0x1e0
    5142:	0002e0                                    	callx8	a2

00005145 <Voice_SWB_EC_Prcs_common+0xd5>:
    5145:	0528                                    	l32i.n	a2, a5, 0
    5147:	05a232                                    	movi	a3, 0x205
    514a:	07a442                                    	movi	a4, 0x407
    514d:	1133c0                                    	slli	a3, a3, 4
    5150:	1144d0                                    	slli	a4, a4, 3
    5153:	2021a2                                    	l32i	a10, a1, 128
    5156:	b23a                                    	add.n	a11, a2, a3
    5158:	c24a                                    	add.n	a12, a2, a4
    515a:	ec2221                                    	l32r	a2, 1e4 (260c <emph_filter_N>)
    515d:	e0a1d2                                    	movi	a13, 0x1e0
    5160:	0002e0                                    	callx8	a2
    5163:	0528                                    	l32i.n	a2, a5, 0
    5165:	31a742                                    	movi	a4, 0x731
    5168:	1144c0                                    	slli	a4, a4, 4
    516b:	2021c2                                    	l32i	a12, a1, 128
    516e:	58c1e2                                    	addi	a14, a1, 88
    5171:	f0a0f2                                    	movi	a15, 240
    5174:	75d272                                    	addmi	a7, a2, 0x7500
    5177:	d24a                                    	add.n	a13, a2, a4
    5179:	1a27a2                                    	l32i	a10, a7, 104
    517c:	1b27b2                                    	l32i	a11, a7, 108
    517f:	ec0621                                    	l32r	a2, 198 (24c0 <tx_downsample_by2_N>)
    5182:	0002e0                                    	callx8	a2
    5185:	05a8                                    	l32i.n	a10, a5, 0
    5187:	ec0f41                                    	l32r	a4, 1c4 (3498 <VAD_commom>)
    518a:	75da22                                    	addmi	a2, a10, 0x7500
    518d:	1a22c2                                    	l32i	a12, a2, 104
    5190:	10c122                                    	addi	a2, a1, 16
    5193:	02bd                                    	mov.n	a11, a2
    5195:	0004e0                                    	callx8	a4
    5198:	05a8                                    	l32i.n	a10, a5, 0
    519a:	02bd                                    	mov.n	a11, a2
    519c:	75dae2                                    	addmi	a14, a10, 0x7500
    519f:	1a2e42                                    	l32i	a4, a14, 104
    51a2:	246142                                    	s32i	a4, a1, 144
    51a5:	1d2e42                                    	l32i	a4, a14, 116
    51a8:	276142                                    	s32i	a4, a1, 156
    51ab:	1b2e62                                    	l32i	a6, a14, 108
    51ae:	ec0741                                    	l32r	a4, 1cc (3540 <EC_block_common>)
    51b1:	1c2ef2                                    	l32i	a15, a14, 112
    51b4:	256162                                    	s32i	a6, a1, 148
    51b7:	2661f2                                    	s32i	a15, a1, 152
    51ba:	0004e0                                    	callx8	a4
    51bd:	05a8                                    	l32i.n	a10, a5, 0
    51bf:	02bd                                    	mov.n	a11, a2
    51c1:	ec0341                                    	l32r	a4, 1d0 (49c4 <sum_commom>)
    51c4:	0004e0                                    	callx8	a4
    51c7:	05a8                                    	l32i.n	a10, a5, 0
    51c9:	22da22                                    	addmi	a2, a10, 0x2200
    51cc:	75da42                                    	addmi	a4, a10, 0x7500
    51cf:	550222                                    	l8ui	a2, a2, 85
    51d2:	226207                                    	bbci	a2, 0, 51f8 <Voice_SWB_EC_Prcs_common+0x188>
    51d5:	2124b2                                    	l32i	a11, a4, 132
    51d8:	09a442                                    	movi	a4, 0x409
    51db:	ebfe21                                    	l32r	a2, 1d4 (5dc4 <NC_NOISE_EST_Prcs>)
    51de:	1144d0                                    	slli	a4, a4, 3
    51e1:	0002e0                                    	callx8	a2
    51e4:	0528                                    	l32i.n	a2, a5, 0
    51e6:	2d21a2                                    	l32i	a10, a1, 180
    51e9:	e0a1d2                                    	movi	a13, 0x1e0
    51ec:	b23a                                    	add.n	a11, a2, a3
    51ee:	c24a                                    	add.n	a12, a2, a4
    51f0:	ebfa21                                    	l32r	a2, 1d8 (269c <deemph_filter_N>)
    51f3:	0002e0                                    	callx8	a2
    51f6:	05a8                                    	l32i.n	a10, a5, 0
    51f8:	ebf921                                    	l32r	a2, 1dc (4d78 <avc_commom>)
    51fb:	10c1b2                                    	addi	a11, a1, 16
    51fe:	2e21c2                                    	l32i	a12, a1, 184
    5201:	0002e0                                    	callx8	a2
    5204:	f01d                                    	retw.n

00005206 <Voice_SWB_EC_Prcs_common+0x196>:
    5206:	eb8741                                    	l32r	a4, 24 (a5c4 <xt_memcpy>)
    5209:	f0a0c2                                    	movi	a12, 240
    520c:	2e21a2                                    	l32i	a10, a1, 184
    520f:	02bd                                    	mov.n	a11, a2
    5211:	0004e0                                    	callx8	a4
    5214:	151122                                    	l16ui	a2, a1, 42
    5217:	092266                                    	bnei	a2, 2, 5224 <Voice_SWB_EC_Prcs_common+0x1b4>
    521a:	f0a0c2                                    	movi	a12, 240
    521d:	07ad                                    	mov.n	a10, a7
    521f:	03bd                                    	mov.n	a11, a3
    5221:	0004e0                                    	callx8	a4
    5224:	f01d                                    	retw.n

00005226 <Voice_SWB_EC_Prcs_common+0x1b6>:
	...

00005228 <Voice_PostEC_Prcs>:
    5228:	004136                                    	entry	a1, 32
    522b:	ec0b51                                    	l32r	a5, 258 (523c <common_PostEC_Prcs>)
    522e:	0d0c                                    	movi.n	a13, 0
    5230:	02ad                                    	mov.n	a10, a2
    5232:	03bd                                    	mov.n	a11, a3
    5234:	04cd                                    	mov.n	a12, a4
    5236:	0005e0                                    	callx8	a5
    5239:	f01d                                    	retw.n

0000523b <Voice_PostEC_Prcs+0x13>:
	...

0000523c <common_PostEC_Prcs>:
    523c:	004136                                    	entry	a1, 32
    523f:	eb7761                                    	l32r	a6, 1c (d8e8 <p_ecnr_mem>)
    5242:	69a492                                    	movi	a9, 0x469
    5245:	e0a182                                    	movi	a8, 0x1e0
    5248:	f0a072                                    	movi	a7, 240
    524b:	937850                                    	movnez	a7, a8, a5
    524e:	1199c0                                    	slli	a9, a9, 4
    5251:	0668                                    	l32i.n	a6, a6, 0
    5253:	02bd                                    	mov.n	a11, a2
    5255:	ec0181                                    	l32r	a8, 25c (a394 <NOISE_GEN_Prcs>)
    5258:	a69a                                    	add.n	a10, a6, a9
    525a:	06cd                                    	mov.n	a12, a6
    525c:	0008e0                                    	callx8	a8
    525f:	44d682                                    	addmi	a8, a6, 0x4400
    5262:	511882                                    	l16ui	a8, a8, 162
    5265:	989c                                    	beqz.n	a8, 5282 <common_PostEC_Prcs+0x46>
    5267:	42d682                                    	addmi	a8, a6, 0x4200
    526a:	41f470                                    	srli	a15, a7, 4
    526d:	0298e2                                    	l16si	a14, a8, 4
    5270:	42d6a2                                    	addmi	a10, a6, 0x4200
    5273:	ebfb71                                    	l32r	a7, 260 (a10c <aec_post_prcs>)
    5276:	02bd                                    	mov.n	a11, a2
    5278:	03cd                                    	mov.n	a12, a3
    527a:	06dd                                    	mov.n	a13, a6
    527c:	0007e0                                    	callx8	a7
    527f:	0002c6                                    	j	528e <common_PostEC_Prcs+0x52>

00005282 <common_PostEC_Prcs+0x46>:
    5282:	eb6861                                    	l32r	a6, 24 (a5c4 <xt_memcpy>)
    5285:	03ad                                    	mov.n	a10, a3
    5287:	02bd                                    	mov.n	a11, a2
    5289:	07cd                                    	mov.n	a12, a7
    528b:	0006e0                                    	callx8	a6
    528e:	eb6321                                    	l32r	a2, 1c (d8e8 <p_ecnr_mem>)
    5291:	c4a0f2                                    	movi	a15, 196
    5294:	ebf461                                    	l32r	a6, 264 (4ec4ec4f <_end+0x4ec41363>)
    5297:	0228                                    	l32i.n	a2, a2, 0
    5299:	46d232                                    	addmi	a3, a2, 0x4600
    529c:	70d2e2                                    	addmi	a14, a2, 0x7000
    529f:	5e1332                                    	l16ui	a3, a3, 188
    52a2:	907330                                    	addx2	a7, a3, a3
    52a5:	70d292                                    	addmi	a9, a2, 0x7000
    52a8:	a07770                                    	addx4	a7, a7, a7
    52ab:	70d2a2                                    	addmi	a10, a2, 0x7000
    52ae:	776b                                    	addi.n	a7, a7, 6
    52b0:	a26760                                    	muluh	a6, a7, a6
    52b3:	418260                                    	srli	a8, a6, 2
    52b6:	e10e62                                    	l8ui	a6, a14, 225
    52b9:	938350                                    	movnez	a8, a3, a5
    52bc:	70df32                                    	addmi	a3, a15, 0x7000
    52bf:	885d                                    	ae_sext16	a5, a8
    52c1:	70d282                                    	addmi	a8, a2, 0x7000
    52c4:	2da567                                    	bge	a5, a6, 52f5 <common_PostEC_Prcs+0xb9>
    52c7:	e00a72                                    	l8ui	a7, a10, 224
    52ca:	70d292                                    	addmi	a9, a2, 0x7000
    52cd:	80a0f2                                    	movi	a15, 128
    52d0:	c0a570                                    	sub	a10, a5, a7
    52d3:	24a757                                    	bge	a7, a5, 52fb <common_PostEC_Prcs+0xbf>
    52d6:	6f9982                                    	l16si	a8, a9, 222
    52d9:	c06670                                    	sub	a6, a6, a7
    52dc:	6e9992                                    	l16si	a9, a9, 220
    52df:	c08890                                    	sub	a8, a8, a9
    52e2:	825a80                                    	mull	a5, a10, a8
    52e5:	115580                                    	slli	a5, a5, 8
    52e8:	d25560                                    	quos	a5, a5, a6
    52eb:	55fa                                    	add.n	a5, a5, a15
    52ed:	215850                                    	srai	a5, a5, 8
    52f0:	559a                                    	add.n	a5, a5, a9
    52f2:	000206                                    	j	52fe <common_PostEC_Prcs+0xc2>

000052f5 <common_PostEC_Prcs+0xb9>:
    52f5:	6f9952                                    	l16si	a5, a9, 222
    52f8:	000086                                    	j	52fe <common_PostEC_Prcs+0xc2>

000052fb <common_PostEC_Prcs+0xbf>:
    52fb:	6e9852                                    	l16si	a5, a8, 220
    52fe:	160c                                    	movi.n	a6, 1
    5300:	0da782                                    	movi	a8, 0x70d
    5303:	116610                                    	slli	a6, a6, 15
    5306:	d8a072                                    	movi	a7, 216
    5309:	c06650                                    	sub	a6, a6, a5
    530c:	1188c0                                    	slli	a8, a8, 4
    530f:	0702974004bcf56e                  	{ ae_cvtp24a16x2.ll	aed0, a5, a6; addmi	a7, a7, 0x7000 }
    5317:	2605224008c2b28e                  	{ ae_l32m.xu	aed1, a8, a2; ae_l32m.x	aed2, a2, a7 }
    531f:	0e5cf2906529ce0005800e0a08208f2f 	{ ae_l16x2m.x	aed30, a2, a3; movi	a14, 204; ae_mulf48q32sp16s.l	aed1, aed1, aed0; ae_sel16i	aed0, aed0, aed0, 1 }
    532f:	0e5cd00b81ebe507c47bce0b0c40873f 	{ l32r	a3, 14c (7270 <airoha_divide>); addmi	a5, a14, 0x7000; ae_mulaf48q32sp16s.l	aed1, aed2, aed0; ae_sel16i	aed31, aed30, aed30, 1 }
    533f:	0202b24018dca25e                  	{ ae_l32m.xu	aed3, a5, a2; addmi	a2, a2, 0x7000 }
    5347:	0ead217b0c6c0cd0c504613a040192ff 	{ l16si	a15, a2, 200; nop; nop; ae_roundsq32f48sym	aed1, aed1 }
    5357:	2282d307203e108e                  	{ ae_s32m.i	aed1, a8, 0; nop; ae_mulf48q32sp16s.l	aed0, aed1, aed30 }
    535f:	1e835403347fb13e                  	{ nop; nop; ae_mulaf48q32sp16s.l	aed0, aed3, aed31 }
    5367:	0ead6165dd26f0d0c40041380001007f 	{ movi	a7, 0; slli	a11, a15, 16; nop; ae_roundsq32f48asym	aed0, aed0 }
    5377:	0ead257b0d240cd0c400813b0c016a0f 	{ ae_trunca32q48	a10, aed0; nop; nop; nop }
    5387:	05a9                                    	s32i.n	a10, a5, 0
    5389:	0003e0                                    	callx8	a3
    538c:	20076b471460ea5e                  	{ addi	a5, a10, -2; ae_cvt48a32	aed0, a11 }
    5394:	eb22f1                                    	l32r	a15, 1c (d8e8 <p_ecnr_mem>)
    5397:	130c                                    	movi.n	a3, 1
    5399:	1203024010b9050e                  	{ ae_slaasq56s	aed0, aed0, a5; l16si	a2, a2, 202 }
    53a1:	0ead416599e633e8c300013c0c01047f 	{ s16i	a7, a4, 2; slli	a3, a3, 13; nop; ae_roundsp16q48x2asym	aed0, aed0, aed0 }
    53b1:	05038f4000e0db6e                  	{ ae_trunca16p24s.l	a6, aed0; l32i	a5, a15, 0 }
    53b9:	41d552                                    	addmi	a5, a5, 0x4100
    53bc:	533630                                    	max	a3, a6, a3
    53bf:	6c9552                                    	l16si	a5, a5, 216
    53c2:	432320                                    	min	a2, a3, a2
    53c5:	645d                                    	ae_s16i.n	a5, a4, 0
    53c7:	025422                                    	s16i	a2, a4, 4
    53ca:	f01d                                    	retw.n

000053cc <Voice_SWB_PostEC_Prcs>:
    53cc:	004136                                    	entry	a1, 32
    53cf:	eba251                                    	l32r	a5, 258 (523c <common_PostEC_Prcs>)
    53d2:	1d0c                                    	movi.n	a13, 1
    53d4:	02ad                                    	mov.n	a10, a2
    53d6:	03bd                                    	mov.n	a11, a3
    53d8:	04cd                                    	mov.n	a12, a4
    53da:	0005e0                                    	callx8	a5
    53dd:	f01d                                    	retw.n

000053df <Voice_SWB_PostEC_Prcs+0x13>:
	...

000053e0 <PostEC_Info>:
    53e0:	004136                                    	entry	a1, 32
    53e3:	eb0ec1                                    	l32r	a12, 1c (d8e8 <p_ecnr_mem>)
    53e6:	ffa072                                    	movi	a7, 255
    53e9:	1d0c                                    	movi.n	a13, 1
    53eb:	117790                                    	slli	a7, a7, 7
    53ee:	023d                                    	mov.n	a3, a2
    53f0:	112d30                                    	slli	a2, a13, 13
    53f3:	0c48                                    	l32i.n	a4, a12, 0
    53f5:	050c                                    	movi.n	a5, 0
    53f7:	735d                                    	ae_s16i.n	a5, a3, 2
    53f9:	025322                                    	s16i	a2, a3, 4
    53fc:	41d462                                    	addmi	a6, a4, 0x4100
    53ff:	44d442                                    	addmi	a4, a4, 0x4400
    5402:	8216e2                                    	l16ui	a14, a6, 0x104
    5405:	6c9662                                    	l16si	a6, a6, 216
    5408:	636d                                    	ae_s16i.n	a6, a3, 0
    540a:	10fe70                                    	and	a15, a14, a7
    540d:	7427e0                                    	extui	a2, a14, 7, 8
    5410:	7fcf32                                    	addi	a3, a15, 127
    5413:	505432                                    	s16i	a3, a4, 160
    5416:	f01d                                    	retw.n

00005418 <Voice_EC_Prcs>:
    5418:	006136                                    	entry	a1, 48
    541b:	eb9371                                    	l32r	a7, 268 (3144 <Voice_EC_Prcs_common>)
    541e:	080c                                    	movi.n	a8, 0
    5420:	0c0c                                    	movi.n	a12, 0
    5422:	02ad                                    	mov.n	a10, a2
    5424:	03bd                                    	mov.n	a11, a3
    5426:	04dd                                    	mov.n	a13, a4
    5428:	05ed                                    	mov.n	a14, a5
    542a:	06fd                                    	mov.n	a15, a6
    542c:	0189                                    	s32i.n	a8, a1, 0
    542e:	0007e0                                    	callx8	a7
    5431:	f01d                                    	retw.n

00005433 <Voice_EC_Prcs+0x1b>:
	...

00005434 <Voice_EC_Inear_Prcs>:
    5434:	006136                                    	entry	a1, 48
    5437:	eb8c81                                    	l32r	a8, 268 (3144 <Voice_EC_Prcs_common>)
    543a:	02ad                                    	mov.n	a10, a2
    543c:	c198                                    	l32i.n	a9, a1, 48
    543e:	03bd                                    	mov.n	a11, a3
    5440:	04cd                                    	mov.n	a12, a4
    5442:	05dd                                    	mov.n	a13, a5
    5444:	06ed                                    	mov.n	a14, a6
    5446:	07fd                                    	mov.n	a15, a7
    5448:	0199                                    	s32i.n	a9, a1, 0
    544a:	0008e0                                    	callx8	a8
    544d:	f01d                                    	retw.n

0000544f <Voice_EC_Inear_Prcs+0x1b>:
	...

00005450 <Voice_SWB_EC_Prcs>:
    5450:	006136                                    	entry	a1, 48
    5453:	eb8671                                    	l32r	a7, 26c (5070 <Voice_SWB_EC_Prcs_common>)
    5456:	080c                                    	movi.n	a8, 0
    5458:	0c0c                                    	movi.n	a12, 0
    545a:	02ad                                    	mov.n	a10, a2
    545c:	03bd                                    	mov.n	a11, a3
    545e:	04dd                                    	mov.n	a13, a4
    5460:	05ed                                    	mov.n	a14, a5
    5462:	06fd                                    	mov.n	a15, a6
    5464:	0189                                    	s32i.n	a8, a1, 0
    5466:	0007e0                                    	callx8	a7
    5469:	f01d                                    	retw.n

0000546b <Voice_SWB_EC_Prcs+0x1b>:
	...

0000546c <Voice_SWB_EC_Inear_Prcs>:
    546c:	006136                                    	entry	a1, 48
    546f:	eb7f81                                    	l32r	a8, 26c (5070 <Voice_SWB_EC_Prcs_common>)
    5472:	02ad                                    	mov.n	a10, a2
    5474:	c198                                    	l32i.n	a9, a1, 48
    5476:	03bd                                    	mov.n	a11, a3
    5478:	04cd                                    	mov.n	a12, a4
    547a:	05dd                                    	mov.n	a13, a5
    547c:	06ed                                    	mov.n	a14, a6
    547e:	07fd                                    	mov.n	a15, a7
    5480:	0199                                    	s32i.n	a9, a1, 0
    5482:	0008e0                                    	callx8	a8
    5485:	f01d                                    	retw.n

00005487 <Voice_SWB_EC_Inear_Prcs+0x1b>:
	...

00005488 <Voice_NB_RX_Prcs>:
    5488:	004136                                    	entry	a1, 32
    548b:	eae431                                    	l32r	a3, 1c (d8e8 <p_ecnr_mem>)
    548e:	03a8                                    	l32i.n	a10, a3, 0
    5490:	44da42                                    	addmi	a4, a10, 0x4400
    5493:	511442                                    	l16ui	a4, a4, 162
    5496:	848c                                    	beqz.n	a4, 54a2 <Voice_NB_RX_Prcs+0x1a>
    5498:	eb7641                                    	l32r	a4, 270 (5cec <NB_RX_NR_frame_process>)
    549b:	02ad                                    	mov.n	a10, a2
    549d:	0004e0                                    	callx8	a4
    54a0:	03a8                                    	l32i.n	a10, a3, 0

000054a2 <Voice_NB_RX_Prcs+0x1a>:
    54a2:	6fda32                                    	addmi	a3, a10, 0x6f00
    54a5:	22da42                                    	addmi	a4, a10, 0x2200
    54a8:	2e9332                                    	l16si	a3, a3, 92
    54ab:	f8ca62                                    	addi	a6, a10, -8
    54ae:	285432                                    	s16i	a3, a4, 80
    54b1:	c53c                                    	movi.n	a5, 60
    54b3:	550432                                    	l8ui	a3, a4, 85
    54b6:	468b                                    	addi.n	a4, a6, 8
    54b8:	306357                                    	bbci	a3, 5, 54ec <Voice_NB_RX_Prcs+0x64>
    54bb:	fcc232                                    	addi	a3, a2, -4
    54be:	0f8576                                    	loop	a5, 54d1 <Voice_NB_RX_Prcs+0x49>
    54c1:	220760c00485d13e                  	{ ae_l16x2m.iu	aed0, a3, 4; nop }
    54c9:	220700c004e5994e                  	{ ae_s32x2f24.ip	aed0, a4, 8; nop }

000054d1 <Voice_NB_RX_Prcs+0x49>:
    54d1:	e7a132                                    	movi	a3, 0x1e7
    54d4:	83a342                                    	movi	a4, 0x383
    54d7:	1133b0                                    	slli	a3, a3, 5
    54da:	1144b0                                    	slli	a4, a4, 5
    54dd:	ba3a                                    	add.n	a11, a10, a3
    54df:	eb3731                                    	l32r	a3, 1bc (2900 <biquad_2cascade_24bitTxB>)
    54e2:	ca4a                                    	add.n	a12, a10, a4
    54e4:	78a0e2                                    	movi	a14, 120
    54e7:	02dd                                    	mov.n	a13, a2
    54e9:	0003e0                                    	callx8	a3

000054ec <Voice_NB_RX_Prcs+0x64>:
    54ec:	f01d                                    	retw.n

000054ee <Voice_NB_RX_Prcs+0x66>:
	...

000054f0 <Voice_WB_RX_Prcs>:
    54f0:	004136                                    	entry	a1, 32
    54f3:	eaca31                                    	l32r	a3, 1c (d8e8 <p_ecnr_mem>)
    54f6:	03a8                                    	l32i.n	a10, a3, 0
    54f8:	44da42                                    	addmi	a4, a10, 0x4400
    54fb:	511442                                    	l16ui	a4, a4, 162
    54fe:	848c                                    	beqz.n	a4, 550a <Voice_WB_RX_Prcs+0x1a>
    5500:	eb5d41                                    	l32r	a4, 274 (5a5c <WB_RX_NR_frame_process>)
    5503:	02ad                                    	mov.n	a10, a2
    5505:	0004e0                                    	callx8	a4
    5508:	03a8                                    	l32i.n	a10, a3, 0

0000550a <Voice_WB_RX_Prcs+0x1a>:
    550a:	6fda32                                    	addmi	a3, a10, 0x6f00
    550d:	22da42                                    	addmi	a4, a10, 0x2200
    5510:	2e9332                                    	l16si	a3, a3, 92
    5513:	f8ca62                                    	addi	a6, a10, -8
    5516:	285432                                    	s16i	a3, a4, 80
    5519:	78a052                                    	movi	a5, 120
    551c:	550432                                    	l8ui	a3, a4, 85
    551f:	468b                                    	addi.n	a4, a6, 8
    5521:	366357                                    	bbci	a3, 5, 555b <Voice_WB_RX_Prcs+0x6b>
    5524:	fcc232                                    	addi	a3, a2, -4
    5527:	0020f0                                    	nop
    552a:	0020f0                                    	nop
    552d:	0f8576                                    	loop	a5, 5540 <Voice_WB_RX_Prcs+0x50>
    5530:	220760c00485d13e                  	{ ae_l16x2m.iu	aed0, a3, 4; nop }
    5538:	220700c004e5994e                  	{ ae_s32x2f24.ip	aed0, a4, 8; nop }

00005540 <Voice_WB_RX_Prcs+0x50>:
    5540:	e7a132                                    	movi	a3, 0x1e7
    5543:	83a342                                    	movi	a4, 0x383
    5546:	1133b0                                    	slli	a3, a3, 5
    5549:	1144b0                                    	slli	a4, a4, 5
    554c:	ba3a                                    	add.n	a11, a10, a3
    554e:	eb1b31                                    	l32r	a3, 1bc (2900 <biquad_2cascade_24bitTxB>)
    5551:	ca4a                                    	add.n	a12, a10, a4
    5553:	f0a0e2                                    	movi	a14, 240
    5556:	02dd                                    	mov.n	a13, a2
    5558:	0003e0                                    	callx8	a3

0000555b <Voice_WB_RX_Prcs+0x6b>:
    555b:	f01d                                    	retw.n

0000555d <Voice_WB_RX_Prcs+0x6d>:
    555d:	000000                                        ...

00005560 <Voice_SWB_RX_Prcs>:
    5560:	004136                                    	entry	a1, 32
    5563:	eaae31                                    	l32r	a3, 1c (d8e8 <p_ecnr_mem>)
    5566:	03a8                                    	l32i.n	a10, a3, 0
    5568:	44da42                                    	addmi	a4, a10, 0x4400
    556b:	511442                                    	l16ui	a4, a4, 162
    556e:	848c                                    	beqz.n	a4, 557a <Voice_SWB_RX_Prcs+0x1a>
    5570:	eb4241                                    	l32r	a4, 278 (603c <SWB_RX_NR_frame_process>)
    5573:	02ad                                    	mov.n	a10, a2
    5575:	0004e0                                    	callx8	a4
    5578:	03a8                                    	l32i.n	a10, a3, 0

0000557a <Voice_SWB_RX_Prcs+0x1a>:
    557a:	6fda32                                    	addmi	a3, a10, 0x6f00
    557d:	22da42                                    	addmi	a4, a10, 0x2200
    5580:	2e9332                                    	l16si	a3, a3, 92
    5583:	f8ca62                                    	addi	a6, a10, -8
    5586:	285432                                    	s16i	a3, a4, 80
    5589:	f0a052                                    	movi	a5, 240
    558c:	550432                                    	l8ui	a3, a4, 85
    558f:	468b                                    	addi.n	a4, a6, 8
    5591:	366357                                    	bbci	a3, 5, 55cb <Voice_SWB_RX_Prcs+0x6b>
    5594:	fcc232                                    	addi	a3, a2, -4
    5597:	0020f0                                    	nop
    559a:	0020f0                                    	nop
    559d:	0f8576                                    	loop	a5, 55b0 <Voice_SWB_RX_Prcs+0x50>
    55a0:	220760c00485d13e                  	{ ae_l16x2m.iu	aed0, a3, 4; nop }
    55a8:	220700c004e5994e                  	{ ae_s32x2f24.ip	aed0, a4, 8; nop }

000055b0 <Voice_SWB_RX_Prcs+0x50>:
    55b0:	e7a132                                    	movi	a3, 0x1e7
    55b3:	83a342                                    	movi	a4, 0x383
    55b6:	1133b0                                    	slli	a3, a3, 5
    55b9:	1144b0                                    	slli	a4, a4, 5
    55bc:	ba3a                                    	add.n	a11, a10, a3
    55be:	eaff31                                    	l32r	a3, 1bc (2900 <biquad_2cascade_24bitTxB>)
    55c1:	ca4a                                    	add.n	a12, a10, a4
    55c3:	e0a1e2                                    	movi	a14, 0x1e0
    55c6:	02dd                                    	mov.n	a13, a2
    55c8:	0003e0                                    	callx8	a3

000055cb <Voice_SWB_RX_Prcs+0x6b>:
    55cb:	f01d                                    	retw.n

000055cd <Voice_SWB_RX_Prcs+0x6d>:
    55cd:	000000                                        ...

000055d0 <EC_REF_GAIN_READBACK>:
    55d0:	004136                                    	entry	a1, 32
    55d3:	ea9231                                    	l32r	a3, 1c (d8e8 <p_ecnr_mem>)
    55d6:	0338                                    	l32i.n	a3, a3, 0
    55d8:	060c                                    	movi.n	a6, 0
    55da:	070c                                    	movi.n	a7, 0
    55dc:	42d342                                    	addmi	a4, a3, 0x4200
    55df:	42d352                                    	addmi	a5, a3, 0x4200
    55e2:	5914e2                                    	l16ui	a14, a4, 178
    55e5:	22d382                                    	addmi	a8, a3, 0x2200
    55e8:	7914f2                                    	l16ui	a15, a4, 242
    55eb:	0252e2                                    	s16i	a14, a2, 4
    55ee:	191442                                    	l16ui	a4, a4, 50
    55f1:	0352f2                                    	s16i	a15, a2, 6
    55f4:	391552                                    	l16ui	a5, a5, 114
    55f7:	624d                                    	ae_s16i.n	a4, a2, 0
    55f9:	725d                                    	ae_s16i.n	a5, a2, 2
    55fb:	040c                                    	movi.n	a4, 0
    55fd:	261882                                    	l16ui	a8, a8, 76
    5600:	050c                                    	movi.n	a5, 0
    5602:	43d3a2                                    	addmi	a10, a3, 0x4300
    5605:	44d3f2                                    	addmi	a15, a3, 0x4400
    5608:	43d392                                    	addmi	a9, a3, 0x4300
    560b:	0b2866                                    	bnei	a8, 2, 561a <EC_REF_GAIN_READBACK+0x4a>
    560e:	391942                                    	l16ui	a4, a9, 114
    5611:	591952                                    	l16ui	a5, a9, 178
    5614:	791a62                                    	l16ui	a6, a10, 242
    5617:	191f72                                    	l16ui	a7, a15, 50

0000561a <EC_REF_GAIN_READBACK+0x4a>:
    561a:	045242                                    	s16i	a4, a2, 8
    561d:	055252                                    	s16i	a5, a2, 10
    5620:	065262                                    	s16i	a6, a2, 12
    5623:	075272                                    	s16i	a7, a2, 14
    5626:	f01d                                    	retw.n

00005628 <EC_Inear_REF_GAIN_READBACK>:
    5628:	004136                                    	entry	a1, 32
    562b:	ea7c31                                    	l32r	a3, 1c (d8e8 <p_ecnr_mem>)
    562e:	0338                                    	l32i.n	a3, a3, 0
    5630:	75d332                                    	addmi	a3, a3, 0x7500
    5633:	242332                                    	l32i	a3, a3, 144
    5636:	851342                                    	l16ui	a4, a3, 0x10a
    5639:	a513e2                                    	l16ui	a14, a3, 0x14a
    563c:	624d                                    	ae_s16i.n	a4, a2, 0
    563e:	c513f2                                    	l16ui	a15, a3, 0x18a
    5641:	72ed                                    	ae_s16i.n	a14, a2, 2
    5643:	e51332                                    	l16ui	a3, a3, 0x1ca
    5646:	0252f2                                    	s16i	a15, a2, 4
    5649:	035232                                    	s16i	a3, a2, 6
    564c:	f01d                                    	retw.n

0000564e <EC_Inear_REF_GAIN_READBACK+0x26>:
	...

00005650 <EC_PreLim_Coef_READBACK>:
    5650:	004136                                    	entry	a1, 32
    5653:	ea7231                                    	l32r	a3, 1c (d8e8 <p_ecnr_mem>)
    5656:	c54c                                    	movi.n	a5, 76
    5658:	3dd552                                    	addmi	a5, a5, 0x3d00
    565b:	360c                                    	movi.n	a6, 3
    565d:	024d                                    	mov.n	a4, a2
    565f:	0338                                    	l32i.n	a3, a3, 0
    5661:	535a                                    	add.n	a5, a3, a5
    5663:	078676                                    	loop	a6, 566e <EC_PreLim_Coef_READBACK+0x1e>
    5666:	556d                                    	ae_l16ui.n	a6, a5, 2
    5668:	554b                                    	addi.n	a5, a5, 4
    566a:	646d                                    	ae_s16i.n	a6, a4, 0
    566c:	442b                                    	addi.n	a4, a4, 2

0000566e <EC_PreLim_Coef_READBACK+0x1e>:
    566e:	b5a752                                    	movi	a5, 0x7b5
    5671:	360c                                    	movi.n	a6, 3
    5673:	1155d0                                    	slli	a5, a5, 3
    5676:	426b                                    	addi.n	a4, a2, 6
    5678:	535a                                    	add.n	a5, a3, a5
    567a:	078676                                    	loop	a6, 5685 <EC_PreLim_Coef_READBACK+0x35>
    567d:	556d                                    	ae_l16ui.n	a6, a5, 2
    567f:	554b                                    	addi.n	a5, a5, 4
    5681:	646d                                    	ae_s16i.n	a6, a4, 0
    5683:	442b                                    	addi.n	a4, a4, 2
    5685:	f7a042                                    	movi	a4, 247
    5688:	350c                                    	movi.n	a5, 3
    568a:	1144a0                                    	slli	a4, a4, 6
    568d:	22cb                                    	addi.n	a2, a2, 12
    568f:	334a                                    	add.n	a3, a3, a4
    5691:	078576                                    	loop	a5, 569c <EC_PreLim_Coef_READBACK+0x4c>
    5694:	534d                                    	ae_l16ui.n	a4, a3, 2
    5696:	334b                                    	addi.n	a3, a3, 4
    5698:	624d                                    	ae_s16i.n	a4, a2, 0
    569a:	222b                                    	addi.n	a2, a2, 2
    569c:	f01d                                    	retw.n

0000569e <EC_PreLim_Coef_READBACK+0x4e>:
	...

000056a0 <BAND5_PreLim_Coef_READBACK>:
    56a0:	004136                                    	entry	a1, 32
    56a3:	ea5e31                                    	l32r	a3, 1c (d8e8 <p_ecnr_mem>)
    56a6:	bba742                                    	movi	a4, 0x7bb
    56a9:	1144d0                                    	slli	a4, a4, 3
    56ac:	350c                                    	movi.n	a5, 3
    56ae:	0338                                    	l32i.n	a3, a3, 0
    56b0:	334a                                    	add.n	a3, a3, a4
    56b2:	078576                                    	loop	a5, 56bd <BAND5_PreLim_Coef_READBACK+0x1d>
    56b5:	534d                                    	ae_l16ui.n	a4, a3, 2
    56b7:	334b                                    	addi.n	a3, a3, 4
    56b9:	624d                                    	ae_s16i.n	a4, a2, 0
    56bb:	222b                                    	addi.n	a2, a2, 2

000056bd <BAND5_PreLim_Coef_READBACK+0x1d>:
    56bd:	f01d                                    	retw.n

000056bf <BAND5_PreLim_Coef_READBACK+0x1f>:
	...

000056c0 <DaulMIC_power_Coef_READBACK>:
    56c0:	004136                                    	entry	a1, 32
    56c3:	ea5621                                    	l32r	a2, 1c (d8e8 <p_ecnr_mem>)
    56c6:	0228                                    	l32i.n	a2, a2, 0
    56c8:	3ed222                                    	addmi	a2, a2, 0x3e00
    56cb:	769222                                    	l16si	a2, a2, 236
    56ce:	f01d                                    	retw.n

000056d0 <BAND5_EC_REF_GAIN_READBACK>:
    56d0:	004136                                    	entry	a1, 32
    56d3:	ea5231                                    	l32r	a3, 1c (d8e8 <p_ecnr_mem>)
    56d6:	060c                                    	movi.n	a6, 0
    56d8:	0338                                    	l32i.n	a3, a3, 0
    56da:	43d342                                    	addmi	a4, a3, 0x4300
    56dd:	22d352                                    	addmi	a5, a3, 0x2200
    56e0:	191442                                    	l16ui	a4, a4, 50
    56e3:	75d3f2                                    	addmi	a15, a3, 0x7500
    56e6:	624d                                    	ae_s16i.n	a4, a2, 0
    56e8:	040c                                    	movi.n	a4, 0
    56ea:	261572                                    	l16ui	a7, a5, 76
    56ed:	44d332                                    	addmi	a3, a3, 0x4400
    56f0:	242f52                                    	l32i	a5, a15, 144
    56f3:	022766                                    	bnei	a7, 2, 56f9 <BAND5_EC_REF_GAIN_READBACK+0x29>
    56f6:	391362                                    	l16ui	a6, a3, 114

000056f9 <BAND5_EC_REF_GAIN_READBACK+0x29>:
    56f9:	35cb                                    	addi.n	a3, a5, 12
    56fb:	726d                                    	ae_s16i.n	a6, a2, 2
    56fd:	158c                                    	beqz.n	a5, 5702 <BAND5_EC_REF_GAIN_READBACK+0x32>
    56ff:	ff1342                                    	l16ui	a4, a3, 0x1fe
    5702:	025242                                    	s16i	a4, a2, 4
    5705:	f01d                                    	retw.n

00005707 <BAND5_EC_REF_GAIN_READBACK+0x37>:
	...

00005708 <PF_GAIN_FB_READBACK>:
    5708:	004136                                    	entry	a1, 32
    570b:	ea4421                                    	l32r	a2, 1c (d8e8 <p_ecnr_mem>)
    570e:	ffa042                                    	movi	a4, 255
    5711:	0228                                    	l32i.n	a2, a2, 0
    5713:	75d222                                    	addmi	a2, a2, 0x7500
    5716:	242222                                    	l32i	a2, a2, 144
    5719:	04d232                                    	addmi	a3, a2, 0x400
    571c:	428c                                    	beqz.n	a2, 5724 <PF_GAIN_FB_READBACK+0x1c>
    571e:	491322                                    	l16ui	a2, a3, 146
    5721:	000086                                    	j	5727 <PF_GAIN_FB_READBACK+0x1f>

00005724 <PF_GAIN_FB_READBACK+0x1c>:
    5724:	7fd422                                    	addmi	a2, a4, 0x7f00
    5727:	822d                                    	ae_sext16	a2, a2
    5729:	f01d                                    	retw.n

0000572b <PF_GAIN_FB_READBACK+0x23>:
	...

0000572c <vector_gain_Q9_15>:
    572c:	004136                                    	entry	a1, 32
    572f:	215140                                    	srai	a5, a4, 1
    5732:	6224a6                                    	blti	a4, 2, 5798 <vector_gain_Q9_15+0x6c>
    5735:	030673c00c80b02e                  	{ ae_l16x2m.i	aed1, a2, 0; ae_movda32x2	aed0, a3, a3 }
    573d:	830c                                    	movi.n	a3, 8
    573f:	230720c318e5747e                  	{ nop; nop }
    5747:	0020f0                                    	nop
    574a:	0020f0                                    	nop
    574d:	478576                                    	loop	a5, 5798 <vector_gain_Q9_15+0x6c>
    5750:	0e1d225b0d4c0c04452b4df80c20015f 	{ nop; nop; ae_mulf32s.ll	aed31, aed1, aed0; ae_mulf32s.lh	aed2, aed0, aed1 }
    5760:	220700c300a5932e                  	{ ae_slaaq56	aed2, aed2, a3; nop }
    5768:	0ead217b09150ce8c38841381c0163ff 	{ ae_slaaq56	aed1, aed31, a3; nop; nop; ae_roundsp16q48x2asym	aed2, aed2, aed2 }
    5778:	0ead217b0c4d0ce8c30421381c01802f 	{ ae_s16m.l.i	aed2, a2, 0; nop; nop; ae_roundsp16q48x2asym	aed1, aed1, aed1 }
    5788:	220740c00cc5112e                  	{ ae_s16m.l.i	aed1, a2, 2; nop }
    5790:	220760c00c85d12e                  	{ ae_l16x2m.iu	aed1, a2, 4; nop }

00005798 <vector_gain_Q9_15+0x6c>:
    5798:	f01d                                    	retw.n

0000579a <vector_gain_Q9_15+0x6e>:
    579a:	00000000                                 ......

000057a0 <fill_EQ_gain>:
    57a0:	004136                                    	entry	a1, 32
    57a3:	0a14a6                                    	blti	a4, 1, 57b1 <fill_EQ_gain+0x11>
    57a6:	078476                                    	loop	a4, 57b1 <fill_EQ_gain+0x11>
    57a9:	234d                                    	ae_l16si.n	a4, a3, 0
    57ab:	332b                                    	addi.n	a3, a3, 2
    57ad:	624d                                    	ae_s16i.n	a4, a2, 0
    57af:	222b                                    	addi.n	a2, a2, 2

000057b1 <fill_EQ_gain+0x11>:
    57b1:	f01d                                    	retw.n

000057b3 <fill_EQ_gain+0x13>:
	...

000057b4 <WB_NR_init>:
    57b4:	006136                                    	entry	a1, 48
    57b7:	ea5971                                    	l32r	a7, 11c (a5b0 <xt_memset>)
    57ba:	0b0c                                    	movi.n	a11, 0
    57bc:	98a0c2                                    	movi	a12, 152
    57bf:	02ad                                    	mov.n	a10, a2
    57c1:	0007e0                                    	callx8	a7
    57c4:	ea1661                                    	l32r	a6, 1c (d8e8 <p_ecnr_mem>)
    57c7:	3139                                    	s32i.n	a3, a1, 12
    57c9:	6c0c                                    	movi.n	a12, 6
    57cb:	b4a082                                    	movi	a8, 180
    57ce:	3e2326                                    	beqi	a3, 2, 5810 <WB_NR_init+0x5c>
    57d1:	06f8                                    	l32i.n	a15, a6, 0
    57d3:	0ea356                                    	bnez	a3, 58c1 <WB_NR_init+0x10d>
    57d6:	eaa971                                    	l32r	a7, 27c (9ef8 <common_noise_gen_init>)
    57d9:	02ad                                    	mov.n	a10, a2
    57db:	04bd                                    	mov.n	a11, a4
    57dd:	05cd                                    	mov.n	a12, a5
    57df:	0007e0                                    	callx8	a7
    57e2:	0658                                    	l32i.n	a5, a6, 0
    57e4:	68a072                                    	movi	a7, 104
    57e7:	a8a082                                    	movi	a8, 168
    57ea:	2ba692                                    	movi	a9, 0x62b
    57ed:	66d772                                    	addmi	a7, a7, 0x6600
    57f0:	f8a0a2                                    	movi	a10, 248
    57f3:	66d882                                    	addmi	a8, a8, 0x6600
    57f6:	1199c0                                    	slli	a9, a9, 4
    57f9:	757a                                    	add.n	a7, a5, a7
    57fb:	e58a                                    	add.n	a14, a5, a8
    57fd:	f59a                                    	add.n	a15, a5, a9
    57ff:	6ddaa2                                    	addmi	a10, a10, 0x6d00
    5802:	55aa                                    	add.n	a5, a5, a10
    5804:	436272                                    	s32i	a7, a2, 0x10c
    5807:	4462e2                                    	s32i	a14, a2, 0x110
    580a:	4562f2                                    	s32i	a15, a2, 0x114
    580d:	007886                                    	j	59f3 <WB_NR_init+0x23f>

00005810 <WB_NR_init+0x5c>:
    5810:	651482                                    	l16ui	a8, a4, 202
    5813:	b90c                                    	movi.n	a9, 11
    5815:	429452                                    	l16si	a5, a4, 132
    5818:	eca0f2                                    	movi	a15, 236
    581b:	125252                                    	s16i	a5, a2, 36
    581e:	4194b2                                    	l16si	a11, a4, 130
    5821:	ea9751                                    	l32r	a5, 280 (9ee4 <complement_para>)
    5824:	939880                                    	movnez	a9, a8, a8
    5827:	3994e2                                    	l16si	a14, a4, 114
    582a:	a2fa                                    	add.n	a10, a2, a15
    582c:	0352e2                                    	s16i	a14, a2, 6
    582f:	063d                                    	mov.n	a3, a6
    5831:	025292                                    	s16i	a9, a2, 4
    5834:	460c                                    	movi.n	a6, 4
    5836:	0005e0                                    	callx8	a5
    5839:	9aa052                                    	movi	a5, 154
    583c:	a28b                                    	addi.n	a10, a2, 8
    583e:	b45a                                    	add.n	a11, a4, a5
    5840:	ea9151                                    	l32r	a5, 284 (9ec0 <fill_vad_thrd_Nbands>)
    5843:	4c0c                                    	movi.n	a12, 4
    5845:	0005e0                                    	callx8	a5
    5848:	0388                                    	l32i.n	a8, a3, 0
    584a:	e8a092                                    	movi	a9, 232
    584d:	8fa4a2                                    	movi	a10, 0x48f
    5850:	66d992                                    	addmi	a9, a9, 0x6600
    5853:	11aac0                                    	slli	a10, a10, 4
    5856:	ea8c51                                    	l32r	a5, 288 (c580 <win_512_v3_nc>)
    5859:	f89a                                    	add.n	a15, a8, a9
    585b:	a8aa                                    	add.n	a10, a8, a10
    585d:	0b0c                                    	movi.n	a11, 0
    585f:	f0a0c2                                    	movi	a12, 240
    5862:	426252                                    	s32i	a5, a2, 0x108
    5865:	4362f2                                    	s32i	a15, a2, 0x10c
    5868:	4762a2                                    	s32i	a10, a2, 0x11c
    586b:	0007e0                                    	callx8	a7
    586e:	0358                                    	l32i.n	a5, a3, 0
    5870:	eda6d2                                    	movi	a13, 0x6ed
    5873:	334262                                    	s8i	a6, a2, 51
    5876:	116dc0                                    	slli	a6, a13, 4
    5879:	472272                                    	l32i	a7, a2, 0x11c
    587c:	62a1e2                                    	movi	a14, 0x162
    587f:	556a                                    	add.n	a5, a5, a6
    5881:	083c                                    	movi.n	a8, 48
    5883:	d259                                    	s32i.n	a5, a2, 52
    5885:	0f0c                                    	movi.n	a15, 0
    5887:	e9e751                                    	l32r	a5, 24 (a5c4 <xt_memcpy>)
    588a:	b4ea                                    	add.n	a11, a4, a14
    588c:	a72b                                    	addi.n	a10, a7, 2
    588e:	3c0c                                    	movi.n	a12, 3
    5890:	175282                                    	s16i	a8, a2, 46
    5893:	67fd                                    	ae_s16i.n	a15, a7, 0
    5895:	0005e0                                    	callx8	a5
    5898:	986c                                    	movi.n	a8, -23
    589a:	b79452                                    	l16si	a5, a4, 0x16e
    589d:	ea7b61                                    	l32r	a6, 28c (ffe9ffe9 <_end+0xffe926fd>)
    58a0:	f48080                                    	extui	a8, a8, 0, 16
    58a3:	44a1d2                                    	movi	a13, 0x144
    58a6:	6e2c                                    	movi.n	a14, 38
    58a8:	ee5752                                    	s16i	a5, a7, 0x1dc
    58ab:	1f0c                                    	movi.n	a15, 1
    58ad:	3769                                    	s32i.n	a6, a7, 12
    58af:	57da                                    	add.n	a5, a7, a13
    58b1:	085782                                    	s16i	a8, a7, 16
    58b4:	017f20                                    	slli	a7, a15, 30
    58b7:	038e76                                    	loop	a14, 58be <WB_NR_init+0x10a>
    58ba:	0579                                    	s32i.n	a7, a5, 0
    58bc:	554b                                    	addi.n	a5, a5, 4

000058be <WB_NR_init+0x10a>:
    58be:	004cc6                                    	j	59f5 <WB_NR_init+0x241>

000058c1 <WB_NR_init+0x10d>:
    58c1:	870c                                    	movi.n	a7, 8
    58c3:	a28b                                    	addi.n	a10, a2, 8
    58c5:	69d772                                    	addmi	a7, a7, 0x6900
    58c8:	f8a332                                    	movi	a3, 0x3f8
    58cb:	6f7a                                    	add.n	a6, a15, a7
    58cd:	b43a                                    	add.n	a11, a4, a3
    58cf:	3e6262                                    	s32i	a6, a2, 248
    58d2:	1ea472                                    	movi	a7, 0x41e
    58d5:	00a262                                    	movi	a6, 0x200
    58d8:	04c516                                    	beqz	a5, 5928 <WB_NR_init+0x174>
    58db:	ea6a51                                    	l32r	a5, 284 (9ec0 <fill_vad_thrd_Nbands>)
    58de:	747a                                    	add.n	a7, a4, a7
    58e0:	0005e0                                    	callx8	a5
    58e3:	3e2252                                    	l32i	a5, a2, 248
    58e6:	078676                                    	loop	a6, 58f1 <WB_NR_init+0x13d>
    58e9:	276d                                    	ae_l16si.n	a6, a7, 0
    58eb:	772b                                    	addi.n	a7, a7, 2
    58ed:	656d                                    	ae_s16i.n	a6, a5, 0
    58ef:	552b                                    	addi.n	a5, a5, 2

000058f1 <WB_NR_init+0x13d>:
    58f1:	e9ca31                                    	l32r	a3, 1c (d8e8 <p_ecnr_mem>)
    58f4:	04d452                                    	addmi	a5, a4, 0x400
    58f7:	029572                                    	l16si	a7, a5, 4
    58fa:	04d4d2                                    	addmi	a13, a4, 0x400
    58fd:	ac0c                                    	movi.n	a12, 10
    58ff:	ea64b1                                    	l32r	a11, 290 (c0c0 <win_rx_1024_v3>)
    5902:	0368                                    	l32i.n	a6, a3, 0
    5904:	dca1f2                                    	movi	a15, 0x1dc
    5907:	3342c2                                    	s8i	a12, a2, 51
    590a:	4262b2                                    	s32i	a11, a2, 0x108
    590d:	70d662                                    	addmi	a6, a6, 0x7000
    5910:	4a5672                                    	s16i	a7, a6, 148
    5913:	039552                                    	l16si	a5, a5, 6
    5916:	4b5652                                    	s16i	a5, a6, 150
    5919:	0d1de2                                    	l16ui	a14, a13, 26
    591c:	1752f2                                    	s16i	a15, a2, 46
    591f:	1352e2                                    	s16i	a14, a2, 38
    5922:	04de56                                    	bnez	a14, 5973 <WB_NR_init+0x1bf>
    5925:	001106                                    	j	596d <WB_NR_init+0x1b9>

00005928 <WB_NR_init+0x174>:
    5928:	5c0c                                    	movi.n	a12, 5
    592a:	b48a                                    	add.n	a11, a4, a8
    592c:	ea5651                                    	l32r	a5, 284 (9ec0 <fill_vad_thrd_Nbands>)
    592f:	1ea472                                    	movi	a7, 0x41e
    5932:	0005e0                                    	callx8	a5
    5935:	3e2252                                    	l32i	a5, a2, 248
    5938:	00a162                                    	movi	a6, 0x100
    593b:	747a                                    	add.n	a7, a4, a7
    593d:	078676                                    	loop	a6, 5948 <WB_NR_init+0x194>
    5940:	276d                                    	ae_l16si.n	a6, a7, 0
    5942:	772b                                    	addi.n	a7, a7, 2
    5944:	656d                                    	ae_s16i.n	a6, a5, 0
    5946:	552b                                    	addi.n	a5, a5, 2

00005948 <WB_NR_init+0x194>:
    5948:	e9b531                                    	l32r	a3, 1c (d8e8 <p_ecnr_mem>)
    594b:	9e0c                                    	movi.n	a14, 9
    594d:	639472                                    	l16si	a7, a4, 198
    5950:	eea0f2                                    	movi	a15, 238
    5953:	ea5061                                    	l32r	a6, 294 (b910 <win_rx_512_v3>)
    5956:	0358                                    	l32i.n	a5, a3, 0
    5958:	3342e2                                    	s8i	a14, a2, 51
    595b:	426262                                    	s32i	a6, a2, 0x108
    595e:	70d552                                    	addmi	a5, a5, 0x7000
    5961:	4a5572                                    	s16i	a7, a5, 148
    5964:	649472                                    	l16si	a7, a4, 200
    5967:	4b5572                                    	s16i	a7, a5, 150
    596a:	1752f2                                    	s16i	a15, a2, 46

0000596d <WB_NR_init+0x1b9>:
    596d:	589452                                    	l16si	a5, a4, 176
    5970:	135252                                    	s16i	a5, a2, 38
    5973:	629452                                    	l16si	a5, a4, 196
    5976:	eca0f2                                    	movi	a15, 236
    5979:	125252                                    	s16i	a5, a2, 36
    597c:	6194b2                                    	l16si	a11, a4, 194
    597f:	ea4051                                    	l32r	a5, 280 (9ee4 <complement_para>)
    5982:	a2fa                                    	add.n	a10, a2, a15
    5984:	579462                                    	l16si	a6, a4, 174
    5987:	5f94d2                                    	l16si	a13, a4, 190
    598a:	599472                                    	l16si	a7, a4, 178
    598d:	025262                                    	s16i	a6, a2, 4
    5990:	6094e2                                    	l16si	a14, a4, 192
    5993:	035272                                    	s16i	a7, a2, 6
    5996:	1052d2                                    	s16i	a13, a2, 32
    5999:	9ba562                                    	movi	a6, 0x59b
    599c:	1152e2                                    	s16i	a14, a2, 34
    599f:	dfa572                                    	movi	a7, 0x5df
    59a2:	0005e0                                    	callx8	a5
    59a5:	0358                                    	l32i.n	a5, a3, 0
    59a7:	49a182                                    	movi	a8, 0x149
    59aa:	98a092                                    	movi	a9, 152
    59ad:	3102e2                                    	l8ui	a14, a2, 49
    59b0:	1166c0                                    	slli	a6, a6, 4
    59b3:	1177c0                                    	slli	a7, a7, 4
    59b6:	1188a0                                    	slli	a8, a8, 6
    59b9:	70d992                                    	addmi	a9, a9, 0x7000
    59bc:	656a                                    	add.n	a6, a5, a6
    59be:	757a                                    	add.n	a7, a5, a7
    59c0:	858a                                    	add.n	a8, a5, a8
    59c2:	a59a                                    	add.n	a10, a5, a9
    59c4:	1f0c                                    	movi.n	a15, 1
    59c6:	e9d551                                    	l32r	a5, 11c (a5b0 <xt_memset>)
    59c9:	436262                                    	s32i	a6, a2, 0x10c
    59cc:	206ef0                                    	or	a6, a14, a15
    59cf:	0b0c                                    	movi.n	a11, 0
    59d1:	6c0c                                    	movi.n	a12, 6
    59d3:	446272                                    	s32i	a7, a2, 0x110
    59d6:	870c                                    	movi.n	a7, 8
    59d8:	456282                                    	s32i	a8, a2, 0x114
    59db:	6dd772                                    	addmi	a7, a7, 0x6d00
    59de:	314262                                    	s8i	a6, a2, 49
    59e1:	ada462                                    	movi	a6, 0x4ad
    59e4:	0005e0                                    	callx8	a5
    59e7:	0358                                    	l32i.n	a5, a3, 0
    59e9:	1166c0                                    	slli	a6, a6, 4
    59ec:	656a                                    	add.n	a6, a5, a6
    59ee:	557a                                    	add.n	a5, a5, a7
    59f0:	466262                                    	s32i	a6, a2, 0x118
    59f3:	d259                                    	s32i.n	a5, a2, 52
    59f5:	ea2851                                    	l32r	a5, 298 (9f7c <common_NR_init>)
    59f8:	02ad                                    	mov.n	a10, a2
    59fa:	31c8                                    	l32i.n	a12, a1, 12
    59fc:	04bd                                    	mov.n	a11, a4
    59fe:	0005e0                                    	callx8	a5
    5a01:	e98631                                    	l32r	a3, 1c (d8e8 <p_ecnr_mem>)
    5a04:	c1a242                                    	movi	a4, 0x2c1
    5a07:	1144c0                                    	slli	a4, a4, 4
    5a0a:	0338                                    	l32i.n	a3, a3, 0
    5a0c:	334a                                    	add.n	a3, a3, a4
    5a0e:	3f6232                                    	s32i	a3, a2, 252
    5a11:	f01d                                    	retw.n

00005a13 <WB_NR_init+0x25f>:
	...

00005a14 <WB_RX_NR_init>:
    5a14:	004136                                    	entry	a1, 32
    5a17:	e98151                                    	l32r	a5, 1c (d8e8 <p_ecnr_mem>)
    5a1a:	0a0c                                    	movi.n	a10, 0
    5a1c:	03bd                                    	mov.n	a11, a3
    5a1e:	04cd                                    	mov.n	a12, a4
    5a20:	0529                                    	s32i.n	a2, a5, 0
    5a22:	83a362                                    	movi	a6, 0x383
    5a25:	ea1d21                                    	l32r	a2, 29c (524 <RX_ECNR_PARA_init>)
    5a28:	1166b0                                    	slli	a6, a6, 5
    5a2b:	0002e0                                    	callx8	a2
    5a2e:	e97c21                                    	l32r	a2, 20 (d8e0 <aec_nr_para>)
    5a31:	f8a272                                    	movi	a7, 0x2f8
    5a34:	0538                                    	l32i.n	a3, a5, 0
    5a36:	0248                                    	l32i.n	a4, a2, 0
    5a38:	a36a                                    	add.n	a10, a3, a6
    5a3a:	e9cd31                                    	l32r	a3, 170 (1e28 <HP_coef_setup>)
    5a3d:	b47a                                    	add.n	a11, a4, a7
    5a3f:	f3a642                                    	movi	a4, 0x6f3
    5a42:	0003e0                                    	callx8	a3
    5a45:	0538                                    	l32i.n	a3, a5, 0
    5a47:	1144c0                                    	slli	a4, a4, 4
    5a4a:	02c8                                    	l32i.n	a12, a2, 0
    5a4c:	1b0c                                    	movi.n	a11, 1
    5a4e:	ea1421                                    	l32r	a2, 2a0 (57b4 <WB_NR_init>)
    5a51:	0d0c                                    	movi.n	a13, 0
    5a53:	a34a                                    	add.n	a10, a3, a4
    5a55:	0002e0                                    	callx8	a2
    5a58:	f01d                                    	retw.n

00005a5a <WB_RX_NR_init+0x46>:
	...

00005a5c <WB_RX_NR_frame_process>:
    5a5c:	004136                                    	entry	a1, 32
    5a5f:	e96f31                                    	l32r	a3, 1c (d8e8 <p_ecnr_mem>)
    5a62:	94a042                                    	movi	a4, 148
    5a65:	98a062                                    	movi	a6, 152
    5a68:	70d442                                    	addmi	a4, a4, 0x7000
    5a6b:	70d662                                    	addmi	a6, a6, 0x7000
    5a6e:	f0a0d2                                    	movi	a13, 240
    5a71:	0358                                    	l32i.n	a5, a3, 0
    5a73:	02ad                                    	mov.n	a10, a2
    5a75:	b54a                                    	add.n	a11, a5, a4
    5a77:	c56a                                    	add.n	a12, a5, a6
    5a79:	e9da51                                    	l32r	a5, 1e4 (260c <emph_filter_N>)
    5a7c:	f3a662                                    	movi	a6, 0x6f3
    5a7f:	0005e0                                    	callx8	a5
    5a82:	0358                                    	l32i.n	a5, a3, 0
    5a84:	1166c0                                    	slli	a6, a6, 4
    5a87:	02bd                                    	mov.n	a11, a2
    5a89:	02cd                                    	mov.n	a12, a2
    5a8b:	a56a                                    	add.n	a10, a5, a6
    5a8d:	ea0551                                    	l32r	a5, 2a4 (5aac <WB_NR_frame_process>)
    5a90:	0005e0                                    	callx8	a5
    5a93:	0338                                    	l32i.n	a3, a3, 0
    5a95:	9ca052                                    	movi	a5, 156
    5a98:	70d552                                    	addmi	a5, a5, 0x7000
    5a9b:	f0a0d2                                    	movi	a13, 240
    5a9e:	02ad                                    	mov.n	a10, a2
    5aa0:	b34a                                    	add.n	a11, a3, a4
    5aa2:	c35a                                    	add.n	a12, a3, a5
    5aa4:	e9cd31                                    	l32r	a3, 1d8 (269c <deemph_filter_N>)
    5aa7:	0003e0                                    	callx8	a3
    5aaa:	f01d                                    	retw.n

00005aac <WB_NR_frame_process>:
    5aac:	004136                                    	entry	a1, 32
    5aaf:	e9fe51                                    	l32r	a5, 2a8 (61a4 <fft_wo>)
    5ab2:	02ad                                    	mov.n	a10, a2
    5ab4:	03bd                                    	mov.n	a11, a3
    5ab6:	0005e0                                    	callx8	a5
    5ab9:	e9fc31                                    	l32r	a3, 2ac (63a4 <NR_vad1>)
    5abc:	02ad                                    	mov.n	a10, a2
    5abe:	0003e0                                    	callx8	a3
    5ac1:	e9fb31                                    	l32r	a3, 2b0 (658c <NR_vad2>)
    5ac4:	02ad                                    	mov.n	a10, a2
    5ac6:	0003e0                                    	callx8	a3
    5ac9:	e9fa31                                    	l32r	a3, 2b4 (680c <NR_NoiseEstimate>)
    5acc:	02ad                                    	mov.n	a10, a2
    5ace:	0003e0                                    	callx8	a3
    5ad1:	e9f931                                    	l32r	a3, 2b8 (69b4 <NR_NoiseWithGain>)
    5ad4:	02ad                                    	mov.n	a10, a2
    5ad6:	0003e0                                    	callx8	a3
    5ad9:	e9f831                                    	l32r	a3, 2bc (6ae4 <NR_WienerFilter>)
    5adc:	02ad                                    	mov.n	a10, a2
    5ade:	0003e0                                    	callx8	a3
    5ae1:	e9f731                                    	l32r	a3, 2c0 (7070 <ifft_wo_single>)
    5ae4:	02ad                                    	mov.n	a10, a2
    5ae6:	04bd                                    	mov.n	a11, a4
    5ae8:	0003e0                                    	callx8	a3
    5aeb:	f01d                                    	retw.n

00005aed <WB_NR_frame_process+0x41>:
    5aed:	000000                                        ...

00005af0 <NB_NR_init>:
    5af0:	004136                                    	entry	a1, 32
    5af3:	e98a61                                    	l32r	a6, 11c (a5b0 <xt_memset>)
    5af6:	0b0c                                    	movi.n	a11, 0
    5af8:	98a0c2                                    	movi	a12, 152
    5afb:	02ad                                    	mov.n	a10, a2
    5afd:	0006e0                                    	callx8	a6
    5b00:	e94731                                    	l32r	a3, 1c (d8e8 <p_ecnr_mem>)
    5b03:	850c                                    	movi.n	a5, 8
    5b05:	e94641                                    	l32r	a4, 20 (d8e0 <aec_nr_para>)
    5b08:	69d552                                    	addmi	a5, a5, 0x6900
    5b0b:	eca0e2                                    	movi	a14, 236
    5b0e:	0378                                    	l32i.n	a7, a3, 0
    5b10:	0488                                    	l32i.n	a8, a4, 0
    5b12:	575a                                    	add.n	a5, a7, a5
    5b14:	4b98b2                                    	l16si	a11, a8, 150
    5b17:	3e6252                                    	s32i	a5, a2, 248
    5b1a:	4a98a2                                    	l16si	a10, a8, 148
    5b1d:	1352b2                                    	s16i	a11, a2, 38
    5b20:	0252a2                                    	s16i	a10, a2, 4
    5b23:	5398b2                                    	l16si	a11, a8, 166
    5b26:	549892                                    	l16si	a9, a8, 168
    5b29:	4c98c2                                    	l16si	a12, a8, 152
    5b2c:	e9d551                                    	l32r	a5, 280 (9ee4 <complement_para>)
    5b2f:	a2ea                                    	add.n	a10, a2, a14
    5b31:	5198d2                                    	l16si	a13, a8, 162
    5b34:	125292                                    	s16i	a9, a2, 36
    5b37:	5298f2                                    	l16si	a15, a8, 164
    5b3a:	0352c2                                    	s16i	a12, a2, 6
    5b3d:	1052d2                                    	s16i	a13, a2, 32
    5b40:	1152f2                                    	s16i	a15, a2, 34
    5b43:	0005e0                                    	callx8	a5
    5b46:	0478                                    	l32i.n	a7, a4, 0
    5b48:	9aa082                                    	movi	a8, 154
    5b4b:	a28b                                    	addi.n	a10, a2, 8
    5b4d:	4c0c                                    	movi.n	a12, 4
    5b4f:	b78a                                    	add.n	a11, a7, a8
    5b51:	e9cc71                                    	l32r	a7, 284 (9ec0 <fill_vad_thrd_Nbands>)
    5b54:	0007e0                                    	callx8	a7
    5b57:	0478                                    	l32i.n	a7, a4, 0
    5b59:	3e2282                                    	l32i	a8, a2, 248
    5b5c:	1ea492                                    	movi	a9, 0x41e
    5b5f:	80a0a2                                    	movi	a10, 128
    5b62:	809790                                    	add	a9, a7, a9
    5b65:	078a76                                    	loop	a10, 5b70 <NB_NR_init+0x80>
    5b68:	29ad                                    	ae_l16si.n	a10, a9, 0
    5b6a:	992b                                    	addi.n	a9, a9, 2
    5b6c:	68ad                                    	ae_s16i.n	a10, a8, 0
    5b6e:	882b                                    	addi.n	a8, a8, 2

00005b70 <NB_NR_init+0x80>:
    5b70:	e9d581                                    	l32r	a8, 2c4 (bb30 <win_rx_256_v3>)
    5b73:	9ba5a2                                    	movi	a10, 0x59b
    5b76:	426282                                    	s32i	a8, a2, 0x108
    5b79:	0398                                    	l32i.n	a9, a3, 0
    5b7b:	310282                                    	l8ui	a8, a2, 49
    5b7e:	11aac0                                    	slli	a10, a10, 4
    5b81:	dfa5b2                                    	movi	a11, 0x5df
    5b84:	49a1c2                                    	movi	a12, 0x149
    5b87:	1e0c                                    	movi.n	a14, 1
    5b89:	11bbc0                                    	slli	a11, a11, 4
    5b8c:	2088e0                                    	or	a8, a8, a14
    5b8f:	11cca0                                    	slli	a12, a12, 6
    5b92:	5597f2                                    	l16si	a15, a7, 170
    5b95:	a9aa                                    	add.n	a10, a9, a10
    5b97:	70d9d2                                    	addmi	a13, a9, 0x7000
    5b9a:	98a0e2                                    	movi	a14, 152
    5b9d:	4a5df2                                    	s16i	a15, a13, 148
    5ba0:	b9ba                                    	add.n	a11, a9, a11
    5ba2:	4362a2                                    	s32i	a10, a2, 0x10c
    5ba5:	70dea2                                    	addmi	a10, a14, 0x7000
    5ba8:	c9ca                                    	add.n	a12, a9, a12
    5baa:	5697f2                                    	l16si	a15, a7, 172
    5bad:	4462b2                                    	s32i	a11, a2, 0x110
    5bb0:	a9aa                                    	add.n	a10, a9, a10
    5bb2:	4562c2                                    	s32i	a12, a2, 0x114
    5bb5:	0b0c                                    	movi.n	a11, 0
    5bb7:	6c0c                                    	movi.n	a12, 6
    5bb9:	314282                                    	s8i	a8, a2, 49
    5bbc:	4b5df2                                    	s16i	a15, a13, 150
    5bbf:	771c                                    	movi.n	a7, 23
    5bc1:	0006e0                                    	callx8	a6
    5bc4:	0398                                    	l32i.n	a9, a3, 0
    5bc6:	ada4a2                                    	movi	a10, 0x4ad
    5bc9:	8b0c                                    	movi.n	a11, 8
    5bcb:	11aac0                                    	slli	a10, a10, 4
    5bce:	6ddbb2                                    	addmi	a11, a11, 0x6d00
    5bd1:	767c                                    	movi.n	a6, -9
    5bd3:	c9aa                                    	add.n	a12, a9, a10
    5bd5:	99ba                                    	add.n	a9, a9, a11
    5bd7:	b0a0f2                                    	movi	a15, 176
    5bda:	7a0c                                    	movi.n	a10, 7
    5bdc:	016650                                    	slli	a6, a6, 27
    5bdf:	117750                                    	slli	a7, a7, 11
    5be2:	b2fa                                    	add.n	a11, a2, a15
    5be4:	c80c                                    	movi.n	a8, 12
    5be6:	4662c2                                    	s32i	a12, a2, 0x118
    5be9:	09cd                                    	mov.n	a12, a9
    5beb:	3342a2                                    	s8i	a10, a2, 51
    5bee:	d299                                    	s32i.n	a9, a2, 52

00005bf0 <NB_NR_init+0x100>:
    5bf0:	0b69                                    	s32i.n	a6, a11, 0
    5bf2:	038876                                    	loop	a8, 5bf9 <NB_NR_init+0x109>
    5bf5:	6c7d                                    	ae_s16i.n	a7, a12, 0
    5bf7:	cc2b                                    	addi.n	a12, a12, 2

00005bf9 <NB_NR_init+0x109>:
    5bf9:	aa0b                                    	addi.n	a10, a10, -1
    5bfb:	18c992                                    	addi	a9, a9, 24
    5bfe:	bb4b                                    	addi.n	a11, a11, 4
    5c00:	09cd                                    	mov.n	a12, a9
    5c02:	feaa56                                    	bnez	a10, 5bf0 <NB_NR_init+0x100>
    5c05:	0468                                    	l32i.n	a6, a4, 0
    5c07:	d8a072                                    	movi	a7, 216
    5c0a:	a27a                                    	add.n	a10, a2, a7
    5c0c:	dca072                                    	movi	a7, 220
    5c0f:	4396b2                                    	l16si	a11, a6, 134
    5c12:	0005e0                                    	callx8	a5
    5c15:	0468                                    	l32i.n	a6, a4, 0
    5c17:	a27a                                    	add.n	a10, a2, a7
    5c19:	4496b2                                    	l16si	a11, a6, 136
    5c1c:	e0a072                                    	movi	a7, 224
    5c1f:	0005e0                                    	callx8	a5
    5c22:	0468                                    	l32i.n	a6, a4, 0
    5c24:	a27a                                    	add.n	a10, a2, a7
    5c26:	4596b2                                    	l16si	a11, a6, 138
    5c29:	e4a072                                    	movi	a7, 228
    5c2c:	0005e0                                    	callx8	a5
    5c2f:	0468                                    	l32i.n	a6, a4, 0
    5c31:	a27a                                    	add.n	a10, a2, a7
    5c33:	4696b2                                    	l16si	a11, a6, 140
    5c36:	e8a072                                    	movi	a7, 232
    5c39:	0005e0                                    	callx8	a5
    5c3c:	0468                                    	l32i.n	a6, a4, 0
    5c3e:	a27a                                    	add.n	a10, a2, a7
    5c40:	170c                                    	movi.n	a7, 1
    5c42:	4796b2                                    	l16si	a11, a6, 142
    5c45:	c1a262                                    	movi	a6, 0x2c1
    5c48:	0005e0                                    	callx8	a5
    5c4b:	0448                                    	l32i.n	a4, a4, 0
    5c4d:	78a052                                    	movi	a5, 120
    5c50:	996c                                    	movi.n	a9, -23
    5c52:	ffa7f2                                    	movi	a15, 0x7ff
    5c55:	304272                                    	s8i	a7, a2, 48
    5c58:	f47090                                    	extui	a7, a9, 0, 16
    5c5b:	175252                                    	s16i	a5, a2, 46
    5c5e:	0448                                    	l32i.n	a4, a4, 0
    5c60:	115fb0                                    	slli	a5, a15, 5
    5c63:	0249                                    	s32i.n	a4, a2, 0
    5c65:	0338                                    	l32i.n	a3, a3, 0
    5c67:	1166c0                                    	slli	a6, a6, 4
    5c6a:	f7a1b2                                    	movi	a11, 0x1f7
    5c6d:	f7a3c2                                    	movi	a12, 0x3f7
    5c70:	795272                                    	s16i	a7, a2, 242
    5c73:	117bd0                                    	slli	a7, a11, 3
    5c76:	7b5252                                    	s16i	a5, a2, 246
    5c79:	e36a                                    	add.n	a14, a3, a6
    5c7b:	115ce0                                    	slli	a5, a12, 2
    5c7e:	452232                                    	l32i	a3, a2, 0x114
    5c81:	747a                                    	add.n	a7, a4, a7
    5c83:	00a182                                    	movi	a8, 0x100
    5c86:	e941a1                                    	l32r	a10, 18c (7fff0000 <_end+0x7ffe2714>)
    5c89:	445a                                    	add.n	a4, a4, a5
    5c8b:	78a0d2                                    	movi	a13, 120
    5c8e:	1f0c                                    	movi.n	a15, 1
    5c90:	145282                                    	s16i	a8, a2, 40
    5c93:	4962a2                                    	s32i	a10, a2, 0x124
    5c96:	406272                                    	s32i	a7, a2, 0x100
    5c99:	416242                                    	s32i	a4, a2, 0x104
    5c9c:	3f62e2                                    	s32i	a14, a2, 252
    5c9f:	012f20                                    	slli	a2, a15, 30
    5ca2:	038d76                                    	loop	a13, 5ca9 <NB_NR_init+0x1b9>
    5ca5:	0329                                    	s32i.n	a2, a3, 0
    5ca7:	334b                                    	addi.n	a3, a3, 4
    5ca9:	f01d                                    	retw.n

00005cab <NB_NR_init+0x1bb>:
	...

00005cac <NB_RX_NR_init>:
    5cac:	004136                                    	entry	a1, 32
    5caf:	e8db51                                    	l32r	a5, 1c (d8e8 <p_ecnr_mem>)
    5cb2:	1a0c                                    	movi.n	a10, 1
    5cb4:	04cd                                    	mov.n	a12, a4
    5cb6:	03bd                                    	mov.n	a11, a3
    5cb8:	0529                                    	s32i.n	a2, a5, 0
    5cba:	83a342                                    	movi	a4, 0x383
    5cbd:	e97721                                    	l32r	a2, 29c (524 <RX_ECNR_PARA_init>)
    5cc0:	24a362                                    	movi	a6, 0x324
    5cc3:	0002e0                                    	callx8	a2
    5cc6:	e8d621                                    	l32r	a2, 20 (d8e0 <aec_nr_para>)
    5cc9:	1144b0                                    	slli	a4, a4, 5
    5ccc:	0538                                    	l32i.n	a3, a5, 0
    5cce:	0228                                    	l32i.n	a2, a2, 0
    5cd0:	a34a                                    	add.n	a10, a3, a4
    5cd2:	f3a632                                    	movi	a3, 0x6f3
    5cd5:	b26a                                    	add.n	a11, a2, a6
    5cd7:	e92621                                    	l32r	a2, 170 (1e28 <HP_coef_setup>)
    5cda:	0002e0                                    	callx8	a2
    5cdd:	0528                                    	l32i.n	a2, a5, 0
    5cdf:	1133c0                                    	slli	a3, a3, 4
    5ce2:	a23a                                    	add.n	a10, a2, a3
    5ce4:	e97921                                    	l32r	a2, 2c8 (5af0 <NB_NR_init>)
    5ce7:	0002e0                                    	callx8	a2
    5cea:	f01d                                    	retw.n

00005cec <NB_RX_NR_frame_process>:
    5cec:	004136                                    	entry	a1, 32
    5cef:	e8cb31                                    	l32r	a3, 1c (d8e8 <p_ecnr_mem>)
    5cf2:	94a042                                    	movi	a4, 148
    5cf5:	98a062                                    	movi	a6, 152
    5cf8:	70d442                                    	addmi	a4, a4, 0x7000
    5cfb:	70d662                                    	addmi	a6, a6, 0x7000
    5cfe:	78a0d2                                    	movi	a13, 120
    5d01:	0358                                    	l32i.n	a5, a3, 0
    5d03:	02ad                                    	mov.n	a10, a2
    5d05:	b54a                                    	add.n	a11, a5, a4
    5d07:	c56a                                    	add.n	a12, a5, a6
    5d09:	e93651                                    	l32r	a5, 1e4 (260c <emph_filter_N>)
    5d0c:	f3a662                                    	movi	a6, 0x6f3
    5d0f:	0005e0                                    	callx8	a5
    5d12:	0358                                    	l32i.n	a5, a3, 0
    5d14:	1166c0                                    	slli	a6, a6, 4
    5d17:	02bd                                    	mov.n	a11, a2
    5d19:	02cd                                    	mov.n	a12, a2
    5d1b:	a56a                                    	add.n	a10, a5, a6
    5d1d:	e96b51                                    	l32r	a5, 2cc (5d3c <NB_NR_frame_process>)
    5d20:	0005e0                                    	callx8	a5
    5d23:	0338                                    	l32i.n	a3, a3, 0
    5d25:	9ca052                                    	movi	a5, 156
    5d28:	70d552                                    	addmi	a5, a5, 0x7000
    5d2b:	78a0d2                                    	movi	a13, 120
    5d2e:	02ad                                    	mov.n	a10, a2
    5d30:	b34a                                    	add.n	a11, a3, a4
    5d32:	c35a                                    	add.n	a12, a3, a5
    5d34:	e92931                                    	l32r	a3, 1d8 (269c <deemph_filter_N>)
    5d37:	0003e0                                    	callx8	a3
    5d3a:	f01d                                    	retw.n

00005d3c <NB_NR_frame_process>:
    5d3c:	004136                                    	entry	a1, 32
    5d3f:	e95a51                                    	l32r	a5, 2a8 (61a4 <fft_wo>)
    5d42:	02ad                                    	mov.n	a10, a2
    5d44:	03bd                                    	mov.n	a11, a3
    5d46:	0005e0                                    	callx8	a5
    5d49:	e95831                                    	l32r	a3, 2ac (63a4 <NR_vad1>)
    5d4c:	02ad                                    	mov.n	a10, a2
    5d4e:	0003e0                                    	callx8	a3
    5d51:	e95731                                    	l32r	a3, 2b0 (658c <NR_vad2>)
    5d54:	02ad                                    	mov.n	a10, a2
    5d56:	0003e0                                    	callx8	a3
    5d59:	e95631                                    	l32r	a3, 2b4 (680c <NR_NoiseEstimate>)
    5d5c:	02ad                                    	mov.n	a10, a2
    5d5e:	0003e0                                    	callx8	a3
    5d61:	e95531                                    	l32r	a3, 2b8 (69b4 <NR_NoiseWithGain>)
    5d64:	02ad                                    	mov.n	a10, a2
    5d66:	0003e0                                    	callx8	a3
    5d69:	e95431                                    	l32r	a3, 2bc (6ae4 <NR_WienerFilter>)
    5d6c:	02ad                                    	mov.n	a10, a2
    5d6e:	0003e0                                    	callx8	a3
    5d71:	e95331                                    	l32r	a3, 2c0 (7070 <ifft_wo_single>)
    5d74:	02ad                                    	mov.n	a10, a2
    5d76:	04bd                                    	mov.n	a11, a4
    5d78:	0003e0                                    	callx8	a3
    5d7b:	f01d                                    	retw.n

00005d7d <NB_NR_frame_process+0x41>:
    5d7d:	000000                                        ...

00005d80 <NOISE_GEN_init>:
    5d80:	004136                                    	entry	a1, 32
    5d83:	e8a631                                    	l32r	a3, 1c (d8e8 <p_ecnr_mem>)
    5d86:	69a452                                    	movi	a5, 0x469
    5d89:	e8a541                                    	l32r	a4, 20 (d8e0 <aec_nr_para>)
    5d8c:	1155c0                                    	slli	a5, a5, 4
    5d8f:	0b0c                                    	movi.n	a11, 0
    5d91:	02dd                                    	mov.n	a13, a2
    5d93:	0338                                    	l32i.n	a3, a3, 0
    5d95:	04c8                                    	l32i.n	a12, a4, 0
    5d97:	a35a                                    	add.n	a10, a3, a5
    5d99:	e94131                                    	l32r	a3, 2a0 (57b4 <WB_NR_init>)
    5d9c:	0003e0                                    	callx8	a3
    5d9f:	f01d                                    	retw.n

00005da1 <NOISE_GEN_init+0x21>:
    5da1:	000000                                        ...

00005da4 <NC_NOISE_EST_init>:
    5da4:	004136                                    	entry	a1, 32
    5da7:	e89d31                                    	l32r	a3, 1c (d8e8 <p_ecnr_mem>)
    5daa:	1fa142                                    	movi	a4, 0x11f
    5dad:	1144a0                                    	slli	a4, a4, 6
    5db0:	2b0c                                    	movi.n	a11, 2
    5db2:	0d0c                                    	movi.n	a13, 0
    5db4:	02cd                                    	mov.n	a12, a2
    5db6:	0338                                    	l32i.n	a3, a3, 0
    5db8:	a34a                                    	add.n	a10, a3, a4
    5dba:	e93931                                    	l32r	a3, 2a0 (57b4 <WB_NR_init>)
    5dbd:	0003e0                                    	callx8	a3
    5dc0:	f01d                                    	retw.n

00005dc2 <NC_NOISE_EST_init+0x1e>:
	...

00005dc4 <NC_NOISE_EST_Prcs>:
    5dc4:	006136                                    	entry	a1, 48
    5dc7:	1fa142                                    	movi	a4, 0x11f
    5dca:	e93751                                    	l32r	a5, 2a8 (61a4 <fft_wo>)
    5dcd:	1144a0                                    	slli	a4, a4, 6
    5dd0:	03bd                                    	mov.n	a11, a3
    5dd2:	424a                                    	add.n	a4, a2, a4
    5dd4:	04ad                                    	mov.n	a10, a4
    5dd6:	0005e0                                    	callx8	a5
    5dd9:	e93431                                    	l32r	a3, 2ac (63a4 <NR_vad1>)
    5ddc:	04ad                                    	mov.n	a10, a4
    5dde:	0003e0                                    	callx8	a3
    5de1:	e93331                                    	l32r	a3, 2b0 (658c <NR_vad2>)
    5de4:	04ad                                    	mov.n	a10, a4
    5de6:	0003e0                                    	callx8	a3
    5de9:	48d242                                    	addmi	a4, a2, 0x4800
    5dec:	312432                                    	l32i	a3, a4, 196
    5def:	372452                                    	l32i	a5, a4, 220
    5df2:	0368                                    	l32i.n	a6, a3, 0
    5df4:	0d0c                                    	movi.n	a13, 0
    5df6:	1116e6                                    	bgei	a6, 1, 5e0b <NC_NOISE_EST_Prcs+0x47>
    5df9:	1348                                    	l32i.n	a4, a3, 4
    5dfb:	0c14e6                                    	bgei	a4, 1, 5e0b <NC_NOISE_EST_Prcs+0x47>
    5dfe:	2348                                    	l32i.n	a4, a3, 8
    5e00:	0714e6                                    	bgei	a4, 1, 5e0b <NC_NOISE_EST_Prcs+0x47>
    5e03:	3338                                    	l32i.n	a3, a3, 12
    5e05:	0213e6                                    	bgei	a3, 1, 5e0b <NC_NOISE_EST_Prcs+0x47>
    5e08:	0075c6                                    	j	5fe3 <NC_NOISE_EST_Prcs+0x21f>

00005e0b <NC_NOISE_EST_Prcs+0x47>:
    5e0b:	1d0c                                    	movi.n	a13, 1
    5e0d:	090532                                    	l8ui	a3, a5, 9
    5e10:	66a672                                    	movi	a7, 0x666
    5e13:	17d316                                    	beqz	a3, 5f94 <NC_NOISE_EST_Prcs+0x1d0>
    5e16:	070c                                    	movi.n	a7, 0
    5e18:	0895c2                                    	l16si	a12, a5, 16
    5e1b:	aca062                                    	movi	a6, 172
    5e1e:	44a1e2                                    	movi	a14, 0x144
    5e21:	061582                                    	l16ui	a8, a5, 12
    5e24:	35ea                                    	add.n	a3, a5, a14
    5e26:	456a                                    	add.n	a4, a5, a6
    5e28:	9cad                                    	ae_zext16	a10, a12
    5e2a:	03bd                                    	mov.n	a11, a3
    5e2c:	1a1a87                                    	beq	a10, a8, 5e4a <NC_NOISE_EST_Prcs+0x86>
    5e2f:	31d9                                    	s32i.n	a13, a1, 12
    5e31:	6e2c                                    	movi.n	a14, 38
    5e33:	88dd                                    	ae_sext16	a13, a8
    5e35:	e92681                                    	l32r	a8, 2d0 (60f8 <equal_power>)
    5e38:	20a440                                    	or	a10, a4, a4
    5e3b:	0008e0                                    	callx8	a8
    5e3e:	0321d2                                    	l32i	a13, a1, 12
    5e41:	44a1e2                                    	movi	a14, 0x144
    5e44:	0655a2                                    	s16i	a10, a5, 12
    5e47:	0855a2                                    	s16i	a10, a5, 16
    5e4a:	190c                                    	movi.n	a9, 1
    5e4c:	26a0b2                                    	movi	a11, 38
    5e4f:	0d07404004a34c0e                  	{ ae_movi	aed0, 0; ae_movi	aed3, 0 }
    5e57:	119910                                    	slli	a9, a9, 15
    5e5a:	40a1f2                                    	movi	a15, 0x140
    5e5d:	2705054304e1497e                  	{ sub	a12, a9, a7; ae_l32m.x	aed1, a5, a6 }
    5e65:	3902924014b1e7ce                  	{ ae_cvtp24a16x2.ll	aed2, a7, a12; addmi	a8, a2, 0x4700 }
    5e6d:	8065f0                                    	add	a6, a5, a15
    5e70:	050041c008a44b0e                  	{ loop	a11, 5eb5 <NC_NOISE_EST_Prcs+0xf1>; ae_sel16i	aed4, aed2, aed2, 1 }
    5e78:	230720c108c5716e                  	{ ae_l32m.iu	aed5, a6, 4; nop }
    5e80:	224013333ca207ce                  	{ beqz.w15	a7, 5ea3 <NC_NOISE_EST_Prcs+0xdf>; nop; ae_mulf48q32sp16s.l	aed6, aed5, aed2 }
    5e88:	1e8294333024114e                  	{ ae_l32m.iu	aed1, a4, 4; nop; ae_mulaf48q32sp16s.l	aed6, aed1, aed4 }
    5e90:	0ead217b0d3d0c30c38cc1390001846f 	{ ae_s32m.i	aed6, a6, 0; nop; nop; ae_max64	aed3, aed3, aed6 }
    5ea0:	0003c6                                    	j	5eb3 <NC_NOISE_EST_Prcs+0xef>

00005ea3 <NC_NOISE_EST_Prcs+0xdf>:
    5ea3:	0ead217b0d3c0c30c38ca1381001414f 	{ ae_l32m.iu	aed1, a4, 4; nop; nop; ae_max64	aed3, aed3, aed5 }
    5eb3:	f03d                                    	nop.n

00005eb5 <NC_NOISE_EST_Prcs+0xf1>:
    5eb5:	0eace570052096d0c400813b0c01043f 	{ ae_nsa64	a4, aed3; movi	a6, 9; nop; nop }
    5ec5:	44a1f2                                    	movi	a15, 0x144
    5ec8:	f8c442                                    	addi	a4, a4, -8
    5ecb:	692c                                    	movi.n	a9, 38
    5ecd:	f8c472                                    	addi	a7, a4, -8
    5ed0:	162467                                    	blt	a4, a6, 5eea <NC_NOISE_EST_Prcs+0x126>
    5ed3:	c0aa70                                    	sub	a10, a10, a7
    5ed6:	401700                                    	ssl	a7
    5ed9:	45fa                                    	add.n	a4, a5, a15
    5edb:	0655a2                                    	s16i	a10, a5, 12
    5ede:	088976                                    	loop	a9, 5eea <NC_NOISE_EST_Prcs+0x126>
    5ee1:	0468                                    	l32i.n	a6, a4, 0
    5ee3:	a16600                                    	sll	a6, a6
    5ee6:	0469                                    	s32i.n	a6, a4, 0
    5ee8:	444b                                    	addi.n	a4, a4, 4

00005eea <NC_NOISE_EST_Prcs+0x126>:
    5eea:	302862                                    	l32i	a6, a8, 192
    5eed:	672c                                    	movi.n	a7, 38
    5eef:	054d                                    	mov.n	a4, a5
    5ef1:	66cb                                    	addi.n	a6, a6, 12
    5ef3:	0c8776                                    	loop	a7, 5f03 <NC_NOISE_EST_Prcs+0x13f>
    5ef6:	5478                                    	l32i.n	a7, a4, 20
    5ef8:	2b6472                                    	s32i	a7, a4, 172
    5efb:	0678                                    	l32i.n	a7, a6, 0
    5efd:	664b                                    	addi.n	a6, a6, 4
    5eff:	5479                                    	s32i.n	a7, a4, 20
    5f01:	444b                                    	addi.n	a4, a4, 4

00005f03 <NC_NOISE_EST_Prcs+0x13f>:
    5f03:	48d222                                    	addmi	a2, a2, 0x4800
    5f06:	354d                                    	ae_l16si.n	a4, a5, 2
    5f08:	080572                                    	l8ui	a7, a5, 8
    5f0b:	589222                                    	l16si	a2, a2, 176
    5f0e:	079562                                    	l16si	a6, a5, 14
    5f11:	0845d2                                    	s8i	a13, a5, 8
    5f14:	085562                                    	s16i	a6, a5, 16
    5f17:	860c                                    	movi.n	a6, 8
    5f19:	ff1c                                    	movi.n	a15, 31
    5f1b:	094572                                    	s8i	a7, a5, 9
    5f1e:	075522                                    	s16i	a2, a5, 14
    5f21:	09b416                                    	beqz	a4, 5fc0 <NC_NOISE_EST_Prcs+0x1fc>
    5f24:	8a2d                                    	ae_sext16	a2, a10
    5f26:	2f05054014e1462e                  	{ sub	a2, a6, a2; ae_l32m.x	aed1, a5, a14 }
    5f2e:	4322f0                                    	min	a2, a2, a15
    5f31:	662c                                    	movi.n	a6, 38
    5f33:	08b296                                    	bltz	a2, 5fc2 <NC_NOISE_EST_Prcs+0x1fe>
    5f36:	0020f0                                    	nop
    5f39:	f03d                                    	nop.n
    5f3b:	f03d                                    	nop.n
    5f3d:	178676                                    	loop	a6, 5f58 <NC_NOISE_EST_Prcs+0x194>
    5f40:	220700c008a5521e                  	{ ae_sraaq56	aed1, aed1, a2; nop }
    5f48:	0eacc57908e431d0c48081380801c00f 	{ ae_addsq56s	aed0, aed0, aed1; ae_l32m.iu	aed1, a3, 4; nop; nop }

00005f58 <NC_NOISE_EST_Prcs+0x194>:
    5f58:	e8df21                                    	l32r	a2, 2d4 (35e5100 <_end+0x35d7814>)
    5f5b:	031c                                    	movi.n	a3, 16
    5f5d:	300702400041030e                  	{ ae_trunca32x2f64s	aed0, aed0, aed0, a3; ae_movda32	aed1, a2 }
    5f65:	2281c7062001053e                  	{ l16si	a3, a5, 0; nop; ae_mulf32r.ll	aed0, aed0, aed1 }
    5f6d:	0ead217b0c640cd0c50061381401057f 	{ l16si	a7, a5, 4; nop; nop; ae_roundsq32f48sym	aed0, aed0 }
    5f7d:	3603654000c0a21e                  	{ ae_s32m.i	aed0, a1, 8; l16si	a6, a5, 6 }
    5f85:	2128                                    	l32i.n	a2, a1, 8
    5f87:	212820                                    	srai	a2, a2, 8
    5f8a:	12a247                                    	bge	a2, a4, 5fa0 <NC_NOISE_EST_Prcs+0x1dc>
    5f8d:	373a                                    	add.n	a3, a7, a3
    5f8f:	000406                                    	j	5fa3 <NC_NOISE_EST_Prcs+0x1df>

00005f92 <NC_NOISE_EST_Prcs+0x1ce>:
	...

00005f94 <NC_NOISE_EST_Prcs+0x1d0>:
    5f94:	080532                                    	l8ui	a3, a5, 8
    5f97:	e7bd56                                    	bnez	a13, 5e16 <NC_NOISE_EST_Prcs+0x52>
    5f9a:	e7a316                                    	beqz	a3, 5e18 <NC_NOISE_EST_Prcs+0x54>
    5f9d:	ff9d46                                    	j	5e16 <NC_NOISE_EST_Prcs+0x52>

00005fa0 <NC_NOISE_EST_Prcs+0x1dc>:
    5fa0:	c03360                                    	sub	a3, a3, a6
    5fa3:	ee9572                                    	l16si	a7, a5, 0x1dc
    5fa6:	1f0c                                    	movi.n	a15, 1
    5fa8:	a33d                                    	ae_clamps16	a3, a3
    5faa:	060c                                    	movi.n	a6, 0
    5fac:	722270                                    	salt	a2, a2, a7
    5faf:	724470                                    	salt	a4, a4, a7
    5fb2:	3022f0                                    	xor	a2, a2, a15
    5fb5:	533360                                    	max	a3, a3, a6
    5fb8:	102420                                    	and	a2, a4, a2
    5fbb:	653d                                    	ae_s16i.n	a3, a5, 0
    5fbd:	ef5522                                    	s16i	a2, a5, 0x1de
    5fc0:	f01d                                    	retw.n

00005fc2 <NC_NOISE_EST_Prcs+0x1fe>:
    5fc2:	602020                                    	neg	a2, a2
    5fc5:	178676                                    	loop	a6, 5fe0 <NC_NOISE_EST_Prcs+0x21c>
    5fc8:	220700c010a5521e                  	{ ae_slaasq56s	aed1, aed1, a2; nop }
    5fd0:	0eacc57908e431d0c48081380801c00f 	{ ae_addsq56s	aed0, aed0, aed1; ae_l32m.iu	aed1, a3, 4; nop; nop }

00005fe0 <NC_NOISE_EST_Prcs+0x21c>:
    5fe0:	ffdd06                                    	j	5f58 <NC_NOISE_EST_Prcs+0x194>

00005fe3 <NC_NOISE_EST_Prcs+0x21f>:
    5fe3:	ff8986                                    	j	5e0d <NC_NOISE_EST_Prcs+0x49>

00005fe6 <NC_NOISE_EST_Prcs+0x222>:
	...

00005fe8 <SWB_RX_NR_init>:
    5fe8:	004136                                    	entry	a1, 32
    5feb:	e80d61                                    	l32r	a6, 20 (d8e0 <aec_nr_para>)
    5fee:	03bd                                    	mov.n	a11, a3
    5ff0:	e80b71                                    	l32r	a7, 1c (d8e8 <p_ecnr_mem>)
    5ff3:	04cd                                    	mov.n	a12, a4
    5ff5:	06a8                                    	l32i.n	a10, a6, 0
    5ff7:	0729                                    	s32i.n	a2, a7, 0
    5ff9:	e86e21                                    	l32r	a2, 1b4 (62c <ECNR_SWB_PARA_init>)
    5ffc:	0002e0                                    	callx8	a2
    5fff:	e8a721                                    	l32r	a2, 29c (524 <RX_ECNR_PARA_init>)
    6002:	2a0c                                    	movi.n	a10, 2
    6004:	03bd                                    	mov.n	a11, a3
    6006:	05cd                                    	mov.n	a12, a5
    6008:	0002e0                                    	callx8	a2
    600b:	0628                                    	l32i.n	a2, a6, 0
    600d:	0748                                    	l32i.n	a4, a7, 0
    600f:	83a352                                    	movi	a5, 0x383
    6012:	bca332                                    	movi	a3, 0x3bc
    6015:	1155b0                                    	slli	a5, a5, 5
    6018:	b23a                                    	add.n	a11, a2, a3
    601a:	e85521                                    	l32r	a2, 170 (1e28 <HP_coef_setup>)
    601d:	a45a                                    	add.n	a10, a4, a5
    601f:	f3a632                                    	movi	a3, 0x6f3
    6022:	0002e0                                    	callx8	a2
    6025:	0728                                    	l32i.n	a2, a7, 0
    6027:	1133c0                                    	slli	a3, a3, 4
    602a:	06c8                                    	l32i.n	a12, a6, 0
    602c:	1b0c                                    	movi.n	a11, 1
    602e:	1d0c                                    	movi.n	a13, 1
    6030:	a23a                                    	add.n	a10, a2, a3
    6032:	e89b21                                    	l32r	a2, 2a0 (57b4 <WB_NR_init>)
    6035:	0002e0                                    	callx8	a2
    6038:	f01d                                    	retw.n

0000603a <SWB_RX_NR_init+0x52>:
	...

0000603c <SWB_RX_NR_frame_process>:
    603c:	004136                                    	entry	a1, 32
    603f:	e7f731                                    	l32r	a3, 1c (d8e8 <p_ecnr_mem>)
    6042:	94a042                                    	movi	a4, 148
    6045:	98a062                                    	movi	a6, 152
    6048:	70d442                                    	addmi	a4, a4, 0x7000
    604b:	70d662                                    	addmi	a6, a6, 0x7000
    604e:	e0a1d2                                    	movi	a13, 0x1e0
    6051:	0358                                    	l32i.n	a5, a3, 0
    6053:	02ad                                    	mov.n	a10, a2
    6055:	b54a                                    	add.n	a11, a5, a4
    6057:	c56a                                    	add.n	a12, a5, a6
    6059:	e86251                                    	l32r	a5, 1e4 (260c <emph_filter_N>)
    605c:	f3a662                                    	movi	a6, 0x6f3
    605f:	0005e0                                    	callx8	a5
    6062:	0358                                    	l32i.n	a5, a3, 0
    6064:	1166c0                                    	slli	a6, a6, 4
    6067:	02bd                                    	mov.n	a11, a2
    6069:	02cd                                    	mov.n	a12, a2
    606b:	a56a                                    	add.n	a10, a5, a6
    606d:	e88d51                                    	l32r	a5, 2a4 (5aac <WB_NR_frame_process>)
    6070:	0005e0                                    	callx8	a5
    6073:	0338                                    	l32i.n	a3, a3, 0
    6075:	9ca052                                    	movi	a5, 156
    6078:	70d552                                    	addmi	a5, a5, 0x7000
    607b:	e0a1d2                                    	movi	a13, 0x1e0
    607e:	02ad                                    	mov.n	a10, a2
    6080:	b34a                                    	add.n	a11, a3, a4
    6082:	c35a                                    	add.n	a12, a3, a5
    6084:	e85531                                    	l32r	a3, 1d8 (269c <deemph_filter_N>)
    6087:	0003e0                                    	callx8	a3
    608a:	f01d                                    	retw.n

0000608c <SWB_RX_NR_frame_process+0x50>:
    608c:	00000000                                ....

00006090 <take_min_four>:
    6090:	004136                                    	entry	a1, 32
    6093:	ffa062                                    	movi	a6, 255
    6096:	224d                                    	ae_l16si.n	a4, a2, 0
    6098:	7fd662                                    	addmi	a6, a6, 0x7f00
    609b:	4f23a6                                    	blti	a3, 2, 60ee <take_min_four+0x5e>
    609e:	ffa052                                    	movi	a5, 255
    60a1:	630b                                    	addi.n	a6, a3, -1
    60a3:	7fd552                                    	addmi	a5, a5, 0x7f00
    60a6:	222b                                    	addi.n	a2, a2, 2
    60a8:	048d                                    	mov.n	a8, a4
    60aa:	053d                                    	mov.n	a3, a5
    60ac:	057d                                    	mov.n	a7, a5
    60ae:	318676                                    	loop	a6, 60e3 <take_min_four+0x53>
    60b1:	22ad                                    	ae_l16si.n	a10, a2, 0
    60b3:	086d                                    	mov.n	a6, a8
    60b5:	079d                                    	mov.n	a9, a7
    60b7:	0a4d                                    	mov.n	a4, a10
    60b9:	1c2a87                                    	blt	a10, a8, 60d9 <take_min_four+0x49>
    60bc:	084d                                    	mov.n	a4, a8
    60be:	0a6d                                    	mov.n	a6, a10
    60c0:	079d                                    	mov.n	a9, a7
    60c2:	132a77                                    	blt	a10, a7, 60d9 <take_min_four+0x49>
    60c5:	084d                                    	mov.n	a4, a8
    60c7:	076d                                    	mov.n	a6, a7
    60c9:	0a9d                                    	mov.n	a9, a10
    60cb:	0a2a37                                    	blt	a10, a3, 60d9 <take_min_four+0x49>
    60ce:	4355a0                                    	min	a5, a5, a10
    60d1:	039d                                    	mov.n	a9, a3
    60d3:	076d                                    	mov.n	a6, a7
    60d5:	084d                                    	mov.n	a4, a8
    60d7:	053d                                    	mov.n	a3, a5

000060d9 <take_min_four+0x49>:
    60d9:	035d                                    	mov.n	a5, a3
    60db:	222b                                    	addi.n	a2, a2, 2
    60dd:	093d                                    	mov.n	a3, a9
    60df:	067d                                    	mov.n	a7, a6
    60e1:	048d                                    	mov.n	a8, a4

000060e3 <take_min_four+0x53>:
    60e3:	249a                                    	add.n	a2, a4, a9
    60e5:	365a                                    	add.n	a3, a6, a5
    60e7:	223a                                    	add.n	a2, a2, a3
    60e9:	112220                                    	slli	a2, a2, 14
    60ec:	f01d                                    	retw.n

000060ee <take_min_four+0x5e>:
    60ee:	069d                                    	mov.n	a9, a6
    60f0:	065d                                    	mov.n	a5, a6
    60f2:	fffb46                                    	j	60e3 <take_min_four+0x53>

000060f5 <take_min_four+0x65>:
    60f5:	000000                                        ...

000060f8 <equal_power>:
    60f8:	004136                                    	entry	a1, 32
    60fb:	c07450                                    	sub	a7, a4, a5
    60fe:	a33270                                    	movltz	a3, a2, a7
    6101:	a34570                                    	movltz	a4, a5, a7
    6104:	602170                                    	abs	a2, a7
    6107:	2516a6                                    	blti	a6, 1, 6130 <equal_power+0x38>
    610a:	fcc332                                    	addi	a3, a3, -4
    610d:	1f8676                                    	loop	a6, 6130 <equal_power+0x38>
    6110:	230720c000c5713e                  	{ ae_l32m.iu	aed0, a3, 4; nop }
    6118:	0ead257b09040cd0c580813b1401120f 	{ ae_srlaq56	aed0, aed0, a2; nop; nop; nop }
    6128:	220760c000c5b03e                  	{ ae_s32m.i	aed0, a3, 0; nop }

00006130 <equal_power+0x38>:
    6130:	042d                                    	mov.n	a2, a4
    6132:	f01d                                    	retw.n

00006134 <gen_power>:
    6134:	004136                                    	entry	a1, 32
    6137:	0258                                    	l32i.n	a5, a2, 0
    6139:	3f2242                                    	l32i	a4, a2, 252
    613c:	217130                                    	srai	a7, a3, 1
    613f:	1d23a6                                    	blti	a3, 2, 6160 <gen_power+0x2c>
    6142:	f8c462                                    	addi	a6, a4, -8
    6145:	358b                                    	addi.n	a3, a5, 8
    6147:	668b                                    	addi.n	a6, a6, 8
    6149:	f03d                                    	nop.n
    614b:	f03d                                    	nop.n
    614d:	0f8776                                    	loop	a7, 6160 <gen_power+0x2c>
    6150:	230720c004a5b93e                  	{ ae_l32x2f24.ip	aed0, a3, 8; nop }
    6158:	220700c004e5996e                  	{ ae_s32x2f24.ip	aed0, a6, 8; nop }

00006160 <gen_power+0x2c>:
    6160:	159232                                    	l16si	a3, a2, 42
    6163:	160c                                    	movi.n	a6, 1
    6165:	3603124000e5114e                  	{ ae_l32x2f24.i	aed0, a4, 0; l16ui	a7, a2, 46 }
    616d:	448b                                    	addi.n	a4, a4, 8
    616f:	1133f0                                    	slli	a3, a3, 1
    6172:	c06630                                    	sub	a6, a6, a3
    6175:	f73b                                    	addi.n	a15, a7, 3
    6177:	fcc532                                    	addi	a3, a5, -4
    617a:	785262                                    	s16i	a6, a2, 240
    617d:	1f8f76                                    	loop	a15, 61a0 <gen_power+0x6c>
    6180:	2a8350033400b13e                  	{ nop; nop; ae_mulzaad32.hh.ll	aed0, aed0, aed0 }
    6188:	0ead217b0d250cd0c504613c0c01034f 	{ ae_l32x2f24.ip	aed0, a4, 8; nop; nop; ae_roundsq32f48sym	aed1, aed0 }
    6198:	230760c008c5b13e                  	{ ae_s32m.iu	aed1, a3, 4; nop }

000061a0 <gen_power+0x6c>:
    61a0:	f01d                                    	retw.n

000061a2 <gen_power+0x6e>:
	...

000061a4 <fft_wo>:
    61a4:	006136                                    	entry	a1, 48
    61a7:	330242                                    	l8ui	a4, a2, 51
    61aa:	760c                                    	movi.n	a6, 7
    61ac:	e84b51                                    	l32r	a5, 2d8 (cc80 <fftorder_1024_12b>)
    61af:	180c                                    	movi.n	a8, 1
    61b1:	00a1b2                                    	movi	a11, 0x100
    61b4:	00a2c2                                    	movi	a12, 0x200
    61b7:	fcc472                                    	addi	a7, a4, -4
    61ba:	0e94b6                                    	bltui	a4, 10, 61cc <fft_wo+0x28>
    61bd:	00a442                                    	movi	a4, 0x400
    61c0:	554b                                    	addi.n	a5, a5, 4
    61c2:	e0a1d2                                    	movi	a13, 0x1e0
    61c5:	290c                                    	movi.n	a9, 2
    61c7:	1149                                    	s32i.n	a4, a1, 4
    61c9:	000946                                    	j	61f2 <fft_wo+0x4e>

000061cc <fft_wo+0x28>:
    61cc:	626640                                    	saltu	a6, a6, a4
    61cf:	629780                                    	saltu	a9, a7, a8
    61d2:	204690                                    	or	a4, a6, a9
    61d5:	10c5f2                                    	addi	a15, a5, 16
    61d8:	83cb40                                    	moveqz	a12, a11, a4
    61db:	558b                                    	addi.n	a5, a5, 8
    61dd:	78a0a2                                    	movi	a10, 120
    61e0:	f0a0d2                                    	movi	a13, 240
    61e3:	8e0c                                    	movi.n	a14, 8
    61e5:	490c                                    	movi.n	a9, 4
    61e7:	83da40                                    	moveqz	a13, a10, a4
    61ea:	11c9                                    	s32i.n	a12, a1, 4
    61ec:	839e40                                    	moveqz	a9, a14, a4
    61ef:	835f40                                    	moveqz	a5, a15, a4
    61f2:	037d                                    	mov.n	a7, a3
    61f4:	060c                                    	movi.n	a6, 0
    61f6:	098d76                                    	loop	a13, 6203 <fft_wo+0x5f>
    61f9:	274d                                    	ae_l16si.n	a4, a7, 0
    61fb:	772b                                    	addi.n	a7, a7, 2
    61fd:	604140                                    	abs	a4, a4
    6200:	206460                                    	or	a6, a4, a6

00006203 <fft_wo+0x5f>:
    6203:	40e640                                    	nsa	a4, a6
    6206:	1492c2                                    	l16si	a12, a2, 40
    6209:	070c                                    	movi.n	a7, 0
    620b:	f0c442                                    	addi	a4, a4, -16
    620e:	4322e2                                    	l32i	a14, a2, 0x10c
    6211:	534470                                    	max	a4, a4, a7
    6214:	11a8                                    	l32i.n	a10, a1, 4
    6216:	2149                                    	s32i.n	a4, a1, 8
    6218:	4344c0                                    	min	a4, a4, a12
    621b:	67ed44                                    	wur.ae_sar	a4
    621e:	02f8                                    	l32i.n	a15, a2, 0
    6220:	10041ec01480428e                  	{ l32i	a8, a2, 0x108; ae_l16x2m.i	aed0, a14, 0 }
    6228:	4162a0                                    	srli	a6, a10, 2
    622b:	1199f0                                    	slli	a9, a9, 1
    622e:	3149                                    	s32i.n	a4, a1, 12
    6230:	2e068a4308ba500e                  	{ ae_slas24s	aed1, aed0; addx4	a10, a10, a15 }
    6238:	0b02ea401481b08e                  	{ ae_l16x2m.i	aed2, a8, 0; addi	a11, a10, 4 }
    6240:	230720c318e5747e                  	{ nop; nop }
    6248:	0d07404300a0260e                  	{ loop	a6, 6278 <fft_wo+0xd4>; ae_movi	aed0, 0 }
    6250:	0e1ce2571533810c07ab6df20022cdef 	{ ae_l16x2m.iu	aed31, a14, 4; ae_l16x2m.iu	aed2, a8, 4; ae_mulf32s.ll	aed30, aed1, aed2; ae_mulf32s.hh	aed3, aed1, aed2 }
    6260:	220760c018c5d7ae                  	{ ae_s32m.x	aed3, a10, a7; nop }
    6268:	0603654710c0d7be                  	{ ae_s32m.x	aed30, a11, a7; l16si	a7, a5, 0 }
    6270:	1806854308b170fe                  	{ ae_slas24s	aed1, aed31; add	a5, a5, a9 }
    6278:	0e6d516979fa1d180500013a1c0102cf 	{ l32i	a12, a2, 0x10c; srli	a15, a13, 1; nop; ae_truncp24q48x2	aed0, aed0, aed0 }
    6288:	c046f0                                    	sub	a4, a6, a15
    628b:	90ddc0                                    	addx2	a13, a13, a12
    628e:	fccce2                                    	addi	a14, a12, -4
    6291:	0214e6                                    	bgei	a4, 1, 6297 <fft_wo+0xf3>
    6294:	004106                                    	j	639c <fft_wo+0x1f8>
    6297:	230760c01485b0de                  	{ ae_l16x2m.i	aed2, a13, 0; nop }
    629f:	230720c318e5747e                  	{ nop; nop }
    62a7:	0020f0                                    	nop
    62aa:	0020f0                                    	nop
    62ad:	178476                                    	loop	a4, 62c8 <fft_wo+0x124>
    62b0:	0ead247b0d240cd0c40080110b2181ef 	{ ae_s16x2m.iu	aed2, a14, 4; nop; ae_abs24s	aed1, aed2; nop }
    62c0:	20047dc00082d01e                  	{ ae_or	aed0, aed0, aed1; ae_l16x2m.iu	aed2, a13, 4 }
    62c8:	2f0418c104e156fe                  	{ sub	a4, a6, a15; ae_l16x2m.iu	aed1, a8, -4 }
    62d0:	230720c318e5747e                  	{ nop; nop }
    62d8:	0020f0                                    	nop
    62db:	f03d                                    	nop.n
    62dd:	318476                                    	loop	a4, 6312 <fft_wo+0x16e>
    62e0:	0e6d307b0d2c0c18c60440110b3f81ef 	{ ae_s16x2m.iu	aed2, a14, 4; nop; ae_abs24s	aed31, aed2; ae_slas24s	aed3, aed2 }
    62f0:	0e1cc2570bfb8f0c482b4c1a006108ff 	{ ae_or	aed0, aed0, aed31; ae_l16x2m.iu	aed1, a8, -4; ae_mulf32s.lh	aed3, aed3, aed1; ae_mulf32s.lh	aed4, aed1, aed3 }
    6300:	20047dc100c2d7ae                  	{ ae_s32m.x	aed4, a10, a7; ae_l16x2m.iu	aed2, a13, 4 }
    6308:	0603654018c0d7be                  	{ ae_s32m.x	aed3, a11, a7; l16si	a7, a5, 0 }
    6310:	559a                                    	add.n	a5, a5, a9

00006312 <fft_wo+0x16e>:
    6312:	000003ed000300fb172383002460334f 	{ ae_cvta32f24s.h	a4, aed0; ae_cvta32f24s.l	a6, aed0; nop }
    6322:	21d8                                    	l32i.n	a13, a1, 8
    6324:	204460                                    	or	a4, a4, a6
    6327:	40e440                                    	nsa	a4, a4
    632a:	434d40                                    	min	a4, a13, a4
    632d:	145242                                    	s16i	a4, a2, 40
    6330:	230760c00485b03e                  	{ ae_l16x2m.i	aed0, a3, 0; nop }
    6338:	0020f0                                    	nop
    633b:	f03d                                    	nop.n
    633d:	318f76                                    	loop	a15, 6372 <fft_wo+0x1ce>
    6340:	0e6d317b0d2c0c1886040139080101ef 	{ ae_s16x2m.iu	aed0, a14, 4; nop; nop; ae_slas24s	aed2, aed0 }
    6350:	0e1ce2570d338f0c7fab4c100041013f 	{ ae_l16x2m.iu	aed0, a3, 4; ae_l16x2m.iu	aed1, a8, -4; ae_mulf32s.lh	aed2, aed2, aed1; ae_mulf32s.lh	aed31, aed1, aed2 }
    6360:	220760c718c5d7ae                  	{ ae_s32m.x	aed31, a10, a7; nop }
    6368:	0603654010c0d7be                  	{ ae_s32m.x	aed2, a11, a7; l16si	a7, a5, 0 }
    6370:	559a                                    	add.n	a5, a5, a9

00006372 <fft_wo+0x1ce>:
    6372:	1148                                    	l32i.n	a4, a1, 4
    6374:	0238                                    	l32i.n	a3, a2, 0
    6376:	8c0c                                    	movi.n	a12, 8
    6378:	1d0c                                    	movi.n	a13, 1
    637a:	0e0c                                    	movi.n	a14, 0
    637c:	a0a430                                    	addx4	a10, a4, a3
    637f:	e7d731                                    	l32r	a3, 2dc (755c <sw_fft_32b_2811>)
    6382:	41b140                                    	srli	a11, a4, 1
    6385:	0003e0                                    	callx8	a3
    6388:	3138                                    	l32i.n	a3, a1, 12
    638a:	04bd                                    	mov.n	a11, a4
    638c:	c033a0                                    	sub	a3, a3, a10
    638f:	02ad                                    	mov.n	a10, a2
    6391:	155232                                    	s16i	a3, a2, 42
    6394:	e7d331                                    	l32r	a3, 2e0 (6134 <gen_power>)
    6397:	0003e0                                    	callx8	a3
    639a:	f01d                                    	retw.n

0000639c <fft_wo+0x1f8>:
    639c:	2f0418c71c61f27e                  	{ j	6312 <fft_wo+0x16e>; ae_l16x2m.iu	aed1, a8, -4 }

000063a4 <NR_vad1>:
    63a4:	006136                                    	entry	a1, 48
    63a7:	3302b2                                    	l8ui	a11, a2, 51
    63aa:	9a0c                                    	movi.n	a10, 9
    63ac:	e7ce51                                    	l32r	a5, 2e4 (b8d0 <wb_sb_ptn>)
    63af:	01d232                                    	addmi	a3, a2, 0x100
    63b2:	e7cd81                                    	l32r	a8, 2e8 (b900 <nb_sb_ptn>)
    63b5:	4193b0                                    	srli	a9, a11, 3
    63b8:	161b16                                    	beqz	a11, 651d <NR_vad1+0x179>
    63bb:	002242                                    	l32i	a4, a2, 0
    63be:	62fab0                                    	saltu	a15, a10, a11
    63c1:	0d07604704002a6e                  	{ l32r	a6, 2ec (bc60 <swb_sb_ptn>); ae_movi	aed0, 0 }
    63c9:	938590                                    	movnez	a8, a5, a9
    63cc:	026132                                    	s32i	a3, a1, 8
    63cf:	117be0                                    	slli	a7, a11, 2
    63d2:	0204204008c0734e                  	{ ae_l32m.i	aed1, a4, 12; movi	a3, 0 }
    63da:	0361b2                                    	s32i	a11, a1, 12
    63dd:	0cc442                                    	addi	a4, a4, 12
    63e0:	8368f0                                    	moveqz	a6, a8, a15

000063e3 <NR_vad1+0x3f>:
    63e3:	265d                                    	ae_l16si.n	a5, a6, 0
    63e5:	368d                                    	ae_l16si.n	a8, a6, 2
    63e7:	c05850                                    	sub	a5, a8, a5
    63ea:	1215a6                                    	blti	a5, 1, 6400 <NR_vad1+0x5c>
    63ed:	0f8576                                    	loop	a5, 6400 <NR_vad1+0x5c>
    63f0:	0eace5790d0441d0c58081380c01c00f 	{ ae_add64	aed0, aed0, aed1; ae_l32m.iu	aed1, a4, 4; nop; nop }

00006400 <NR_vad1+0x5c>:
    6400:	0eace563c52428d0c400813b0c01050f 	{ ae_nsa64	a5, aed0; l16si	a8, a2, 240; nop; nop }
    6410:	f0c552                                    	addi	a5, a5, -16
    6413:	662b                                    	addi.n	a6, a6, 2
    6415:	3406f84014bad50e                  	{ ae_slaasq56s	aed31, aed0, a5; sub	a11, a8, a5 }
    641d:	000003f3790300fd71e303053460335f 	{ l32r	a5, 1ac (824 <Log2_norm>); ae_trunca32q48	a10, aed31; nop }
    642d:	0005e0                                    	callx8	a5
    6430:	0c0700400480425e                  	{ l32i	a5, a2, 0x100; ae_movi	aed0, 0 }
    6438:	853a                                    	add.n	a8, a5, a3
    643a:	334b                                    	addi.n	a3, a3, 4
    643c:	0068a2                                    	s32i	a10, a8, 0
    643f:	0005441a1fe1073e                  	{ bne.w15	a7, a3, 63e3 <NR_vad1+0x3f>; ae_l32m.i	aed1, a4, 0 }
    6447:	0321b2                                    	l32i	a11, a1, 12
    644a:	0221a2                                    	l32i	a10, a1, 8
    644d:	0d5b16                                    	beqz	a11, 6526 <NR_vad1+0x182>

00006450 <NR_vad1+0xac>:
    6450:	039242                                    	l16si	a4, a2, 6
    6453:	38c262                                    	addi	a6, a2, 56
    6456:	d8a082                                    	movi	a8, 216
    6459:	dca092                                    	movi	a9, 220
    645c:	0602a24010ce706e                  	{ ae_l32m.i	aed2, a6, 0; addi	a7, a2, 56 }
    6464:	0105254500a1040e                  	{ slli	a4, a4, 16; ae_l32m.i	aed1, a5, 0 }
    646c:	2007044104e0228e                  	{ add	a4, a2, a8; ae_cvt48a32	aed0, a4 }
    6474:	00a062                                    	movi	a6, 0
    6477:	5cc232                                    	addi	a3, a2, 92
    647a:	808290                                    	add	a8, a2, a9
    647d:	8f8b76                                    	loop	a11, 6510 <NR_vad1+0x16c>
    6480:	0ead4567c8c688d0c50081380801042f 	{ ae_lt64	b0, aed2, aed1; or	a9, a8, a8; nop; nop }
    6490:	08ed                                    	mov.n	a14, a8
    6492:	d39400                                    	movt	a9, a4, b0
    6495:	2f02e6401c81b09e                  	{ ae_l16x2m.i	aed3, a9, 0; addi	a15, a6, 6 }
    649d:	228113203823433e                  	{ ae_sel16i	aed3, aed3, aed3, 1; nop; ae_mulf48q32sp16s.l	aed4, aed1, aed3 }
    64a5:	1e8354233443b13e                  	{ nop; nop; ae_mulaf48q32sp16s.l	aed4, aed2, aed3 }
    64ad:	220760c100c5b07e                  	{ ae_s32m.i	aed4, a7, 0; nop }
    64b5:	230720c708c5713e                  	{ ae_l32m.iu	aed29, a3, 4; nop }
    64bd:	0ead057b08c40cd0c500813f0801041f 	{ ae_lt64	b0, aed1, aed29; nop; nop; nop }
    64cd:	d3e400                                    	movt	a14, a4, b0
    64d0:	230760c71485b0ee                  	{ ae_l16x2m.i	aed30, a14, 0; nop }
    64d8:	228113f8383e7eee                  	{ ae_sel16i	aed3, aed30, aed30, 1; nop; ae_mulf48q32sp16s.l	aed31, aed1, aed30 }
    64e0:	1e8354fb37a3b13e                  	{ nop; nop; ae_mulaf48q32sp16s.l	aed31, aed29, aed3 }
    64e8:	0ea5243b0d250cd0c58084fb0082cc3f 	{ ae_s32m.i	aed31, a3, 0; nop; ae_sub64	aed2, aed4, aed31; nop }
    64f8:	0eacc57908c451d0c50081381001040f 	{ ae_lt64	b0, aed0, aed2; ae_l32m.iu	aed1, a5, 4; nop; nop }
    6508:	1105274114a21f0e                  	{ movt	a6, a15, b0; ae_l32m.iu	aed2, a7, 4 }

00006510 <NR_vad1+0x16c>:
    6510:	0a58                                    	l32i.n	a5, a10, 0
    6512:	5bdc                                    	bnez.n	a11, 652b <NR_vad1+0x187>
    6514:	001c06                                    	j	6588 <NR_vad1+0x1e4>

00006517 <NR_vad1+0x173>:
    6517:	00000000                                 ......

0000651d <NR_vad1+0x179>:
    651d:	402252                                    	l32i	a5, a2, 0x100
    6520:	01d2a2                                    	addmi	a10, a2, 0x100
    6523:	f29b56                                    	bnez	a11, 6450 <NR_vad1+0xac>
    6526:	060c                                    	movi.n	a6, 0
    6528:	05cb16                                    	beqz	a11, 6588 <NR_vad1+0x1e4>
    652b:	e77141                                    	l32r	a4, 2f0 (b5b0 <NR_immediate_num>)
    652e:	030c                                    	movi.n	a3, 0
    6530:	129272                                    	l16si	a7, a2, 36
    6533:	723360                                    	salt	a3, a3, a6
    6536:	000545420084088e                  	{ movi	a8, 136; ae_l32m.i	aed4, a5, 0 }
    653e:	e48b                                    	addi.n	a14, a4, 8
    6540:	44cb                                    	addi.n	a4, a4, 12
    6542:	934e30                                    	movnez	a4, a14, a3
    6545:	11f700                                    	slli	a15, a7, 16
    6548:	3906e2400490a04e                  	{ ae_l16x2m.i	aed0, a4, 0; add	a3, a2, a8 }
    6550:	000020c010c3882e                  	{ ae_l32m.x	aed2, a2, a8; ae_sel16i	aed3, aed0, aed0, 1 }
    6558:	21074f4300a12b0e                  	{ loop	a11, 6588 <NR_vad1+0x1e4>; ae_cvt48a32	aed1, a15 }
    6560:	228353233480b13e                  	{ nop; nop; ae_mulf48q32sp16s.l	aed4, aed4, aed0 }
    6568:	1e8294233043213e                  	{ ae_l32m.iu	aed2, a3, 4; nop; ae_mulaf48q32sp16s.l	aed4, aed2, aed3 }
    6570:	0eacc57920e451d0c48081390401111f 	{ ae_max64	aed5, aed1, aed4; ae_l32m.iu	aed4, a5, 4; nop; nop }
    6580:	220760c108c5bf3e                  	{ ae_s32m.i	aed5, a3, -4; nop }

00006588 <NR_vad1+0x1e4>:
    6588:	f01d                                    	retw.n

0000658a <NR_vad1+0x1e6>:
	...

0000658c <NR_vad2>:
    658c:	008136                                    	entry	a1, 64
    658f:	300232                                    	l8ui	a3, a2, 48
    6592:	88a052                                    	movi	a5, 136
    6595:	021242                                    	l16ui	a4, a2, 4
    6598:	070c                                    	movi.n	a7, 0
    659a:	3302a2                                    	l8ui	a10, a2, 51
    659d:	129262                                    	l16si	a6, a2, 36
    65a0:	d288                                    	l32i.n	a8, a2, 52
    65a2:	449437                                    	bne	a4, a3, 65ea <NR_vad2+0x5e>
    65a5:	304272                                    	s8i	a7, a2, 48
    65a8:	b0a042                                    	movi	a4, 176
    65ab:	063d                                    	mov.n	a3, a6
    65ad:	71a9                                    	s32i.n	a10, a1, 28
    65af:	08d332                                    	addmi	a3, a3, 0x800
    65b2:	08da16                                    	beqz	a10, 6643 <NR_vad2+0xb7>
    65b5:	e74f61                                    	l32r	a6, 2f4 (6090 <take_min_four>)
    65b8:	115300                                    	slli	a5, a3, 16
    65bb:	0a7d                                    	mov.n	a7, a10
    65bd:	424a                                    	add.n	a4, a2, a4
    65bf:	083d                                    	mov.n	a3, a8
    65c1:	6189                                    	s32i.n	a8, a1, 24

000065c3 <NR_vad2+0x37>:
    65c3:	cb0c                                    	movi.n	a11, 12
    65c5:	03ad                                    	mov.n	a10, a3
    65c7:	0006e0                                    	callx8	a6
    65ca:	5385a0                                    	max	a8, a5, a10
    65cd:	770b                                    	addi.n	a7, a7, -1
    65cf:	0489                                    	s32i.n	a8, a4, 0
    65d1:	18c332                                    	addi	a3, a3, 24
    65d4:	444b                                    	addi.n	a4, a4, 4
    65d6:	fe9756                                    	bnez	a7, 65c3 <NR_vad2+0x37>
    65d9:	001a86                                    	j	6647 <NR_vad2+0xbb>

000065dc <NR_vad2+0x50>:
	...

000065ea <NR_vad2+0x5e>:
    65ea:	1404284000c0a25e                  	{ ae_l32m.xu	aed0, a5, a2; movi	a4, 24 }
    65f2:	0c6a16                                    	beqz	a10, 66bc <NR_vad2+0x130>
    65f5:	220760c000c5b51e                  	{ ae_s32m.i	aed0, a1, 20; nop }
    65fd:	d268                                    	l32i.n	a6, a2, 52
    65ff:	050501441481327e                  	{ l8ui	a7, a2, 50; ae_l32m.i	aed1, a1, 20 }
    6607:	906760                                    	addx2	a6, a7, a6
    660a:	e8c662                                    	addi	a6, a6, -24
    660d:	1f8a76                                    	loop	a10, 6630 <NR_vad2+0xa4>
    6610:	0ead217b0d2d0cf0c28421380001906f 	{ ae_l16m.xu	aed2, a6, a4; nop; nop; ae_roundsp16q48x2sym	aed1, aed1, aed1 }
    6620:	100545401481512e                  	{ ae_min32	aed2, aed2, aed1; ae_l32m.iu	aed1, a5, 4 }
    6628:	220740c014c5106e                  	{ ae_s16m.l.i	aed2, a6, 0; nop }

00006630 <NR_vad2+0xa4>:
    6630:	331b                                    	addi.n	a3, a3, 1
    6632:	001906                                    	j	669a <NR_vad2+0x10e>

00006635 <NR_vad2+0xa9>:
	...

00006643 <NR_vad2+0xb7>:
    6643:	d238                                    	l32i.n	a3, a2, 52
    6645:	6139                                    	s32i.n	a3, a1, 24
    6647:	320232                                    	l8ui	a3, a2, 50
    664a:	71a8                                    	l32i.n	a10, a1, 28
    664c:	331b                                    	addi.n	a3, a3, 1
    664e:	b34d                                    	ae_zext8	a4, a3
    6650:	f4c442                                    	addi	a4, a4, -12
    6653:	934340                                    	movnez	a4, a3, a4
    6656:	88a032                                    	movi	a3, 136
    6659:	020523c41480224e                  	{ s8i	a4, a2, 50; ae_l32m.xu	aed0, a3, a2 }
    6661:	055a16                                    	beqz	a10, 66ba <NR_vad2+0x12e>
    6664:	220760c000c5b41e                  	{ ae_s32m.i	aed0, a1, 16; nop }
    666c:	6168                                    	l32i.n	a6, a1, 24
    666e:	b44d                                    	ae_zext8	a4, a4
    6670:	0405014514e1246e                  	{ addx2	a6, a4, a6; ae_l32m.i	aed1, a1, 16 }
    6678:	841c                                    	movi.n	a4, 24
    667a:	e8c652                                    	addi	a5, a6, -24
    667d:	178a76                                    	loop	a10, 6698 <NR_vad2+0x10c>
    6680:	0ead217b0d2c0cf0c38821381001413f 	{ ae_l32m.iu	aed1, a3, 4; nop; nop; ae_roundsp16q48x2sym	aed2, aed1, aed1 }
    6690:	220740c014c5545e                  	{ ae_s16m.l.xu	aed2, a5, a4; nop }

00006698 <NR_vad2+0x10c>:
    6698:	130c                                    	movi.n	a3, 1

0000669a <NR_vad2+0x10e>:
    669a:	304232                                    	s8i	a3, a2, 48
    669d:	0d9ab6                                    	bltui	a10, 10, 66ae <NR_vad2+0x122>
    66a0:	e71971                                    	l32r	a7, 304 (bc40 <swb_score_bands>)
    66a3:	e71731                                    	l32r	a3, 300 (ccccd00 <_end+0xccbf414>)
    66a6:	000746                                    	j	66c7 <NR_vad2+0x13b>

000066a9 <NR_vad2+0x11d>:
    66a9:	00000000                                 .....

000066ae <NR_vad2+0x122>:
    66ae:	0f8ab6                                    	bltui	a10, 8, 66c1 <NR_vad2+0x135>
    66b1:	e71671                                    	l32r	a7, 30c (b8b0 <wb_score_bands>)
    66b4:	e71531                                    	l32r	a3, 308 (e38e400 <_end+0xe380b14>)
    66b7:	000306                                    	j	66c7 <NR_vad2+0x13b>

000066ba <NR_vad2+0x12e>:
    66ba:	030c                                    	movi.n	a3, 0
    66bc:	331b                                    	addi.n	a3, a3, 1
    66be:	304232                                    	s8i	a3, a2, 48
    66c1:	e70e71                                    	l32r	a7, 2fc (b8f0 <nb_score_bands>)
    66c4:	e70d31                                    	l32r	a3, 2f8 (12492500 <_end+0x12484c14>)
    66c7:	300703400c83424e                  	{ l32i	a4, a2, 0x104; ae_movda32	aed3, a3 }
    66cf:	0c0740421881005e                  	{ movi	a5, 176; ae_movi	aed1, 0 }
    66d7:	88a062                                    	movi	a6, 136
    66da:	020565c000c4a31e                  	{ ae_s32m.i	aed0, a1, 12; ae_l32m.xu	aed4, a5, a2 }
    66e2:	326b                                    	addi.n	a3, a2, 6
    66e4:	626a                                    	add.n	a6, a2, a6
    66e6:	020561470462f48e                  	{ addi	a8, a4, -4; ae_l32m.i	aed2, a1, 12 }
    66ee:	1c0760471460f77e                  	{ addi	a7, a7, -2; ae_mov	aed0, aed1 }
    66f6:	594a66                                    	bnei	a10, 4, 6753 <NR_vad2+0x1c7>
    66f9:	440c                                    	movi.n	a4, 4
    66fb:	284b                                    	addi.n	a2, a8, 4
    66fd:	4f8476                                    	loop	a4, 6750 <NR_vad2+0x1c4>
    6700:	0ea4e439152561d0c40082200880413f 	{ ae_l16m.iu	aed1, a3, 2; ae_l32m.iu	aed2, a6, 4; ae_sub64	aed0, aed2, aed4; nop }
    6710:	1005454008e4112e                  	{ ae_cvtq56p32s.l	aed1, aed1; ae_l32m.iu	aed4, a5, 4 }
    6718:	0ead057b08e40cd0c58081380801e00f 	{ ae_sub64	aed0, aed0, aed1; nop; nop; nop }
    6728:	0ead257b09040cd0c580813a0c01010f 	{ ae_srai64	aed0, aed0, 1; nop; nop; nop }
    6738:	0e6d317b0d5c0c18050001380c01015f 	{ nop; nop; nop; ae_truncp24q48x2	aed0, aed0, aed0 }
    6748:	220760c000c5712e                  	{ ae_s32f24.l.ip	aed0, a2, 4; nop }

00006750 <NR_vad2+0x1c4>:
    6750:	f01d                                    	retw.n

00006752 <NR_vad2+0x1c6>:
	...

00006753 <NR_vad2+0x1c7>:
    6753:	091c                                    	movi.n	a9, 16
    6755:	06aa16                                    	beqz	a10, 67c3 <NR_vad2+0x237>
    6758:	0ea5243b0d240cd0c50082221c829a0f 	{ loop	a10, 67c3 <NR_vad2+0x237>; nop; ae_sub64	aed2, aed2, aed4; nop }
    6768:	100473401445d92e                  	{ ae_trunca32x2f64s	aed31, aed2, aed2, a9; ae_l16m.iu	aed5, a3, 2 }
    6770:	3e005fc710e6152e                  	{ ae_cvtq56p32s.l	aed30, aed5; ae_sel16i	aed6, aed31, aed31, 3 }
    6778:	0e64d43128db7121051822f0108204ef 	{ ae_lt64	b0, aed30, aed2; ae_l16m.iu	aed5, a7, 2; ae_sub64	aed2, aed2, aed30; ae_mov	aed4, aed6 }
    6788:	0f0076                                    	bf	b0, 679b <NR_vad2+0x20f>
    678b:	0ead257b0d040cd0c48081390c01800f 	{ ae_add24s	aed0, aed0, aed5; nop; nop; nop }
    679b:	0e5ce2d9253c514947804b081083816f 	{ ae_l32m.iu	aed2, a6, 4; ae_l32m.iu	aed4, a5, 4; ae_mulaf32r.ll	aed1, aed4, aed3; ae_srai64	aed5, aed2, 1 }
    67ab:	0e6d117b08fc0c194594a1390001e22f 	{ ae_sub64	aed2, aed2, aed4; nop; nop; ae_truncp24q48x2	aed5, aed5, aed5 }
    67bb:	0902e84108c1418e                  	{ ae_s32f24.l.i	aed5, a8, 4; addi	a8, a8, 4 }

000067c3 <NR_vad2+0x237>:
    67c3:	230760c01485713e                  	{ ae_l16m.iu	aed2, a3, 2; nop }
    67cb:	220740c010e5122e                  	{ ae_cvtq56p32s.l	aed2, aed2; nop }
    67d3:	0ead057b08c40cd0c50081380801042f 	{ ae_lt64	b0, aed2, aed1; nop; nop; nop }
    67e3:	170076                                    	bf	b0, 67fe <NR_vad2+0x272>
    67e6:	230760c00c85717e                  	{ ae_l16m.iu	aed1, a7, 2; nop }
    67ee:	0ead257b0d040cd0c48081380c01800f 	{ ae_add24s	aed0, aed0, aed1; nop; nop; nop }

000067fe <NR_vad2+0x272>:
    67fe:	2cc222                                    	addi	a2, a2, 44
    6801:	220740c004c5102e                  	{ ae_s16m.l.i	aed0, a2, 0; nop }
    6809:	f01d                                    	retw.n

0000680b <NR_vad2+0x27f>:
	...

0000680c <NR_NoiseEstimate>:
    680c:	004136                                    	entry	a1, 32
    680f:	330262                                    	l8ui	a6, a2, 51
    6812:	930c                                    	movi.n	a3, 9
    6814:	0248                                    	l32i.n	a4, a2, 0
    6816:	00a452                                    	movi	a5, 0x400
    6819:	1092b2                                    	l16si	a11, a2, 32
    681c:	00a272                                    	movi	a7, 0x200
    681f:	628360                                    	saltu	a8, a3, a6
    6822:	171232                                    	l16ui	a3, a2, 46
    6825:	937580                                    	movnez	a7, a5, a8
    6828:	090c                                    	movi.n	a9, 0
    682a:	a08740                                    	addx4	a8, a7, a4
    682d:	11bbc0                                    	slli	a11, a11, 4
    6830:	a05380                                    	addx4	a5, a3, a8
    6833:	05ad                                    	mov.n	a10, a5
    6835:	938c                                    	beqz.n	a3, 6842 <NR_NoiseEstimate+0x36>
    6837:	078376                                    	loop	a3, 6842 <NR_NoiseEstimate+0x36>
    683a:	08b9                                    	s32i.n	a11, a8, 0
    683c:	884b                                    	addi.n	a8, a8, 4
    683e:	0a99                                    	s32i.n	a9, a10, 0
    6840:	aa4b                                    	addi.n	a10, a10, 4

00006842 <NR_NoiseEstimate+0x36>:
    6842:	161282                                    	l16ui	a8, a2, 44
    6845:	491c                                    	movi.n	a9, 20
    6847:	753987                                    	bltu	a9, a8, 68c0 <NR_NoiseEstimate+0xb4>
    684a:	0678f6                                    	bgeui	a8, 7, 6854 <NR_NoiseEstimate+0x48>
    684d:	e0a082                                    	movi	a8, 224
    6850:	000306                                    	j	6860 <NR_NoiseEstimate+0x54>

00006853 <NR_NoiseEstimate+0x47>:
	...

00006854 <NR_NoiseEstimate+0x48>:
    6854:	05b8f6                                    	bgeui	a8, 16, 685d <NR_NoiseEstimate+0x51>
    6857:	e4a082                                    	movi	a8, 228
    685a:	000086                                    	j	6860 <NR_NoiseEstimate+0x54>

0000685d <NR_NoiseEstimate+0x51>:
    685d:	e8a082                                    	movi	a8, 232
    6860:	928a                                    	add.n	a9, a2, a8
    6862:	e6a0b1                                    	l32r	a11, 2e4 (b8d0 <wb_sb_ptn>)
    6865:	9e0c                                    	movi.n	a14, 9
    6867:	055616                                    	beqz	a6, 68c0 <NR_NoiseEstimate+0xb4>
    686a:	e69fc1                                    	l32r	a12, 2e8 (b900 <nb_sb_ptn>)
    686d:	41d360                                    	srli	a13, a6, 3
    6870:	e69f81                                    	l32r	a8, 2ec (bc60 <swb_sb_ptn>)
    6873:	f73a                                    	add.n	a15, a7, a3
    6875:	4122a2                                    	l32i	a10, a2, 0x104
    6878:	0998                                    	l32i.n	a9, a9, 0
    687a:	93cbd0                                    	movnez	a12, a11, a13
    687d:	62ee60                                    	saltu	a14, a14, a6
    6880:	070c                                    	movi.n	a7, 0
    6882:	838ce0                                    	moveqz	a8, a12, a14
    6885:	a0bf40                                    	addx4	a11, a15, a4
    6888:	0007c6                                    	j	68ab <NR_NoiseEstimate+0x9f>

0000688b <NR_NoiseEstimate+0x7f>:
    688b:	771b                                    	addi.n	a7, a7, 1
    688d:	2ecd                                    	ae_l16si.n	a12, a14, 0
    688f:	90d780                                    	addx2	a13, a7, a8
    6892:	2ddd                                    	ae_l16si.n	a13, a13, 0
    6894:	c0edc0                                    	sub	a14, a13, a12
    6897:	0dacd7                                    	bge	a12, a13, 68a8 <NR_NoiseEstimate+0x9c>
    689a:	a0ccb0                                    	addx4	a12, a12, a11
    689d:	078e76                                    	loop	a14, 68a8 <NR_NoiseEstimate+0x9c>
    68a0:	0cd8                                    	l32i.n	a13, a12, 0
    68a2:	dd9a                                    	add.n	a13, a13, a9
    68a4:	0cd9                                    	s32i.n	a13, a12, 0
    68a6:	cc4b                                    	addi.n	a12, a12, 4

000068a8 <NR_NoiseEstimate+0x9c>:
    68a8:	141767                                    	beq	a7, a6, 68c0 <NR_NoiseEstimate+0xb4>

000068ab <NR_NoiseEstimate+0x9f>:
    68ab:	a0c7a0                                    	addx4	a12, a7, a10
    68ae:	90e780                                    	addx2	a14, a7, a8
    68b1:	0cc8                                    	l32i.n	a12, a12, 0
    68b3:	d41ca6                                    	blti	a12, 1, 688b <NR_NoiseEstimate+0x7f>
    68b6:	771b                                    	addi.n	a7, a7, 1
    68b8:	fffb06                                    	j	68a8 <NR_NoiseEstimate+0x9c>

000068bb <NR_NoiseEstimate+0xaf>:
    68bb:	00000000                                 .....

000068c0 <NR_NoiseEstimate+0xb4>:
    68c0:	789292                                    	l16si	a9, a2, 240
    68c3:	64cb                                    	addi.n	a6, a4, 12
    68c5:	7992b2                                    	l16si	a11, a2, 242
    68c8:	452272                                    	l32i	a7, a2, 0x114
    68cb:	998d                                    	ae_zext16	a8, a9
    68cd:	9bad                                    	ae_zext16	a10, a11
    68cf:	c099b0                                    	sub	a9, a9, a11
    68d2:	3818a7                                    	beq	a8, a10, 690e <NR_NoiseEstimate+0x102>
    68d5:	a38a90                                    	movltz	a8, a10, a9
    68d8:	07ad                                    	mov.n	a10, a7
    68da:	a3a690                                    	movltz	a10, a6, a9
    68dd:	73ac                                    	beqz.n	a3, 6908 <NR_NoiseEstimate+0xfc>
    68df:	fccaa2                                    	addi	a10, a10, -4
    68e2:	609190                                    	abs	a9, a9
    68e5:	1f8376                                    	loop	a3, 6908 <NR_NoiseEstimate+0xfc>
    68e8:	230720c000c571ae                  	{ ae_l32m.iu	aed0, a10, 4; nop }
    68f0:	0ead257b09040cd0c580813b1401190f 	{ ae_srlaq56	aed0, aed0, a9; nop; nop; nop }
    6900:	220760c000c5b0ae                  	{ ae_s32m.i	aed0, a10, 0; nop }

00006908 <NR_NoiseEstimate+0xfc>:
    6908:	795282                                    	s16i	a8, a2, 242
    690b:	785282                                    	s16i	a8, a2, 240

0000690e <NR_NoiseEstimate+0x102>:
    690e:	0502c5c004bf5c0e                  	{ ae_movi	aed0, 0; addi	a5, a5, -4 }
    6916:	051316                                    	beqz	a3, 696b <NR_NoiseEstimate+0x15f>
    6919:	0402a7c008df634e                  	{ ae_l32m.i	aed1, a4, 12; addi	a4, a7, -4 }
    6921:	468376                                    	loop	a3, 696b <NR_NoiseEstimate+0x15f>
    6924:	100564401483d15e                  	{ ae_l16x2m.iu	aed2, a5, 4; ae_l32m.iu	aed3, a4, 4 }
    692c:	457d                                    	ae_l16ui.n	a7, a5, 0
    692e:	228113273862422e                  	{ ae_sel16i	aed31, aed2, aed2, 1; nop; ae_mulf48q32sp16s.l	aed4, aed3, aed2 }
    6936:	1e4014233c3f07ce                  	{ beqz.w15	a7, 6959 <NR_NoiseEstimate+0x14d>; nop; ae_mulaf48q32sp16s.l	aed4, aed1, aed31 }
    693e:	230720c008c5716e                  	{ ae_l32m.iu	aed1, a6, 4; nop }
    6946:	0ead217b0d250c30c38081390001044f 	{ ae_s32m.i	aed4, a4, 0; nop; nop; ae_max64	aed0, aed0, aed4 }
    6956:	0003c6                                    	j	6969 <NR_NoiseEstimate+0x15d>

00006959 <NR_NoiseEstimate+0x14d>:
    6959:	0ead217b0d240c30c38061381001416f 	{ ae_l32m.iu	aed1, a6, 4; nop; nop; ae_max64	aed0, aed0, aed3 }
    6969:	f03d                                    	nop.n

0000696b <NR_NoiseEstimate+0x15f>:
    696b:	0eace570052095d0c400813b0c01040f 	{ ae_nsa64	a4, aed0; movi	a5, 9; nop; nop }
    697b:	f8c442                                    	addi	a4, a4, -8
    697e:	2e2457                                    	blt	a4, a5, 69b0 <NR_NoiseEstimate+0x1a4>
    6981:	799262                                    	l16si	a6, a2, 242
    6984:	f8c442                                    	addi	a4, a4, -8
    6987:	452252                                    	l32i	a5, a2, 0x114
    698a:	c06640                                    	sub	a6, a6, a4
    698d:	795262                                    	s16i	a6, a2, 242
    6990:	fcc522                                    	addi	a2, a5, -4
    6993:	939c                                    	beqz.n	a3, 69b0 <NR_NoiseEstimate+0x1a4>
    6995:	178376                                    	loop	a3, 69b0 <NR_NoiseEstimate+0x1a4>
    6998:	230720c000c5712e                  	{ ae_l32m.iu	aed0, a2, 4; nop }
    69a0:	220700c300a5140e                  	{ ae_slaaq56	aed0, aed0, a4; nop }
    69a8:	220760c000c5b02e                  	{ ae_s32m.i	aed0, a2, 0; nop }
    69b0:	f01d                                    	retw.n

000069b2 <NR_NoiseEstimate+0x1a6>:
	...

000069b4 <NR_NoiseWithGain>:
    69b4:	004136                                    	entry	a1, 32
    69b7:	330242                                    	l8ui	a4, a2, 51
    69ba:	930c                                    	movi.n	a3, 9
    69bc:	0298                                    	l32i.n	a9, a2, 0
    69be:	00a452                                    	movi	a5, 0x400
    69c1:	00a282                                    	movi	a8, 0x200
    69c4:	161262                                    	l16ui	a6, a2, 44
    69c7:	1192b2                                    	l16si	a11, a2, 34
    69ca:	627340                                    	saltu	a7, a3, a4
    69cd:	938570                                    	movnez	a8, a5, a7
    69d0:	15a0e2                                    	movi	a14, 21
    69d3:	a03890                                    	addx4	a3, a8, a9
    69d6:	418340                                    	srli	a8, a4, 3
    69d9:	01cbd2                                    	addi	a13, a11, 1
    69dc:	0276f6                                    	bgeui	a6, 7, 69e2 <NR_NoiseWithGain+0x2e>
    69df:	001f86                                    	j	6a61 <NR_NoiseWithGain+0xad>
    69e2:	07b416                                    	beqz	a4, 6a61 <NR_NoiseWithGain+0xad>
    69e5:	e63f91                                    	l32r	a9, 2e4 (b8d0 <wb_sb_ptn>)
    69e8:	e640a1                                    	l32r	a10, 2e8 (b900 <nb_sb_ptn>)
    69eb:	e64051                                    	l32r	a5, 2ec (bc60 <swb_sb_ptn>)
    69ee:	93a980                                    	movnez	a10, a9, a8
    69f1:	6286e0                                    	saltu	a8, a6, a14
    69f4:	835a70                                    	moveqz	a5, a10, a7
    69f7:	4171d0                                    	srli	a7, a13, 1
    69fa:	412262                                    	l32i	a6, a2, 0x104
    69fd:	40d7f2                                    	addmi	a15, a7, 0x4000
    6a00:	83fb80                                    	moveqz	a15, a11, a8
    6a03:	070c                                    	movi.n	a7, 0
    6a05:	230700c004a5fffe                  	{ ae_cvtp24a16x2.ll	aed0, a15, a15; nop }

00006a0d <NR_NoiseWithGain+0x59>:
    6a0d:	a08760                                    	addx4	a8, a7, a6
    6a10:	90a750                                    	addx2	a10, a7, a5
    6a13:	0888                                    	l32i.n	a8, a8, 0
    6a15:	4318a6                                    	blti	a8, 1, 6a5c <NR_NoiseWithGain+0xa8>
    6a18:	771b                                    	addi.n	a7, a7, 1
    6a1a:	2a8d                                    	ae_l16si.n	a8, a10, 0
    6a1c:	909750                                    	addx2	a9, a7, a5
    6a1f:	299d                                    	ae_l16si.n	a9, a9, 0
    6a21:	a0a830                                    	addx4	a10, a8, a3
    6a24:	2aa897                                    	bge	a8, a9, 6a52 <NR_NoiseWithGain+0x9e>
    6a27:	c09980                                    	sub	a9, a9, a8
    6a2a:	fcca82                                    	addi	a8, a10, -4
    6a2d:	218976                                    	loop	a9, 6a52 <NR_NoiseWithGain+0x9e>
    6a30:	230720c008c5718e                  	{ ae_l32m.iu	aed1, a8, 4; nop }
    6a38:	2283530b3420b13e                  	{ nop; nop; ae_mulf48q32sp16s.l	aed1, aed1, aed0 }
    6a40:	0ead257b0d240cd0c400813b0c01691f 	{ ae_trunca32q48	a9, aed1; nop; nop; nop }
    6a50:	0899                                    	s32i.n	a9, a8, 0

00006a52 <NR_NoiseWithGain+0x9e>:
    6a52:	b79747                                    	bne	a7, a4, 6a0d <NR_NoiseWithGain+0x59>
    6a55:	000206                                    	j	6a61 <NR_NoiseWithGain+0xad>

00006a58 <NR_NoiseWithGain+0xa4>:
    6a58:	00000000                                ....

00006a5c <NR_NoiseWithGain+0xa8>:
    6a5c:	771b                                    	addi.n	a7, a7, 1
    6a5e:	fffc06                                    	j	6a52 <NR_NoiseWithGain+0x9e>

00006a61 <NR_NoiseWithGain+0xad>:
    6a61:	799242                                    	l16si	a4, a2, 242
    6a64:	171252                                    	l16ui	a5, a2, 46
    6a67:	452262                                    	l32i	a6, a2, 0x114
    6a6a:	446b                                    	addi.n	a4, a4, 6
    6a6c:	7a5242                                    	s16i	a4, a2, 244
    6a6f:	840c                                    	movi.n	a4, 8
    6a71:	b5bc                                    	beqz.n	a5, 6ab0 <NR_NoiseWithGain+0xfc>
    6a73:	210533c00cc0316e                  	{ ae_l32.ip	aed1, a6, 4; ae_l32.ip	aed0, a3, 4 }
    6a7b:	062d                                    	mov.n	a2, a6
    6a7d:	2f8576                                    	loop	a5, 6ab0 <NR_NoiseWithGain+0xfc>
    6a80:	0ead257b09040cd0c580813a1401240f 	{ ae_slaa32	aed0, aed0, a4; nop; nop; nop }
    6a90:	05ad217b0d440c08410401380c01015f 	{ nop; nop; nop; ae_mulf2p32x4ras	aed0, aed1, aed1, aed0, aed0, aed1 }
    6aa0:	210573c00cc0df3e                  	{ ae_s32.l.i	aed1, a3, -4; ae_l32.ip	aed0, a3, 4 }
    6aa8:	230720c00cc5312e                  	{ ae_l32.ip	aed1, a2, 4; nop }

00006ab0 <NR_NoiseWithGain+0xfc>:
    6ab0:	f01d                                    	retw.n

00006ab2 <NR_NoiseWithGain+0xfe>:
	...

00006ab4 <common_gain_limiter>:
    6ab4:	004136                                    	entry	a1, 32
    6ab7:	205220                                    	or	a5, a2, a2
    6aba:	202330                                    	or	a2, a3, a3
    6abd:	150614a40800e5ce                  	{ blti.w15	a5, 1, 6ae0 <common_gain_limiter+0x2c>; ae_truncp24a32x2	aed0, a4, a4 }
    6ac5:	220760c00c85702e                  	{ ae_l16m.i	aed1, a2, 0; nop }
    6acd:	0f8576                                    	loop	a5, 6ae0 <common_gain_limiter+0x2c>
    6ad0:	120452401481010e                  	{ ae_max32	aed2, aed0, aed1; ae_l16m.iu	aed1, a2, 4 }
    6ad8:	230760c010c55f2e                  	{ ae_s32f24.l.i	aed2, a2, -4; nop }

00006ae0 <common_gain_limiter+0x2c>:
    6ae0:	f01d                                    	retw.n

00006ae2 <common_gain_limiter+0x2e>:
	...

00006ae4 <NR_WienerFilter>:
    6ae4:	006136                                    	entry	a1, 48
    6ae7:	330252                                    	l8ui	a5, a2, 51
    6aea:	0268                                    	l32i.n	a6, a2, 0
    6aec:	130c                                    	movi.n	a3, 1
    6aee:	1c0c                                    	movi.n	a12, 1
    6af0:	9d0c                                    	movi.n	a13, 9
    6af2:	7892e2                                    	l16si	a14, a2, 240
    6af5:	3159                                    	s32i.n	a5, a1, 12
    6af7:	7b9292                                    	l16si	a9, a2, 246
    6afa:	113340                                    	slli	a3, a3, 12
    6afd:	11cc50                                    	slli	a12, a12, 11
    6b00:	625d50                                    	saltu	a5, a13, a5
    6b03:	171242                                    	l16ui	a4, a2, 46
    6b06:	93c350                                    	movnez	a12, a3, a5
    6b09:	76cb                                    	addi.n	a7, a6, 12
    6b0b:	030c                                    	movi.n	a3, 0
    6b0d:	0e5d                                    	mov.n	a5, a14
    6b0f:	078d                                    	mov.n	a8, a7
    6b11:	a6ca                                    	add.n	a10, a6, a12
    6b13:	016162                                    	s32i	a6, a1, 4
    6b16:	08ae97                                    	bge	a14, a9, 6b22 <NR_WienerFilter+0x3e>
    6b19:	01a032                                    	movi	a3, 1
    6b1c:	462282                                    	l32i	a8, a2, 0x118
    6b1f:	205990                                    	or	a5, a9, a9

00006b22 <NR_WienerFilter+0x3e>:
    6b22:	7a92f2                                    	l16si	a15, a2, 244
    6b25:	026132                                    	s32i	a3, a1, 8
    6b28:	7265f0                                    	salt	a6, a5, a15
    6b2b:	53b5f0                                    	max	a11, a5, a15
    6b2e:	938a60                                    	movnez	a8, a10, a6
    6b31:	c03be0                                    	sub	a3, a11, a14
    6b34:	206770                                    	or	a6, a7, a7
    6b37:	301be7                                    	beq	a11, a14, 6b6b <NR_WienerFilter+0x87>
    6b3a:	a36830                                    	movltz	a6, a8, a3
    6b3d:	a4ac                                    	beqz.n	a4, 6b6b <NR_WienerFilter+0x87>
    6b3f:	fcc662                                    	addi	a6, a6, -4
    6b42:	605130                                    	abs	a5, a3
    6b45:	1f8476                                    	loop	a4, 6b68 <NR_WienerFilter+0x84>
    6b48:	230720c000c5716e                  	{ ae_l32m.iu	aed0, a6, 4; nop }
    6b50:	0ead257b09040cd0c580813b1401150f 	{ ae_srlaq56	aed0, aed0, a5; nop; nop; nop }
    6b60:	220760c000c5b06e                  	{ ae_s32m.i	aed0, a6, 0; nop }

00006b68 <NR_WienerFilter+0x84>:
    6b68:	7b1292                                    	l16ui	a9, a2, 246

00006b6b <NR_WienerFilter+0x87>:
    6b6b:	895d                                    	ae_sext16	a5, a9
    6b6d:	e5ddf1                                    	l32r	a15, 2e4 (b8d0 <wb_sb_ptn>)
    6b70:	41e340                                    	srli	a14, a4, 3
    6b73:	e5dd91                                    	l32r	a9, 2e8 (b900 <nb_sb_ptn>)
    6b76:	361b57                                    	beq	a11, a5, 6bb0 <NR_WienerFilter+0xcc>
    6b79:	c05b50                                    	sub	a5, a11, a5
    6b7c:	04bc                                    	beqz.n	a4, 6bb0 <NR_WienerFilter+0xcc>
    6b7e:	462232                                    	l32i	a3, a2, 0x118
    6b81:	a33850                                    	movltz	a3, a8, a5
    6b84:	605150                                    	abs	a5, a5
    6b87:	fcc362                                    	addi	a6, a3, -4
    6b8a:	0020f0                                    	nop
    6b8d:	1f8476                                    	loop	a4, 6bb0 <NR_WienerFilter+0xcc>
    6b90:	230720c000c5716e                  	{ ae_l32m.iu	aed0, a6, 4; nop }
    6b98:	0ead257b09040cd0c580813b1401150f 	{ ae_srlaq56	aed0, aed0, a5; nop; nop; nop }
    6ba8:	220760c000c5b06e                  	{ ae_s32m.i	aed0, a6, 0; nop }

00006bb0 <NR_WienerFilter+0xcc>:
    6bb0:	7a9232                                    	l16si	a3, a2, 244
    6bb3:	939fe0                                    	movnez	a9, a15, a14
    6bb6:	e5cde1                                    	l32r	a14, 2ec (bc60 <swb_sb_ptn>)
    6bb9:	62dd40                                    	saltu	a13, a13, a4
    6bbc:	301b37                                    	beq	a11, a3, 6bf0 <NR_WienerFilter+0x10c>
    6bbf:	c03b30                                    	sub	a3, a11, a3
    6bc2:	a4ac                                    	beqz.n	a4, 6bf0 <NR_WienerFilter+0x10c>
    6bc4:	b38a30                                    	movgez	a8, a10, a3
    6bc7:	605130                                    	abs	a5, a3
    6bca:	fcc862                                    	addi	a6, a8, -4
    6bcd:	1f8476                                    	loop	a4, 6bf0 <NR_WienerFilter+0x10c>
    6bd0:	230720c000c5716e                  	{ ae_l32m.iu	aed0, a6, 4; nop }
    6bd8:	0ead257b09040cd0c580813b1401150f 	{ ae_srlaq56	aed0, aed0, a5; nop; nop; nop }
    6be8:	220760c000c5b06e                  	{ ae_s32m.i	aed0, a6, 0; nop }
    6bf0:	462282                                    	l32i	a8, a2, 0x118
    6bf3:	939ed0                                    	movnez	a9, a14, a13
    6bf6:	1168                                    	l32i.n	a6, a1, 4
    6bf8:	7852b2                                    	s16i	a11, a2, 240
    6bfb:	7a52b2                                    	s16i	a11, a2, 244
    6bfe:	eca052                                    	movi	a5, 236
    6c01:	7b52b2                                    	s16i	a11, a2, 246
    6c04:	26c2b2                                    	addi	a11, a2, 38
    6c07:	130c                                    	movi.n	a3, 1
    6c09:	1d1416                                    	beqz	a4, 6dde <NR_WienerFilter+0x2fa>
    6c0c:	340452c318801fee                  	{ movi	a14, 255; ae_l16x2m.x	aed0, a2, a5 }
    6c14:	3006a34010c49c6e                  	{ ae_l32m.x	aed2, a6, a12; slli	a3, a3, 15 }
    6c1c:	3e02be4018df608e                  	{ ae_l32m.i	aed3, a8, 0; addmi	a14, a14, 0x7f00 }
    6c24:	0e657007fc6e880044000310056326cf 	{ addi	a12, a6, 8; or	a15, a8, a8; ae_add64	aed3, aed3, aed2; ae_sel16i	aed1, aed0, aed0, 1 }
    6c34:	000003f00a0200fad0e303032460540f 	{ loop	a4, 6cc4 <NR_WienerFilter+0x1e0>; ae_nsa64	a5, aed2; nop }
    6c44:	1306b34100cb71ce                  	{ ae_l32m.iu	aed4, a12, 4; or	a13, a3, a3 }
    6c4c:	228353233480b13e                  	{ nop; nop; ae_mulf48q32sp16s.l	aed4, aed4, aed0 }
    6c54:	1e81b4253c61855e                  	{ addi	a5, a5, -8; nop; ae_mulaf48q32sp16s.l	aed4, aed3, aed1 }
    6c5c:	0ead257b0d240cd0c400813b0c01064f 	{ ae_nsa64	a6, aed4; nop; nop; nop }
    6c6c:	f8c662                                    	addi	a6, a6, -8
    6c6f:	435560                                    	min	a5, a5, a6
    6c72:	e9c562                                    	addi	a6, a5, -23
    6c75:	f8c552                                    	addi	a5, a5, -8
    6c78:	220700c010a5d64e                  	{ ae_slaasq56s	aed3, aed4, a6; nop }
    6c80:	000003f30c0000fb768303003060d52f 	{ ae_slaaq56	aed2, aed2, a5; ae_trunca32q48	a6, aed3; nop }
    6c90:	000003f3080000fad5030304206076af 	{ beqz.w15	a6, 6ca3 <NR_WienerFilter+0x1bf>; ae_trunca32q48	a5, aed2; nop }
    6ca0:	d2d560                                    	quos	a13, a5, a6

00006ca3 <NR_WienerFilter+0x1bf>:
    6ca3:	0f5d                                    	mov.n	a5, a15
    6ca5:	c06ed0                                    	sub	a6, a14, a13
    6ca8:	11052a4018c2715e                  	{ ae_l32m.iu	aed3, a5, 4; ae_l32m.iu	aed2, a10, 4 }
    6cb0:	0f69                                    	s32i.n	a6, a15, 0
    6cb2:	05fd                                    	mov.n	a15, a5
    6cb4:	0ea5241b0d240cd0c40083130d63052f 	{ ae_nsa64	a5, aed2; nop; ae_add64	aed3, aed3, aed2; nop }

00006cc4 <NR_WienerFilter+0x1e0>:
    6cc4:	79a032                                    	movi	a3, 121
    6cc7:	08cd                                    	mov.n	a12, a8
    6cc9:	02b437                                    	bgeu	a4, a3, 6ccf <NR_WienerFilter+0x1eb>
    6ccc:	004386                                    	j	6dde <NR_WienerFilter+0x2fa>
    6ccf:	9492a2                                    	l16si	a10, a2, 0x128
    6cd2:	24a132                                    	movi	a3, 0x124
    6cd5:	3d1aa6                                    	blti	a10, 1, 6d16 <NR_WienerFilter+0x232>
    6cd8:	22056240048170be                  	{ ae_l16m.i	aed0, a11, 0; ae_l32m.x	aed1, a2, a3 }
    6ce0:	228233042020108e                  	{ ae_l16m.i	aed1, a8, 0; nop; ae_mulf48q32sp16s.l	aed0, aed1, aed0 }
    6ce8:	0ead6567e52688d0c400813b0c016f0f 	{ ae_trunca32q48	a15, aed0; or	a12, a8, a8; nop; nop }
    6cf8:	1f063fc318e0747e                  	{ nop; ae_truncp24a32x2	aed0, a15, a15 }
    6d00:	0f8a76                                    	loop	a10, 6d13 <NR_WienerFilter+0x22f>
    6d03:	12045c401481010e                  	{ ae_max32	aed2, aed0, aed1; ae_l16m.iu	aed1, a12, 4 }
    6d0b:	230760c010c55fce                  	{ ae_s32f24.l.i	aed2, a12, -4; nop }
    6d13:	9492a2                                    	l16si	a10, a2, 0x128

00006d16 <NR_WienerFilter+0x232>:
    6d16:	139232                                    	l16si	a3, a2, 38
    6d19:	9592d2                                    	l16si	a13, a2, 0x12a
    6d1c:	115300                                    	slli	a5, a3, 16
    6d1f:	150615c01ce05dae                  	{ sub	a3, a13, a10; ae_truncp24a32x2	aed0, a5, a5 }
    6d27:	1d13a6                                    	blti	a3, 1, 6d48 <NR_WienerFilter+0x264>
    6d2a:	220760c00c8570ce                  	{ ae_l16m.i	aed1, a12, 0; nop }
    6d32:	0f8376                                    	loop	a3, 6d45 <NR_WienerFilter+0x261>
    6d35:	12045c401481010e                  	{ ae_max32	aed2, aed0, aed1; ae_l16m.iu	aed1, a12, 4 }
    6d3d:	230760c010c55fce                  	{ ae_s32f24.l.i	aed2, a12, -4; nop }

00006d45 <NR_WienerFilter+0x261>:
    6d45:	9592d2                                    	l16si	a13, a2, 0x12a

00006d48 <NR_WienerFilter+0x264>:
    6d48:	20a1a2                                    	movi	a10, 0x120
    6d4b:	0e03294008c2a2ae                  	{ ae_l32m.xu	aed1, a10, a2; l16si	a14, a9, 16 }
    6d53:	228353033420b13e                  	{ nop; nop; ae_mulf48q32sp16s.l	aed0, aed1, aed0 }
    6d5b:	0ead65689d22edd0c400813b0c01650f 	{ ae_trunca32q48	a5, aed0; sub	a3, a14, a13; nop; nop }
    6d6b:	140615a00c0033ce                  	{ blti.w15	a3, 1, 6d93 <NR_WienerFilter+0x2af>; ae_truncp24a32x2	aed0, a5, a5 }
    6d73:	220760c00c8570ce                  	{ ae_l16m.i	aed1, a12, 0; nop }
    6d7b:	f03d                                    	nop.n
    6d7d:	0f8376                                    	loop	a3, 6d90 <NR_WienerFilter+0x2ac>
    6d80:	12045c401481010e                  	{ ae_max32	aed2, aed0, aed1; ae_l16m.iu	aed1, a12, 4 }
    6d88:	230760c010c55fce                  	{ ae_s32f24.l.i	aed2, a12, -4; nop }

00006d90 <NR_WienerFilter+0x2ac>:
    6d90:	0899e2                                    	l16si	a14, a9, 16

00006d93 <NR_WienerFilter+0x2af>:
    6d93:	3f06b44008d800ae                  	{ ae_l32f24.i	aed1, a10, 0; sub	a3, a4, a14 }
    6d9b:	22834a033401b13e                  	{ nop; nop; ae_mulf32s.ll	aed0, aed0, aed1 }
    6da3:	0ead257b0d240cd0c400813b0c016a0f 	{ ae_trunca32q48	a10, aed0; nop; nop; nop }
    6db3:	1a063aa4080083ce                  	{ blti.w15	a3, 1, 6e08 <NR_WienerFilter+0x324>; ae_truncp24a32x2	aed0, a10, a10 }
    6dbb:	220760c00c8570ce                  	{ ae_l16m.i	aed1, a12, 0; nop }
    6dc3:	0f8376                                    	loop	a3, 6dd6 <NR_WienerFilter+0x2f2>
    6dc6:	12045c401481010e                  	{ ae_max32	aed2, aed0, aed1; ae_l16m.iu	aed1, a12, 4 }
    6dce:	230760c010c55fce                  	{ ae_s32f24.l.i	aed2, a12, -4; nop }

00006dd6 <NR_WienerFilter+0x2f2>:
    6dd6:	000b86                                    	j	6e08 <NR_WienerFilter+0x324>

00006dd9 <NR_WienerFilter+0x2f5>:
    6dd9:	00000000                                 .....

00006dde <NR_WienerFilter+0x2fa>:
    6dde:	2b3d                                    	ae_l16si.n	a3, a11, 0
    6de0:	085d                                    	mov.n	a5, a8
    6de2:	11a300                                    	slli	a10, a3, 16
    6de5:	1b061aa40000e4ae                  	{ beqz.w15	a4, 6e08 <NR_WienerFilter+0x324>; ae_truncp24a32x2	aed0, a10, a10 }
    6ded:	220760c00c85708e                  	{ ae_l16m.i	aed1, a8, 0; nop }
    6df5:	0f8476                                    	loop	a4, 6e08 <NR_WienerFilter+0x324>
    6df8:	120455401481010e                  	{ ae_max32	aed2, aed0, aed1; ae_l16m.iu	aed1, a5, 4 }
    6e00:	230760c010c55f5e                  	{ ae_s32f24.l.i	aed2, a5, -4; nop }

00006e08 <NR_WienerFilter+0x324>:
    6e08:	00041b420c80423e                  	{ l32i	a3, a2, 0x124; ae_l16m.i	aed0, a11, 0 }
    6e10:	200703400481025e                  	{ l32i	a5, a2, 0; ae_cvt48a32	aed1, a3 }
    6e18:	22823302202000ce                  	{ movi	a12, 0; nop; ae_mulf48q32sp16s.l	aed0, aed1, aed0 }
    6e20:	3406d540048bd00e                  	{ ae_round24x2f48ssym	aed0, aed0, aed0; or	a15, a5, a5 }
    6e28:	1e04604000c061fe                  	{ ae_s32f24.l.ip	aed0, a15, 4; movi	a14, 16 }
    6e30:	0302ef4000c1515e                  	{ ae_s32f24.l.i	aed0, a5, 4; addi	a3, a15, 4 }
    6e38:	0b02e34000c1525e                  	{ ae_s32f24.l.i	aed0, a5, 8; addi	a11, a3, 4 }
    6e40:	4622d2                                    	l32i	a13, a2, 0x118
    6e43:	223416                                    	beqz	a4, 706a <NR_WienerFilter+0x586>
    6e46:	210537c004c131de                  	{ ae_l32.ip	aed0, a13, 4; ae_l32.ip	aed1, a7, 4 }
    6e4e:	3a8476                                    	loop	a4, 6e8c <NR_WienerFilter+0x3a8>
    6e51:	2283470b3420b13e                  	{ nop; nop; ae_mulf32r.ll	aed1, aed1, aed0 }
    6e59:	220700c008455e1e                  	{ ae_trunca32x2f64s	aed1, aed1, aed1, a14; nop }
    6e61:	05ad217b0d440c08830401380c01015f 	{ nop; nop; nop; ae_mulf2p32x4ras	aed1, aed2, aed1, aed0, aed0, aed1 }
    6e71:	0306f2c014dcdfde                  	{ ae_s32.l.i	aed2, a13, -4; ae_movad32.l	a3, aed2 }
    6e79:	220760c004c5f1be                  	{ ae_s32.l.ip	aed0, a11, 4; nop }
    6e81:	210537c004c131de                  	{ ae_l32.ip	aed0, a13, 4; ae_l32.ip	aed1, a7, 4 }
    6e89:	53cc30                                    	max	a12, a12, a3
    6e8c:	31e8                                    	l32i.n	a14, a1, 12
    6e8e:	dba132                                    	movi	a3, 0x1db
    6e91:	150c                                    	movi.n	a5, 1
    6e93:	0121d2                                    	l32i	a13, a1, 4
    6e96:	115530                                    	slli	a5, a5, 13
    6e99:	24aef2                                    	movi	a15, 0xfffffe24
    6e9c:	01a062                                    	movi	a6, 1
    6e9f:	029ef6                                    	bgeui	a14, 10, 6ea5 <NR_WienerFilter+0x3c1>
    6ea2:	004306                                    	j	6fb2 <NR_WienerFilter+0x4ce>
    6ea5:	099992                                    	l16si	a9, a9, 18
    6ea8:	117620                                    	slli	a7, a6, 14
    6eab:	0704014004a0f77e                  	{ ae_cvtp24a16x2.ll	aed0, a7, a7; movi	a7, 1 }
    6eb3:	070402400ca0e55e                  	{ ae_cvtp24a16x2.ll	aed1, a5, a5; movi	a6, 2 }
    6ebb:	8059f0                                    	add	a5, a9, a15
    6ebe:	02a397                                    	bge	a3, a9, 6ec4 <NR_WienerFilter+0x3e0>
    6ec1:	003b46                                    	j	6fb2 <NR_WienerFilter+0x4ce>
    6ec4:	0e9d43a669ec9d48c5040d100400023f 	{ l32i	a3, a2, 0; addx4	a13, a9, a13; ae_muls32f48p16s.ll	aed2, aed0, aed0; ae_sub24s	aed1, aed1, aed0 }
    6ed4:	3206894300b8972e                  	{ ae_slaaq56	aed2, aed2, a7; addx4	a3, a9, a3 }
    6edc:	605050                                    	neg	a5, a5
    6edf:	0ccd92                                    	addi	a9, a13, 12
    6ee2:	fcc3d2                                    	addi	a13, a3, -4
    6ee5:	c98576                                    	loop	a5, 6fb2 <NR_WienerFilter+0x4ce>
    6ee8:	230720c018c571de                  	{ ae_l32m.iu	aed3, a13, 4; nop }
    6ef0:	220720c100c571de                  	{ ae_l32m.i	aed4, a13, 4; nop }
    6ef8:	0ea5241b0d250cd0c480832219638edf 	{ ae_l32m.i	aed30, a13, 8; nop; ae_add64	aed3, aed3, aed4; nop }
    6f08:	0ea5241b0d250cd0c48083f21963cfdf 	{ ae_l32m.i	aed31, a13, 12; nop; ae_add64	aed3, aed3, aed30; nop }
    6f18:	0ead257b0d040cd0c580813f1c01c33f 	{ ae_add64	aed3, aed3, aed31; nop; nop; nop }
    6f28:	0ead257b09040cd0c580813a0c01c23f 	{ ae_srai64	aed3, aed3, 2; nop; nop; nop }
    6f38:	0ead217b0d5c0ce8c30c61380c01015f 	{ nop; nop; nop; ae_roundsp16q48x2asym	aed3, aed3, aed3 }
    6f48:	220720c400e5530e                  	{ ae_lt32	b0:b1, aed0, aed3; nop }
    6f50:	4f0176                                    	bf	b1, 6fa3 <NR_WienerFilter+0x4bf>
    6f53:	0e1d23bb0d5c0c18c92f0df80c61015f 	{ nop; nop; ae_muls32f48p16s.ll	aed31, aed3, aed1; ae_muls32f48p16s.ll	aed4, aed3, aed3 }
    6f63:	220700c304a5174e                  	{ ae_slaaq56	aed4, aed4, a7; nop }
    6f6b:	220700c300a5f6fe                  	{ ae_slaaq56	aed3, aed31, a6; nop }
    6f73:	0ead257b0d040cd0c58081381c01c34f 	{ ae_add64	aed3, aed4, aed3; nop; nop; nop }
    6f83:	0ead257b0d040cd0c58081381401c33f 	{ ae_add64	aed3, aed3, aed2; nop; nop; nop }
    6f93:	0ead217b0d5c0ce8c30c61380c01015f 	{ nop; nop; nop; ae_roundsp16q48x2asym	aed3, aed3, aed3 }

00006fa3 <NR_WienerFilter+0x4bf>:
    6fa3:	230700c018e5db3e                  	{ ae_trunca16p24s.l	a3, aed3; nop }
    6fab:	113300                                    	slli	a3, a3, 16
    6fae:	0939                                    	s32i.n	a3, a9, 0
    6fb0:	994b                                    	addi.n	a9, a9, 4

00006fb2 <NR_WienerFilter+0x4ce>:
    6fb2:	2138                                    	l32i.n	a3, a1, 8
    6fb4:	b39c                                    	beqz.n	a3, 6fd3 <NR_WienerFilter+0x4ef>
    6fb6:	7b9252                                    	l16si	a5, a2, 246
    6fb9:	40ec30                                    	nsa	a3, a12
    6fbc:	c05530                                    	sub	a5, a5, a3
    6fbf:	7b5252                                    	s16i	a5, a2, 246
    6fc2:	d48c                                    	beqz.n	a4, 6fd3 <NR_WienerFilter+0x4ef>
    6fc4:	401300                                    	ssl	a3
    6fc7:	088476                                    	loop	a4, 6fd3 <NR_WienerFilter+0x4ef>
    6fca:	0838                                    	l32i.n	a3, a8, 0
    6fcc:	a13300                                    	sll	a3, a3
    6fcf:	0839                                    	s32i.n	a3, a8, 0
    6fd1:	884b                                    	addi.n	a8, a8, 4
    6fd3:	960c                                    	movi.n	a6, 9
    6fd5:	4143e0                                    	srli	a4, a14, 3
    6fd8:	0fa032                                    	movi	a3, 15
    6fdb:	05a052                                    	movi	a5, 5
    6fde:	21a072                                    	movi	a7, 33
    6fe1:	935340                                    	movnez	a5, a3, a4
    6fe4:	62d6e0                                    	saltu	a13, a6, a14
    6fe7:	fccbf2                                    	addi	a15, a11, -4
    6fea:	1a063ac518e0a5de                  	{ moveqz	a7, a5, a13; ae_truncp24a32x2	aed0, a10, a10 }
    6ff2:	04cf32                                    	addi	a3, a15, 4
    6ff5:	078776                                    	loop	a7, 7000 <NR_WienerFilter+0x51c>
    6ff8:	220760c000c5713e                  	{ ae_s32f24.l.ip	aed0, a3, 4; nop }

00007000 <NR_WienerFilter+0x51c>:
    7000:	00a132                                    	movi	a3, 0x100
    7003:	80a062                                    	movi	a6, 128
    7006:	936340                                    	movnez	a6, a3, a4
    7009:	970c                                    	movi.n	a7, 9
    700b:	3f2242                                    	l32i	a4, a2, 252
    700e:	00a282                                    	movi	a8, 0x200
    7011:	3e2252                                    	l32i	a5, a2, 248
    7014:	0228                                    	l32i.n	a2, a2, 0
    7016:	6277e0                                    	saltu	a7, a7, a14
    7019:	031c                                    	movi.n	a3, 16
    701b:	100524c600e0a67e                  	{ moveqz	a8, a6, a7; ae_l32x2f24.i	aed0, a4, 0 }
    7023:	200572c01481705e                  	{ ae_l16m.i	aed2, a5, 0; ae_l32.ip	aed1, a2, 4 }
    702b:	648b                                    	addi.n	a6, a4, 8
    702d:	378876                                    	loop	a8, 7068 <NR_WienerFilter+0x584>
    7030:	0e1d225b0d250c14462b4df80802815f 	{ ae_l16m.iu	aed2, a5, 2; nop; ae_mulf32s.ll	aed31, aed0, aed2; ae_mulf32s.lh	aed3, aed2, aed0 }
    7040:	220700c71845133e                  	{ ae_trunca32x2f64s	aed0, aed3, aed31, a3; nop }
    7048:	05ad217b09a40c08c18401391c01412f 	{ ae_l32.ip	aed1, a2, 4; nop; nop; ae_mulf2p32x4ras	aed0, aed3, aed1, aed0, aed0, aed1 }
    7058:	230720c004a5b96e                  	{ ae_l32x2f24.ip	aed0, a6, 8; nop }
    7060:	230700c01ce5994e                  	{ ae_s32x2.ip	aed3, a4, 8; nop }
    7068:	f01d                                    	retw.n

0000706a <NR_WienerFilter+0x586>:
    706a:	0c0c                                    	movi.n	a12, 0
    706c:	ff8706                                    	j	6e8c <NR_WienerFilter+0x3a8>

0000706f <NR_WienerFilter+0x58b>:
	...

00007070 <ifft_wo_single>:
    7070:	004136                                    	entry	a1, 32
    7073:	0248                                    	l32i.n	a4, a2, 0
    7075:	050c                                    	movi.n	a5, 0
    7077:	330262                                    	l8ui	a6, a2, 51
    707a:	f0a0c2                                    	movi	a12, 240
    707d:	00a2d2                                    	movi	a13, 0x200
    7080:	3f2292                                    	l32i	a9, a2, 252
    7083:	1459                                    	s32i.n	a5, a4, 4
    7085:	2e0c                                    	movi.n	a14, 2
    7087:	0459                                    	s32i.n	a5, a4, 0
    7089:	41b360                                    	srli	a11, a6, 3
    708c:	e49351                                    	l32r	a5, 2d8 (cc80 <fftorder_1024_12b>)
    708f:	4a0c                                    	movi.n	a10, 4
    7091:	bf7c                                    	movi.n	a15, -5
    7093:	0e96b6                                    	bltui	a6, 10, 70a5 <ifft_wo_single+0x35>
    7096:	852b                                    	addi.n	a8, a5, 2
    7098:	1a0c                                    	movi.n	a10, 1
    709a:	00a452                                    	movi	a5, 0x400
    709d:	a77c                                    	movi.n	a7, -6
    709f:	e0a162                                    	movi	a6, 0x1e0
    70a2:	000686                                    	j	70c0 <ifft_wo_single+0x50>

000070a5 <ifft_wo_single+0x35>:
    70a5:	754b                                    	addi.n	a7, a5, 4
    70a7:	858b                                    	addi.n	a8, a5, 8
    70a9:	78a062                                    	movi	a6, 120
    70ac:	9387b0                                    	movnez	a8, a7, a11
    70af:	00a152                                    	movi	a5, 0x100
    70b2:	c77c                                    	movi.n	a7, -4
    70b4:	936cb0                                    	movnez	a6, a12, a11
    70b7:	935db0                                    	movnez	a5, a13, a11
    70ba:	93aeb0                                    	movnez	a10, a14, a11
    70bd:	937fb0                                    	movnez	a7, a15, a11
    70c0:	e48cb1                                    	l32r	a11, 2f0 (b5b0 <NR_immediate_num>)
    70c3:	2f06ca400ca65c0e                  	{ ae_movi	aed1, 0; slli	a10, a10, 1 }
    70cb:	310679c00483b0be                  	{ ae_l16x2m.i	aed0, a11, 0; ae_l32x2f24.ip	aed3, a9, 8 }
    70d3:	3506f1c01496b1be                  	{ ae_l16x2m.i	aed2, a11, 4; srli	a11, a5, 1 }
    70db:	338b76                                    	loop	a11, 7112 <ifft_wo_single+0xa2>
    70de:	28dd                                    	ae_l16si.n	a13, a8, 0
    70e0:	1a81000923e3813e                  	{ ae_sel16i	aed4, aed3, aed1, 2; nop; ae_sel16i.n	aed31, aed3, aed1, 0 }
    70e8:	09cd                                    	mov.n	a12, a9
    70ea:	0e1d60c645238a27c82f182d03e2c19f 	{ ae_l32x2f24.i	aed3, a9, 0; add	a8, a8, a10; ae_mulzaafd32s.hh.ll	aed5, aed31, aed2; ae_mulzaafd32s.hh.ll	aed4, aed4, aed0 }
    70fa:	0e6d317b0c7c0c190410a1380401299f 	{ addi	a9, a9, 8; nop; nop; ae_truncp24q48x2	aed4, aed4, aed5 }
    710a:	230760c100c5fd4e                  	{ ae_s32x2f24.x	aed4, a4, a13; nop }

00007112 <ifft_wo_single+0xa2>:
    7112:	f0cc92                                    	addi	a9, a12, -16
    7115:	3a028bc014ffd2fe                  	{ ae_neg24s	aed2, aed2; addi	a11, a11, -1 }
    711d:	090289c018fe39ce                  	{ ae_l32x2f24.i	aed3, a12, -16; addi	a9, a9, -8 }
    7125:	230720c318e5747e                  	{ nop; nop }
    712d:	378b76                                    	loop	a11, 7168 <ifft_wo_single+0xf8>
    7130:	0e5533a01c609d07c50c3e08048308bf 	{ l16si	a11, a8, 0; ae_l32x2f24.i	aed3, a9, 0; ae_sel16i.n	aed4, aed3, aed1, 2; ae_sel16i	aed31, aed3, aed1, 0 }
    7140:	0e1ce0c7c5339927c92f182f0be088af 	{ add	a8, a8, a10; addi	a9, a9, -8; ae_mulzaafd32s.hh.ll	aed5, aed31, aed0; ae_mulzaafd32s.hh.ll	aed4, aed4, aed2 }
    7150:	0e6d317b0d5c0c190510a1380c01015f 	{ nop; nop; nop; ae_truncp24q48x2	aed4, aed4, aed5 }
    7160:	230760c100c5fb4e                  	{ ae_s32x2f24.x	aed4, a4, a11; nop }
    7168:	e45d81                                    	l32r	a8, 2dc (755c <sw_fft_32b_2811>)
    716b:	8c0c                                    	movi.n	a12, 8
    716d:	0d0c                                    	movi.n	a13, 0
    716f:	1e0c                                    	movi.n	a14, 1
    7171:	04ad                                    	mov.n	a10, a4
    7173:	05bd                                    	mov.n	a11, a5
    7175:	0008e0                                    	callx8	a8
    7178:	4422b2                                    	l32i	a11, a2, 0x110
    717b:	f7aa                                    	add.n	a15, a7, a10
    717d:	159292                                    	l16si	a9, a2, 42
    7180:	4222d2                                    	l32i	a13, a2, 0x108
    7183:	c08560                                    	sub	a8, a5, a6
    7186:	fec3c2                                    	addi	a12, a3, -2
    7189:	000564471460eb7e                  	{ addi	a7, a11, -2; ae_l32m.i	aed0, a4, 0 }
    7191:	c02f90                                    	sub	a2, a15, a9
    7194:	fecda2                                    	addi	a10, a13, -2
    7197:	9098d0                                    	addx2	a9, a8, a13
    719a:	20d770                                    	or	a13, a7, a7
    719d:	3f8676                                    	loop	a6, 71e0 <ifft_wo_single+0x170>
    71a0:	10041d4010a1120e                  	{ ae_slaasq56s	aed0, aed0, a2; ae_l16m.iu	aed1, a13, 2 }
    71a8:	0eace171fd23a1d0c40061380801b39f 	{ ae_l16m.iu	aed2, a9, -2; ae_l16m.iu	aed31, a10, 2; nop; ae_roundsq32f48sym	aed0, aed0 }
    71b8:	2283490b3441b13e                  	{ nop; nop; ae_mulf32s.lh	aed1, aed2, aed1 }
    71c0:	1e82940b301f024e                  	{ ae_l32m.iu	aed0, a4, 8; nop; ae_mulaf48q32sp16s.l	aed1, aed0, aed31 }
    71c8:	0ead217b0d4c0cf0c30421380c01015f 	{ nop; nop; nop; ae_roundsp16q48x2sym	aed1, aed1, aed1 }
    71d8:	230740c00cc511ce                  	{ ae_s16m.l.iu	aed1, a12, 2; nop }
    71e0:	11a6f0                                    	slli	a10, a6, 1
    71e3:	90c6b0                                    	addx2	a12, a6, a11
    71e6:	c0a5a0                                    	sub	a10, a5, a10
    71e9:	90f8b0                                    	addx2	a15, a8, a11
    71ec:	fecc52                                    	addi	a5, a12, -2
    71ef:	451aa6                                    	blti	a10, 1, 7238 <ifft_wo_single+0x1c8>
    71f2:	2602efc0049f603e                  	{ ae_l16m.i	aed0, a3, 0; addi	a6, a15, -2 }
    71fa:	0020f0                                    	nop
    71fd:	378a76                                    	loop	a10, 7238 <ifft_wo_single+0x1c8>
    7200:	0e6cf57115336120c40021380801739f 	{ ae_l16m.iu	aed1, a9, -2; ae_l16m.iu	aed2, a6, 2; nop; ae_cvtq56p32s.l	aed3, aed0 }
    7210:	0e9ce711052331d0c4008b1a0822cd5f 	{ ae_l16m.iu	aed31, a5, 2; ae_l16m.iu	aed0, a3, 2; ae_mulaf32s.lh	aed3, aed1, aed2; nop }
    7220:	0ead217b0c5d0cf0c308613a1c01cc6f 	{ ae_s16m.l.i	aed31, a6, 0; nop; nop; ae_roundsp16q48x2sym	aed2, aed3, aed3 }
    7230:	220740c014c51f3e                  	{ ae_s16m.l.i	aed2, a3, -2; nop }

00007238 <ifft_wo_single+0x1c8>:
    7238:	2a18a6                                    	blti	a8, 1, 7266 <ifft_wo_single+0x1f6>
    723b:	220720c000c5704e                  	{ ae_l32m.i	aed0, a4, 0; nop }
    7243:	1f8876                                    	loop	a8, 7266 <ifft_wo_single+0x1f6>
    7246:	1205044010a0420e                  	{ ae_slaasq56s	aed1, aed0, a2; ae_l32m.iu	aed0, a4, 8 }
    724e:	0ead217b0d4c0cf0c30421380c01015f 	{ nop; nop; nop; ae_roundsp16q48x2sym	aed1, aed1, aed1 }
    725e:	230740c00cc5117e                  	{ ae_s16m.l.iu	aed1, a7, 2; nop }
    7266:	f01d                                    	retw.n

00007268 <ifft_wo_single+0x1f8>:
	...

00007270 <airoha_divide>:
    7270:	006136                                    	entry	a1, 48
    7273:	2007224500e0f32e                  	{ or	a4, a3, a2; ae_cvt64a32	aed0, a2 }
    727b:	310723240401e4ae                  	{ beqz.w15	a4, 72fe <airoha_divide+0x8e>; ae_movda32	aed1, a3 }
    7283:	000003f0000100fad4030300206012af 	{ beqz.w15	a2, 7307 <airoha_divide+0x97>; ae_nsa64	a5, aed0; nop }
    7293:	230700c008e5da4e                  	{ ae_nsaz32.l	a4, aed1; nop }
    729b:	06f316                                    	beqz	a3, 730e <airoha_divide+0x9e>
    729e:	550b                                    	addi.n	a5, a5, -1
    72a0:	16040f4100a0441e                  	{ ae_slaa32s	aed1, aed1, a4; movi	a6, 31 }
    72a8:	0ead247b09040cd0c58080081e41150f 	{ ae_slaa64s	aed0, aed0, a5; nop; ae_abs32s	aed1, aed1; nop }
    72b8:	0ead057b09e40cd0c5808138000100cf 	{ ae_abs64s	aed0, aed0; nop; nop; nop }
    72c8:	0020f0                                    	nop
    72cb:	f03d                                    	nop.n
    72cd:	0f8676                                    	loop	a6, 72e0 <airoha_divide+0x70>
    72d0:	0ead057b09e40cd0c58081380801009f 	{ ae_div64d32.h	aed0, aed1; nop; nop; nop }

000072e0 <airoha_divide+0x70>:
    72e0:	36040fc000ff971e                  	{ ae_s64.i	aed0, a1, 8; movi	a7, -1 }
    72e8:	2168                                    	l32i.n	a6, a1, 8
    72ea:	417170                                    	srli	a7, a7, 1
    72ed:	30f320                                    	xor	a15, a3, a2
    72f0:	c02450                                    	sub	a2, a4, a5
    72f3:	106670                                    	and	a6, a6, a7
    72f6:	603060                                    	neg	a3, a6
    72f9:	b336f0                                    	movgez	a3, a6, a15
    72fc:	f01d                                    	retw.n

000072fe <airoha_divide+0x8e>:
    72fe:	f37c                                    	movi.n	a3, -1
    7300:	020c                                    	movi.n	a2, 0
    7302:	413130                                    	srli	a3, a3, 1
    7305:	f01d                                    	retw.n

00007307 <airoha_divide+0x97>:
    7307:	030c                                    	movi.n	a3, 0
    7309:	c1af22                                    	movi	a2, -63
    730c:	f01d                                    	retw.n

0000730e <airoha_divide+0x9e>:
    730e:	e40031                                    	l32r	a3, 310 (80000001 <_end+0x7fff2715>)
    7311:	040c                                    	movi.n	a4, 0
    7313:	f57c                                    	movi.n	a5, -1
    7315:	724420                                    	salt	a4, a4, a2
    7318:	415150                                    	srli	a5, a5, 1
    731b:	f23c                                    	movi.n	a2, 63
    731d:	933540                                    	movnez	a3, a5, a4
    7320:	f01d                                    	retw.n

00007322 <airoha_divide+0xb2>:
	...

00007324 <airoha_divide_limit_1>:
    7324:	006136                                    	entry	a1, 48
    7327:	e38941                                    	l32r	a4, 14c (7270 <airoha_divide>)
    732a:	02ad                                    	mov.n	a10, a2
    732c:	03bd                                    	mov.n	a11, a3
    732e:	0004e0                                    	callx8	a4
    7331:	21072b4318e0647e                  	{ nop; ae_cvt48a32	aed0, a11 }
    7339:	220700c010a51a0e                  	{ ae_slaasq56s	aed0, aed0, a10; nop }
    7341:	0ead217b0d440cd0c50041380c01015f 	{ nop; nop; nop; ae_roundsq32f48asym	aed0, aed0 }
    7351:	220760c000c5b31e                  	{ ae_s32m.i	aed0, a1, 12; nop }
    7359:	3128                                    	l32i.n	a2, a1, 12
    735b:	f01d                                    	retw.n

0000735d <airoha_divide_limit_1+0x39>:
    735d:	000000                                        ...

00007360 <xtensa_fft_pass_32b>:
    7360:	004136                                    	entry	a1, 32
    7363:	904330                                    	addx2	a4, a3, a3
    7366:	1153c0                                    	slli	a5, a3, 4
    7369:	2505124504e0342e                  	{ addx8	a4, a4, a2; ae_l32x2.x	aed0, a2, a5 }
    7371:	1005124008e2024e                  	{ ae_l32x2.i	aed1, a4, 0; ae_l32x2.i	aed2, a2, 0 }
    7379:	0e956686b52532d0c500800f0820525f 	{ add	a5, a2, a5; addx8	a6, a3, a2; ae_addandsub32s	aed0, aed1, aed0, aed1; nop }
    7389:	0e94f690053028c8c47422000040087f 	{ movi	a7, 0x100; movi	a8, 2; ae_addandsub32s	aed0, aed2, aed2, aed0; ae_neg32	aed29, aed1 }
    7399:	3b00004014fe995e                  	{ ae_s32x2.ip	aed2, a5, 8; ae_sel16i	aed30, aed1, aed29, 0 }
    73a1:	0904004004e8992e                  	{ ae_s32x2.ip	aed0, a2, 8; movi	a9, 0x200 }
    73a9:	220700c718e5126e                  	{ ae_l32x2.i	aed31, a6, 0; nop }
    73b1:	0ead257b0a250cd0c400813f100120ff 	{ ae_addandsub32s	aed0, aed1, aed31, aed30; nop; nop; nop }
    73c1:	230700c00ce5994e                  	{ ae_s32x2.ip	aed1, a4, 8; nop }
    73c9:	230700c004e5996e                  	{ ae_s32x2.ip	aed0, a6, 8; nop }
    73d1:	022737                                    	blt	a7, a3, 73d7 <xtensa_fft_pass_32b+0x77>
    73d4:	d28930                                    	quos	a8, a9, a3

000073d7 <xtensa_fft_pass_32b+0x77>:
    73d7:	e3cf71                                    	l32r	a7, 314 (d480 <ROOTS_1024_Q16>)
    73da:	11a8e0                                    	slli	a10, a8, 2
    73dd:	219130                                    	srai	a9, a3, 1
    73e0:	a07870                                    	addx4	a7, a8, a7
    73e3:	f8c772                                    	addi	a7, a7, -8
    73e6:	0b0557a41000a3ce                  	{ blti.w15	a3, 2, 7481 <xtensa_fft_pass_32b+0x121>; ae_l32x2.xp	aed0, a7, a10 }
    73ee:	8f8976                                    	loop	a9, 7481 <xtensa_fft_pass_32b+0x121>
    73f1:	1005144008e2025e                  	{ ae_l32x2.i	aed1, a5, 0; ae_l32x2.i	aed2, a4, 0 }
    73f9:	0e2d217b0d250c08c228e13d0001862f 	{ ae_l32x2.i	aed6, a2, 0; nop; nop; ae_mulcj32w	aed1, aed3, aed1, aed0 }
    7409:	0e2d217b0d440c10bd2881380c01015f 	{ nop; nop; nop; ae_mulc32w	aed30, aed2, aed2, aed0 }
    7419:	0ea5001b08fc0ce0c19441f01584023f 	{ ae_sub64s	aed2, aed3, aed2; nop; ae_add64s	aed4, aed1, aed30; ae_add64s	aed5, aed3, aed2 }
    7429:	0ead057b08e50ca8c390a1380c0100ef 	{ ae_sub64s	aed0, aed30, aed1; nop; nop; ae_round32x2f48sasym	aed4, aed4, aed5 }
    7439:	0ead217b0a340ca8c28001390001306f 	{ ae_addandsub32s	aed4, aed5, aed6, aed4; nop; nop; ae_round32x2f48sasym	aed0, aed2, aed0 }
    7449:	230700c10ce5995e                  	{ ae_s32x2.ip	aed5, a5, 8; nop }
    7451:	230700c104e5992e                  	{ ae_s32x2.ip	aed4, a2, 8; nop }
    7459:	220700c718e5126e                  	{ ae_l32x2.i	aed31, a6, 0; nop }
    7461:	0ead257b0a250cd0c4008138000120ff 	{ ae_addandsub32s	aed0, aed1, aed31, aed0; nop; nop; nop }
    7471:	230700c004e5996e                  	{ ae_s32x2.ip	aed0, a6, 8; nop }
    7479:	0b0517c00ce0894e                  	{ ae_s32x2.ip	aed1, a4, 8; ae_l32x2.xp	aed0, a7, a10 }

00007481 <xtensa_fft_pass_32b+0x121>:
    7481:	11b8c0                                    	slli	a11, a8, 4
    7484:	0243e6                                    	bgei	a3, 4, 748a <xtensa_fft_pass_32b+0x12a>
    7487:	003346                                    	j	7558 <xtensa_fft_pass_32b+0x1f8>
    748a:	e088b0                                    	subx4	a8, a8, a11
    748d:	6030a0                                    	neg	a3, a10
    7490:	3902a9c004df187e                  	{ ae_l32x2.xp	aed0, a7, a8; addi	a9, a9, -1 }
    7498:	030557c700a0b90e                  	{ loop	a9, 7558 <xtensa_fft_pass_32b+0x1f8>; ae_l32x2.xp	aed0, a7, a3 }
    74a0:	1005144008e2025e                  	{ ae_l32x2.i	aed1, a5, 0; ae_l32x2.i	aed2, a4, 0 }
    74a8:	1a8100102842011e                  	{ ae_sel16i	aed1, aed1, aed1, 0; nop; ae_sel16i.n	aed2, aed2, aed2, 0 }
    74b0:	0e2d217b0d250c08c228e13d0001862f 	{ ae_l32x2.i	aed6, a2, 0; nop; nop; ae_mulcj32w	aed1, aed3, aed1, aed0 }
    74c0:	0e2d217b0d440c10bd2881380c01015f 	{ nop; nop; nop; ae_mulc32w	aed30, aed2, aed2, aed0 }
    74d0:	0ead057b09e40cd0c58081381801238f 	{ ae_neg64s	aed3, aed3; nop; nop; nop }
    74e0:	0ea5181b08f40cc8c583c3101585023f 	{ ae_sub64s	aed2, aed3, aed2; nop; ae_add64s	aed5, aed3, aed2; ae_neg64s	aed0, aed30 }
    74f0:	0ea5041b08e40cd0c58081000d84000f 	{ ae_sub64s	aed0, aed0, aed1; nop; ae_add64s	aed4, aed1, aed0; nop }
    7500:	0ead257b0d440ca8c310a1380c01015f 	{ nop; nop; nop; ae_round32x2f48sasym	aed4, aed4, aed5 }
    7510:	0ead217b0a340ca8c28001390001306f 	{ ae_addandsub32s	aed4, aed5, aed6, aed4; nop; nop; ae_round32x2f48sasym	aed0, aed2, aed0 }
    7520:	230700c10ce5995e                  	{ ae_s32x2.ip	aed5, a5, 8; nop }
    7528:	230700c104e5992e                  	{ ae_s32x2.ip	aed4, a2, 8; nop }
    7530:	220700c718e5126e                  	{ ae_l32x2.i	aed31, a6, 0; nop }
    7538:	0ead257b0a250cd0c4008138000120ff 	{ ae_addandsub32s	aed0, aed1, aed31, aed0; nop; nop; nop }
    7548:	230700c004e5996e                  	{ ae_s32x2.ip	aed0, a6, 8; nop }
    7550:	030517c00ce0994e                  	{ ae_s32x2.ip	aed1, a4, 8; ae_l32x2.xp	aed0, a7, a3 }
    7558:	f01d                                    	retw.n

0000755a <xtensa_fft_pass_32b+0x1fa>:
	...

0000755c <sw_fft_32b_2811>:
    755c:	008136                                    	entry	a1, 64
    755f:	048d                                    	mov.n	a8, a4
    7561:	029d                                    	mov.n	a9, a2
    7563:	ffa342                                    	movi	a4, 0x3ff
    7566:	1c1666                                    	bnei	a6, 1, 7586 <sw_fft_32b_2811+0x2a>
    7569:	ffa142                                    	movi	a4, 0x1ff
    756c:	80c322                                    	addi	a2, a3, -128
    756f:	114490                                    	slli	a4, a4, 7
    7572:	104240                                    	and	a4, a2, a4
    7575:	112270                                    	slli	a2, a2, 9
    7578:	414740                                    	srli	a4, a4, 7
    757b:	000606                                    	j	7597 <sw_fft_32b_2811+0x3b>

0000757e <sw_fft_32b_2811+0x22>:
	...

00007586 <sw_fft_32b_2811+0x2a>:
    7586:	c0c322                                    	addi	a2, a3, -64
    7589:	26ec                                    	bnez.n	a6, 75af <sw_fft_32b_2811+0x53>
    758b:	1144a0                                    	slli	a4, a4, 6
    758e:	104240                                    	and	a4, a2, a4
    7591:	112260                                    	slli	a2, a2, 10
    7594:	414640                                    	srli	a4, a4, 6
    7597:	442a                                    	add.n	a4, a4, a2
    7599:	1f6c                                    	movi.n	a15, -31
    759b:	942d                                    	ae_zext16	a2, a4
    759d:	f440f0                                    	extui	a4, a15, 0, 16
    75a0:	0282b6                                    	bltui	a2, 8, 75a6 <sw_fft_32b_2811+0x4a>
    75a3:	012b06                                    	j	7a53 <sw_fft_32b_2811+0x4f7>
    75a6:	8ba072                                    	movi	a7, 139
    75a9:	02d727                                    	bbs	a7, a2, 75af <sw_fft_32b_2811+0x53>
    75ac:	0128c6                                    	j	7a53 <sw_fft_32b_2811+0x4f7>
    75af:	21a130                                    	srai	a10, a3, 1
    75b2:	04a816                                    	beqz	a8, 7600 <sw_fft_32b_2811+0xa4>
    75b5:	604080                                    	neg	a4, a8
    75b8:	4423a6                                    	blti	a3, 2, 7600 <sw_fft_32b_2811+0xa4>
    75bb:	092d                                    	mov.n	a2, a9
    75bd:	3f8a76                                    	loop	a10, 7600 <sw_fft_32b_2811+0xa4>
    75c0:	0000814954a60f0058031322a800802f 	{ ae_l32x2x2.ip	aed0, aed1, a2, 16; nop; nop }
    75d0:	0ead257b09040cd0c580813a1401240f 	{ ae_slaa32	aed0, aed0, a4; nop; nop; nop }
    75e0:	0ead257b09040cd0c580813a1401641f 	{ ae_slaa32	aed1, aed1, a4; nop; nop; nop }
    75f0:	0000814957c70f0040030322a800a02f 	{ ae_s32x2x2.i	aed0, aed1, a2, -16; nop; nop }

00007600 <sw_fft_32b_2811+0xa4>:
    7600:	1173f0                                    	slli	a7, a3, 1
    7603:	1199                                    	s32i.n	a9, a1, 4
    7605:	1143d0                                    	slli	a4, a3, 3
    7608:	501666                                    	bnei	a6, 1, 765c <sw_fft_32b_2811+0x100>
    760b:	060c                                    	movi.n	a6, 0
    760d:	00a242                                    	movi	a4, 0x200
    7610:	00a422                                    	movi	a2, 0x400
    7613:	6bf3a6                                    	blti	a3, 0x100, 7682 <sw_fft_32b_2811+0x126>
    7616:	11a8                                    	l32i.n	a10, a1, 4
    7618:	02f366                                    	bnei	a3, 0x100, 761e <sw_fft_32b_2811+0xc2>
    761b:	002306                                    	j	76ab <sw_fft_32b_2811+0x14f>
    761e:	029347                                    	bne	a3, a4, 7624 <sw_fft_32b_2811+0xc8>
    7621:	002686                                    	j	76bf <sw_fft_32b_2811+0x163>
    7624:	021327                                    	beq	a3, a2, 762a <sw_fft_32b_2811+0xce>
    7627:	00d946                                    	j	7990 <sw_fft_32b_2811+0x434>
    762a:	e33c31                                    	l32r	a3, 31c (7ad0 <xtensa_fft512_32b>)
    762d:	082d                                    	mov.n	a2, a8
    762f:	0003e0                                    	callx8	a3
    7632:	1138                                    	l32i.n	a3, a1, 4
    7634:	10d3a2                                    	addmi	a10, a3, 0x1000
    7637:	e33a31                                    	l32r	a3, 320 (7aa8 <xtensa_fft256_32b>)
    763a:	0003e0                                    	callx8	a3
    763d:	1148                                    	l32i.n	a4, a1, 4
    763f:	170c                                    	movi.n	a7, 1
    7641:	18d4a2                                    	addmi	a10, a4, 0x1800
    7644:	117750                                    	slli	a7, a7, 11
    7647:	0003e0                                    	callx8	a3
    764a:	e33631                                    	l32r	a3, 324 (7360 <xtensa_fft_pass_32b>)
    764d:	00a1b2                                    	movi	a11, 0x100
    7650:	11a8                                    	l32i.n	a10, a1, 4
    7652:	0003e0                                    	callx8	a3
    7655:	028d                                    	mov.n	a8, a2
    7657:	1198                                    	l32i.n	a9, a1, 4
    7659:	00ccc6                                    	j	7990 <sw_fft_32b_2811+0x434>

0000765c <sw_fft_32b_2811+0x100>:
    765c:	c02940                                    	sub	a2, a9, a4
    765f:	606030                                    	neg	a6, a3
    7662:	21a9                                    	s32i.n	a10, a1, 8
    7664:	00a242                                    	movi	a4, 0x200
    7667:	7189                                    	s32i.n	a8, a1, 28
    7669:	6159                                    	s32i.n	a5, a1, 24
    766b:	5179                                    	s32i.n	a7, a1, 20
    766d:	2ee3a6                                    	blti	a3, 128, 769f <sw_fft_32b_2811+0x143>
    7670:	5fe326                                    	beqi	a3, 128, 76d3 <sw_fft_32b_2811+0x177>
    7673:	62f326                                    	beqi	a3, 0x100, 76d9 <sw_fft_32b_2811+0x17d>
    7676:	021347                                    	beq	a3, a4, 767c <sw_fft_32b_2811+0x120>
    7679:	001fc6                                    	j	76fc <sw_fft_32b_2811+0x1a0>
    767c:	e32841                                    	l32r	a4, 31c (7ad0 <xtensa_fft512_32b>)
    767f:	001c86                                    	j	76f5 <sw_fft_32b_2811+0x199>

00007682 <sw_fft_32b_2811+0x126>:
    7682:	082d                                    	mov.n	a2, a8
    7684:	57b326                                    	beqi	a3, 16, 76df <sw_fft_32b_2811+0x183>
    7687:	11a8                                    	l32i.n	a10, a1, 4
    7689:	02e326                                    	beqi	a3, 128, 768f <sw_fft_32b_2811+0x133>
    768c:	00c006                                    	j	7990 <sw_fft_32b_2811+0x434>
    768f:	e32231                                    	l32r	a3, 318 (7a80 <xtensa_fft128_32b>)
    7692:	00a172                                    	movi	a7, 0x100
    7695:	0003e0                                    	callx8	a3
    7698:	028d                                    	mov.n	a8, a2
    769a:	1198                                    	l32i.n	a9, a1, 4
    769c:	00bc06                                    	j	7990 <sw_fft_32b_2811+0x434>

0000769f <sw_fft_32b_2811+0x143>:
    769f:	4f8326                                    	beqi	a3, 8, 76f2 <sw_fft_32b_2811+0x196>
    76a2:	56d366                                    	bnei	a3, 64, 76fc <sw_fft_32b_2811+0x1a0>
    76a5:	e32141                                    	l32r	a4, 32c (7c60 <xtensa_fft64_32b>)
    76a8:	001246                                    	j	76f5 <sw_fft_32b_2811+0x199>

000076ab <sw_fft_32b_2811+0x14f>:
    76ab:	e31d31                                    	l32r	a3, 320 (7aa8 <xtensa_fft256_32b>)
    76ae:	082d                                    	mov.n	a2, a8
    76b0:	11a8                                    	l32i.n	a10, a1, 4
    76b2:	00a272                                    	movi	a7, 0x200
    76b5:	0003e0                                    	callx8	a3
    76b8:	028d                                    	mov.n	a8, a2
    76ba:	1198                                    	l32i.n	a9, a1, 4
    76bc:	00b406                                    	j	7990 <sw_fft_32b_2811+0x434>

000076bf <sw_fft_32b_2811+0x163>:
    76bf:	e31731                                    	l32r	a3, 31c (7ad0 <xtensa_fft512_32b>)
    76c2:	082d                                    	mov.n	a2, a8
    76c4:	11a8                                    	l32i.n	a10, a1, 4
    76c6:	00a472                                    	movi	a7, 0x400
    76c9:	0003e0                                    	callx8	a3
    76cc:	028d                                    	mov.n	a8, a2
    76ce:	1198                                    	l32i.n	a9, a1, 4
    76d0:	00af06                                    	j	7990 <sw_fft_32b_2811+0x434>

000076d3 <sw_fft_32b_2811+0x177>:
    76d3:	e31141                                    	l32r	a4, 318 (7a80 <xtensa_fft128_32b>)
    76d6:	0006c6                                    	j	76f5 <sw_fft_32b_2811+0x199>

000076d9 <sw_fft_32b_2811+0x17d>:
    76d9:	e31141                                    	l32r	a4, 320 (7aa8 <xtensa_fft256_32b>)
    76dc:	000546                                    	j	76f5 <sw_fft_32b_2811+0x199>

000076df <sw_fft_32b_2811+0x183>:
    76df:	e31231                                    	l32r	a3, 328 (7a58 <xtensa_fft16_32b>)
    76e2:	082d                                    	mov.n	a2, a8
    76e4:	11a8                                    	l32i.n	a10, a1, 4
    76e6:	072c                                    	movi.n	a7, 32
    76e8:	0003e0                                    	callx8	a3
    76eb:	028d                                    	mov.n	a8, a2
    76ed:	1198                                    	l32i.n	a9, a1, 4
    76ef:	00a746                                    	j	7990 <sw_fft_32b_2811+0x434>

000076f2 <sw_fft_32b_2811+0x196>:
    76f2:	e30f41                                    	l32r	a4, 330 (7af8 <xtensa_fft8_32b>)
    76f5:	11a8                                    	l32i.n	a10, a1, 4
    76f7:	0004e0                                    	callx8	a4
    76fa:	1198                                    	l32i.n	a9, a1, 4
    76fc:	2188                                    	l32i.n	a8, a1, 8
    76fe:	b0c690                                    	addx8	a12, a6, a9
    7701:	0d0c                                    	movi.n	a13, 0
    7703:	1958                                    	l32i.n	a5, a9, 4
    7705:	0948                                    	l32i.n	a4, a9, 0
    7707:	1cd9                                    	s32i.n	a13, a12, 4
    7709:	c07380                                    	sub	a7, a3, a8
    770c:	b0a820                                    	addx8	a10, a8, a2
    770f:	b06790                                    	addx8	a6, a7, a9
    7712:	190c                                    	movi.n	a9, 1
    7714:	1678                                    	l32i.n	a7, a6, 4
    7716:	554a                                    	add.n	a5, a5, a4
    7718:	0259                                    	s32i.n	a5, a2, 0
    771a:	00a1f2                                    	movi	a15, 0x100
    771d:	0658                                    	l32i.n	a5, a6, 0
    771f:	114910                                    	slli	a4, a9, 15
    7722:	11b7f0                                    	slli	a11, a7, 1
    7725:	0a59                                    	s32i.n	a5, a10, 0
    7727:	60e0b0                                    	neg	a14, a11
    772a:	4129                                    	s32i.n	a2, a1, 16
    772c:	2151e0                                    	srai	a5, a14, 1
    772f:	31a9                                    	s32i.n	a10, a1, 12
    7731:	1a59                                    	s32i.n	a5, a10, 4
    7733:	250c                                    	movi.n	a5, 2
    7735:	00a282                                    	movi	a8, 0x200
    7738:	022f37                                    	blt	a15, a3, 773e <sw_fft_32b_2811+0x1e2>
    773b:	d25830                                    	quos	a5, a8, a3
    773e:	01a162                                    	movi	a6, 0x101
    7741:	e2f421                                    	l32r	a2, 314 (d480 <ROOTS_1024_Q16>)
    7744:	726360                                    	salt	a6, a3, a6
    7747:	ffa0e2                                    	movi	a14, 255
    774a:	3107244318e0665e                  	{ ssl	a6; ae_movda32	aed0, a4 }
    7752:	a1a500                                    	sll	a10, a5
    7755:	fecab2                                    	addi	a11, a10, -2
    7758:	726ea0                                    	salt	a6, a14, a10
    775b:	a0fb20                                    	addx4	a15, a11, a2
    775e:	0b0722c00cc10dfe                  	{ ae_l32x2.xp	aed1, a15, a13; neg	a4, a10 }
    7766:	07faa6                                    	blti	a10, 0x100, 7771 <sw_fft_32b_2811+0x215>
    7769:	0300204318e1747e                  	{ nop; ae_sel16i	aed1, aed1, aed1, 0 }
    7771:	93a460                                    	movnez	a10, a4, a6
    7774:	2178                                    	l32i.n	a7, a1, 8
    7776:	1148                                    	l32i.n	a4, a1, 4
    7778:	0243e6                                    	bgei	a3, 4, 777e <sw_fft_32b_2811+0x222>
    777b:	002dc6                                    	j	7836 <sw_fft_32b_2811+0x2da>
    777e:	8e7c                                    	movi.n	a14, -8
    7780:	cc4b                                    	addi.n	a12, a12, 4
    7782:	fda0f2                                    	movi	a15, 253
    7785:	050c                                    	movi.n	a5, 0
    7787:	d48b                                    	addi.n	a13, a4, 8
    7789:	b04340                                    	addx8	a4, a3, a4
    778c:	ffc772                                    	addi	a7, a7, -1
    778f:	f8c442                                    	addi	a4, a4, -8
    7792:	80bab0                                    	add	a11, a10, a11
    7795:	39061dc204e23b2e                  	{ addx4	a8, a11, a2; ae_l32x2.ip	aed2, a13, 8 }
    779d:	958776                                    	loop	a7, 7836 <sw_fft_32b_2811+0x2da>
    77a0:	3b06bf401ccd1e4e                  	{ ae_l32x2.xp	aed3, a4, a14; salt	a7, a15, a11 }
    77a8:	1a81031920a2432e                  	{ ae_sel16i	aed4, aed2, aed3, 1; nop; ae_sel16i.n	aed5, aed2, aed3, 3 }
    77b0:	306670                                    	xor	a6, a6, a7
    77b3:	6090a0                                    	neg	a9, a10
    77b6:	0e1d20fb0d440c27c92f16280ca0015f 	{ nop; nop; ae_mulzasfd32s.hh.ll	aed5, aed5, aed0; ae_mulzaafd32s.hh.ll	aed4, aed4, aed0 }
    77c6:	0e1d209b0d4c0c11c92f35280c41015f 	{ nop; nop; ae_mulssd32s.hh.ll	aed5, aed2, aed1; ae_mulsad32s.hl.lh	aed4, aed2, aed1 }
    77d6:	0e1d211b0d4c0c1a892b2e280c61015f 	{ nop; nop; ae_mulasd32s.hh.ll	aed5, aed3, aed1; ae_mulaad32s.hl.lh	aed4, aed3, aed1 }
    77e6:	0e6d217b09fc0c4fc780a13a0c01814f 	{ ae_srai64	aed30, aed4, 1; nop; nop; ae_srai64	aed31, aed5, 1 }
    77f6:	0ead3d7b0d540cd0c50461380c01015f 	{ nop; nop; nop; ae_roundsq32f48sym	aed1, aed30 }
    7806:	0ead3d7b0d3c0cd0c5886139080141cf 	{ ae_s32m.iu	aed1, a12, 4; nop; nop; ae_roundsq32f48sym	aed2, aed31 }
    7816:	050578c010c1b1ce                  	{ ae_s32m.iu	aed2, a12, 4; ae_l32x2.xp	aed1, a8, a5 }
    781e:	071666                                    	bnei	a6, 1, 7829 <sw_fft_32b_2811+0x2cd>
    7821:	0300204318e1747e                  	{ nop; ae_sel16i	aed1, aed1, aed1, 0 }
    7829:	39063dc610e2d97e                  	{ movnez	a10, a9, a7; ae_l32x2.ip	aed2, a13, 8 }
    7831:	baba                                    	add.n	a11, a10, a11
    7833:	a08b20                                    	addx4	a8, a11, a2

00007836 <sw_fft_32b_2811+0x2da>:
    7836:	e47c                                    	movi.n	a4, -2
    7838:	fda052                                    	movi	a5, 253
    783b:	21e8                                    	l32i.n	a14, a1, 8
    783d:	c0b4a0                                    	sub	a11, a4, a10
    7840:	7245b0                                    	salt	a4, a5, a11
    7843:	070c                                    	movi.n	a7, 0
    7845:	a08b20                                    	addx4	a8, a11, a2
    7848:	306640                                    	xor	a6, a6, a4
    784b:	1502ae400cc0178e                  	{ ae_l32x2.xp	aed1, a8, a7; addi	a5, a14, 1 }
    7853:	071666                                    	bnei	a6, 1, 785e <sw_fft_32b_2811+0x302>
    7856:	0300204318e1747e                  	{ nop; ae_sel16i	aed1, aed1, aed1, 0 }

0000785e <sw_fft_32b_2811+0x302>:
    785e:	11f8                                    	l32i.n	a15, a1, 4
    7860:	022537                                    	blt	a5, a3, 7866 <sw_fft_32b_2811+0x30a>
    7863:	003106                                    	j	792b <sw_fft_32b_2811+0x3cf>
    7866:	ffaf72                                    	movi	a7, -1
    7869:	032192                                    	l32i	a9, a1, 12
    786c:	60d0a0                                    	neg	a13, a10
    786f:	30ee70                                    	xor	a14, a14, a7
    7872:	c08350                                    	sub	a8, a3, a5
    7875:	b0c5f0                                    	addx8	a12, a5, a15
    7878:	93da40                                    	movnez	a13, a10, a4
    787b:	80ee30                                    	add	a14, a14, a3
    787e:	f8afa2                                    	movi	a10, -8
    7881:	04c992                                    	addi	a9, a9, 4
    7884:	fda052                                    	movi	a5, 253
    7887:	00a072                                    	movi	a7, 0
    788a:	39061cc504e238fe                  	{ addx8	a4, a8, a15; ae_l32x2.ip	aed2, a12, 8 }
    7892:	80bdb0                                    	add	a11, a13, a11
    7895:	928e76                                    	loop	a14, 792b <sw_fft_32b_2811+0x3cf>
    7898:	3b06b5401ccf1a4e                  	{ ae_l32x2.xp	aed3, a4, a10; salt	a15, a5, a11 }
    78a0:	1a81031920a2432e                  	{ ae_sel16i	aed4, aed2, aed3, 1; nop; ae_sel16i.n	aed5, aed2, aed3, 3 }
    78a8:	a08b20                                    	addx4	a8, a11, a2
    78ab:	3066f0                                    	xor	a6, a6, a15
    78ae:	0e1d00fb09e40c27c8af162900a0e6df 	{ neg	a14, a13; nop; ae_mulzasfd32s.hh.ll	aed5, aed5, aed0; ae_mulzaafd32s.hh.ll	aed4, aed4, aed0 }
    78be:	0e1d211b0d4c0c15892f4e280c41015f 	{ nop; nop; ae_mulasd32s.hh.ll	aed5, aed2, aed1; ae_mulssd32s.hl.lh	aed4, aed2, aed1 }
    78ce:	0e9d209b0d4c0c18891ff5280c61015f 	{ nop; nop; ae_mulssd32s.hh.ll	aed5, aed3, aed1; ae_mulasd32s.hl.lh	aed4, aed3, aed1 }
    78de:	0e6d217b09fc0c4fc780a13a0c01814f 	{ ae_srai64	aed30, aed4, 1; nop; nop; ae_srai64	aed31, aed5, 1 }
    78ee:	0ead3d7b0d540cd0c50461380c01015f 	{ nop; nop; nop; ae_roundsq32f48sym	aed1, aed30 }
    78fe:	0ead3d7b0d3c0cd0c58861390801419f 	{ ae_s32m.iu	aed1, a9, 4; nop; nop; ae_roundsq32f48sym	aed2, aed31 }
    790e:	070578c010c1b19e                  	{ ae_s32m.iu	aed2, a9, 4; ae_l32x2.xp	aed1, a8, a7 }
    7916:	071666                                    	bnei	a6, 1, 7921 <sw_fft_32b_2811+0x3c5>
    7919:	0300204318e1747e                  	{ nop; ae_sel16i	aed1, aed1, aed1, 0 }
    7921:	39063cc708e2defe                  	{ movnez	a13, a14, a15; ae_l32x2.ip	aed2, a12, 8 }
    7929:	bdba                                    	add.n	a11, a13, a11

0000792b <sw_fft_32b_2811+0x3cf>:
    792b:	1198                                    	l32i.n	a9, a1, 4
    792d:	050c                                    	movi.n	a5, 0
    792f:	4178                                    	l32i.n	a7, a1, 16
    7931:	630b                                    	addi.n	a6, a3, -1
    7933:	5188                                    	l32i.n	a8, a1, 20
    7935:	1948                                    	l32i.n	a4, a9, 4
    7937:	1959                                    	s32i.n	a5, a9, 4
    7939:	0928                                    	l32i.n	a2, a9, 0
    793b:	b05870                                    	addx8	a5, a8, a7
    793e:	c02240                                    	sub	a2, a2, a4
    7941:	08c742                                    	addi	a4, a7, 8
    7944:	006922                                    	s32i	a2, a9, 0
    7947:	fcc552                                    	addi	a5, a5, -4
    794a:	3223a6                                    	blti	a3, 2, 7980 <sw_fft_32b_2811+0x424>
    794d:	230720c004a5d94e                  	{ ae_l32x2.ip	aed0, a4, 8; nop }
    7955:	278676                                    	loop	a6, 7980 <sw_fft_32b_2811+0x424>
    7958:	220740c008e5100e                  	{ ae_neg32	aed1, aed0; nop }
    7960:	0100204318e0747e                  	{ nop; ae_sel16i	aed0, aed1, aed0, 0 }
    7968:	230760c004c59f5e                  	{ ae_s32.h.ip	aed0, a5, -4; nop }
    7970:	220760c004c5ff5e                  	{ ae_s32.l.ip	aed0, a5, -4; nop }
    7978:	230720c004a5d94e                  	{ ae_l32x2.ip	aed0, a4, 8; nop }
    7980:	7188                                    	l32i.n	a8, a1, 28
    7982:	0123f0                                    	slli	a2, a3, 17
    7985:	6158                                    	l32i.n	a5, a1, 24
    7987:	312020                                    	srai	a2, a2, 16
    798a:	1173e0                                    	slli	a7, a3, 2
    798d:	606020                                    	neg	a6, a2

00007990 <sw_fft_32b_2811+0x434>:
    7990:	084d                                    	mov.n	a4, a8
    7992:	021526                                    	beqi	a5, 1, 7998 <sw_fft_32b_2811+0x43c>
    7995:	002e86                                    	j	7a53 <sw_fft_32b_2811+0x4f7>
    7998:	874d                                    	ae_sext16	a4, a7
    799a:	a02690                                    	addx4	a2, a6, a9
    799d:	3506c24004a84c0e                  	{ ae_movi	aed0, 0; srai	a3, a4, 2 }
    79a5:	025d                                    	mov.n	a5, a2
    79a7:	3544a6                                    	blti	a4, 4, 79e0 <sw_fft_32b_2811+0x484>
    79aa:	0020f0                                    	nop
    79ad:	2f8376                                    	loop	a3, 79e0 <sw_fft_32b_2811+0x484>
    79b0:	0000814954a60f0058031322b000815f 	{ ae_l32x2x2.ip	aed1, aed2, a5, 16; nop; nop }
    79c0:	0ead047b09e40cd0c58080100a42018f 	{ ae_abs32s	aed1, aed1; nop; ae_abs32s	aed2, aed2; nop }
    79d0:	220760c00085d01e                  	{ ae_or	aed0, aed0, aed1; nop }
    79d8:	220760c00085d02e                  	{ ae_or	aed0, aed0, aed2; nop }

000079e0 <sw_fft_32b_2811+0x484>:
    79e0:	000040400081005e                  	{ movi	a5, 0; ae_sel16i	aed1, aed0, aed0, 0 }
    79e8:	220760c00085d01e                  	{ ae_or	aed0, aed0, aed1; nop }
    79f0:	230700c000e5d66e                  	{ ae_movad32.l	a6, aed0; nop }
    79f8:	40e670                                    	nsa	a7, a6
    79fb:	b35760                                    	movgez	a5, a7, a6
    79fe:	4e44a6                                    	blti	a4, 4, 7a50 <sw_fft_32b_2811+0x4f4>
    7a01:	854d                                    	ae_sext16	a4, a5
    7a03:	230720c318e5747e                  	{ nop; nop }
    7a0b:	f03d                                    	nop.n
    7a0d:	3f8376                                    	loop	a3, 7a50 <sw_fft_32b_2811+0x4f4>
    7a10:	0000814954a60f0058031322a800802f 	{ ae_l32x2x2.ip	aed0, aed1, a2, 16; nop; nop }
    7a20:	0ead257b09040cd0c580813a1401240f 	{ ae_slaa32	aed0, aed0, a4; nop; nop; nop }
    7a30:	0ead257b09040cd0c580813a1401641f 	{ ae_slaa32	aed1, aed1, a4; nop; nop; nop }
    7a40:	0000814957c70f0040030322a800a02f 	{ ae_s32x2x2.i	aed0, aed1, a2, -16; nop; nop }
    7a50:	c04850                                    	sub	a4, a8, a5

00007a53 <sw_fft_32b_2811+0x4f7>:
    7a53:	842d                                    	ae_sext16	a2, a4
    7a55:	f01d                                    	retw.n

00007a57 <sw_fft_32b_2811+0x4fb>:
	...

00007a58 <xtensa_fft16_32b>:
    7a58:	004136                                    	entry	a1, 32
    7a5b:	e23531                                    	l32r	a3, 330 (7af8 <xtensa_fft8_32b>)
    7a5e:	02ad                                    	mov.n	a10, a2
    7a60:	0003e0                                    	callx8	a3
    7a63:	e23431                                    	l32r	a3, 334 (7bf0 <xtensa_fft4_32b>)
    7a66:	40c2a2                                    	addi	a10, a2, 64
    7a69:	0003e0                                    	callx8	a3
    7a6c:	60c2a2                                    	addi	a10, a2, 96
    7a6f:	0003e0                                    	callx8	a3
    7a72:	e22c31                                    	l32r	a3, 324 (7360 <xtensa_fft_pass_32b>)
    7a75:	4b0c                                    	movi.n	a11, 4
    7a77:	02ad                                    	mov.n	a10, a2
    7a79:	0003e0                                    	callx8	a3
    7a7c:	f01d                                    	retw.n

00007a7e <xtensa_fft16_32b+0x26>:
	...

00007a80 <xtensa_fft128_32b>:
    7a80:	004136                                    	entry	a1, 32
    7a83:	e22a31                                    	l32r	a3, 32c (7c60 <xtensa_fft64_32b>)
    7a86:	02ad                                    	mov.n	a10, a2
    7a88:	0003e0                                    	callx8	a3
    7a8b:	e22b31                                    	l32r	a3, 338 (7c88 <xtensa_fft32_32b>)
    7a8e:	02d2a2                                    	addmi	a10, a2, 0x200
    7a91:	0003e0                                    	callx8	a3
    7a94:	03d2a2                                    	addmi	a10, a2, 0x300
    7a97:	0003e0                                    	callx8	a3
    7a9a:	e22231                                    	l32r	a3, 324 (7360 <xtensa_fft_pass_32b>)
    7a9d:	0b2c                                    	movi.n	a11, 32
    7a9f:	02ad                                    	mov.n	a10, a2
    7aa1:	0003e0                                    	callx8	a3
    7aa4:	f01d                                    	retw.n

00007aa6 <xtensa_fft128_32b+0x26>:
	...

00007aa8 <xtensa_fft256_32b>:
    7aa8:	004136                                    	entry	a1, 32
    7aab:	e21b31                                    	l32r	a3, 318 (7a80 <xtensa_fft128_32b>)
    7aae:	02ad                                    	mov.n	a10, a2
    7ab0:	0003e0                                    	callx8	a3
    7ab3:	e21e31                                    	l32r	a3, 32c (7c60 <xtensa_fft64_32b>)
    7ab6:	04d2a2                                    	addmi	a10, a2, 0x400
    7ab9:	0003e0                                    	callx8	a3
    7abc:	06d2a2                                    	addmi	a10, a2, 0x600
    7abf:	0003e0                                    	callx8	a3
    7ac2:	e21831                                    	l32r	a3, 324 (7360 <xtensa_fft_pass_32b>)
    7ac5:	0b4c                                    	movi.n	a11, 64
    7ac7:	02ad                                    	mov.n	a10, a2
    7ac9:	0003e0                                    	callx8	a3
    7acc:	f01d                                    	retw.n

00007ace <xtensa_fft256_32b+0x26>:
	...

00007ad0 <xtensa_fft512_32b>:
    7ad0:	004136                                    	entry	a1, 32
    7ad3:	e21331                                    	l32r	a3, 320 (7aa8 <xtensa_fft256_32b>)
    7ad6:	02ad                                    	mov.n	a10, a2
    7ad8:	0003e0                                    	callx8	a3
    7adb:	e20f31                                    	l32r	a3, 318 (7a80 <xtensa_fft128_32b>)
    7ade:	08d2a2                                    	addmi	a10, a2, 0x800
    7ae1:	0003e0                                    	callx8	a3
    7ae4:	0cd2a2                                    	addmi	a10, a2, 0xc00
    7ae7:	0003e0                                    	callx8	a3
    7aea:	e20e31                                    	l32r	a3, 324 (7360 <xtensa_fft_pass_32b>)
    7aed:	80a0b2                                    	movi	a11, 128
    7af0:	02ad                                    	mov.n	a10, a2
    7af2:	0003e0                                    	callx8	a3
    7af5:	f01d                                    	retw.n

00007af7 <xtensa_fft512_32b+0x27>:
	...

00007af8 <xtensa_fft8_32b>:
    7af8:	004136                                    	entry	a1, 32
    7afb:	000080c75587220058031322b800822f 	{ ae_l32x2x2.i	aed2, aed3, a2, 48; ae_l32x2x2.i	aed6, aed7, a2, 32; nop }
    7b0b:	0e936281007720184c08663d0ce6052f 	{ ae_l32x2x2.i	aed4, aed5, a2, 16; ae_l32x2x2.i	aed0, aed1, a2, 0; ae_addandsub32s	aed6, aed7, aed6, aed7; ae_addandsub32s	aed2, aed3, aed2, aed3 }
    7b1b:	0ead145b09f50cc8c428e0181768043f 	{ l32r	a3, 33c (5a820000 <_end+0x5a812714>); nop; ae_neg32	aed8, aed3; ae_neg32	aed10, aed7 }
    7b2b:	0e5553ab5bf83401c41c7f411907913f 	{ ae_sel16i	aed9, aed7, aed3, 1; ae_movda32	aed11, a3; ae_sel16i.n	aed8, aed7, aed8, 3; ae_sel16i	aed7, aed7, aed3, 3 }
    7b3b:	0e950a9b0bec0cb8c0a1042810a4313f 	{ ae_sel16i	aed3, aed10, aed3, 1; nop; ae_addandsub32s	aed4, aed5, aed4, aed5; ae_add32	aed8, aed9, aed8 }
    7b4b:	0e9d34db0d140cc8c4ecb6e01d0bc37f 	{ ae_add32	aed3, aed7, aed3; nop; ae_mulzaafd32ra.hh.ll	aed28, aed8, aed11; ae_neg32	aed27, aed5 }
    7b5b:	0e5d30db0a240c02042116e8086b200f 	{ ae_addandsub32s	aed0, aed1, aed0, aed1; nop; ae_mulzaafd32ra.hh.ll	aed29, aed3, aed11; ae_sel16i	aed8, aed8, aed8, 0 }
    7b6b:	0e152bbb0a3c0c1846ab9cd810a5426f 	{ ae_addandsub32s	aed2, aed6, aed6, aed2; nop; ae_sel16i.n	aed5, aed5, aed27, 0; ae_mulzasfd32ra.hh.ll	aed3, aed3, aed11 }
    7b7b:	0e9d34fb0a340cc8c4f8d441010b000f 	{ ae_addandsub32s	aed0, aed4, aed0, aed4; nop; ae_mulzasfd32ra.hh.ll	aed8, aed8, aed11; ae_neg32	aed30, aed6 }
    7b8b:	0e953e9b0a240ca8c21fa12810a1400f 	{ ae_addandsub32s	aed0, aed2, aed0, aed2; nop; ae_addandsub32s	aed1, aed5, aed1, aed5; ae_round32x2f48sasym	aed7, aed28, aed29 }
    7b9b:	0e9523bb0a3c0ca8c28d1cf118c6611f 	{ ae_addandsub32s	aed1, aed7, aed1, aed7; nop; ae_sel16i.n	aed6, aed6, aed30, 0; ae_round32x2f48sasym	aed3, aed3, aed8 }
    7bab:	0e95069b0fe50c084c00c51c0fe3002f 	{ ae_s32x2x2.i	aed0, aed1, a2, 0; nop; ae_addandsub32s	aed3, aed31, aed5, aed3; ae_addandsub32s	aed0, aed1, aed4, aed6 }
    7bbb:	0000814955470f0040030323b800822f 	{ ae_s32x2x2.i	aed2, aed7, a2, 32; nop; nop }
    7bcb:	0000814954c70f0040030322b800802f 	{ ae_s32x2x2.i	aed0, aed3, a2, 16; nop; nop }
    7bdb:	0000814955c70f0041830323b800812f 	{ ae_s32x2x2.i	aed1, aed31, a2, 48; nop; nop }
    7beb:	f01d                                    	retw.n

00007bed <xtensa_fft8_32b+0xf5>:
    7bed:	000000                                        ...

00007bf0 <xtensa_fft4_32b>:
    7bf0:	004136                                    	entry	a1, 32
    7bf3:	000080c35487200058031320a800802f 	{ ae_l32x2x2.i	aed0, aed1, a2, 16; ae_l32x2x2.i	aed2, aed3, a2, 0; nop }
    7c03:	0e95269b0a240cd0c40080081820622f 	{ ae_addandsub32s	aed2, aed3, aed2, aed3; nop; ae_addandsub32s	aed0, aed1, aed0, aed1; nop }
    7c13:	0e95069b09e40cd0c58082000840302f 	{ ae_neg32	aed4, aed1; nop; ae_addandsub32s	aed0, aed2, aed2, aed0; nop }
    7c23:	0900204318e1747e                  	{ nop; ae_sel16i	aed1, aed1, aed4, 0 }
    7c2b:	0ead257b0a240cd0c40081380801613f 	{ ae_addandsub32s	aed1, aed3, aed3, aed1; nop; nop; nop }
    7c3b:	0000814954470f0040030322a800802f 	{ ae_s32x2x2.i	aed0, aed1, a2, 0; nop; nop }
    7c4b:	0000814954c70f0040030322b800822f 	{ ae_s32x2x2.i	aed2, aed3, a2, 16; nop; nop }
    7c5b:	f01d                                    	retw.n

00007c5d <xtensa_fft4_32b+0x6d>:
    7c5d:	000000                                        ...

00007c60 <xtensa_fft64_32b>:
    7c60:	004136                                    	entry	a1, 32
    7c63:	e1b531                                    	l32r	a3, 338 (7c88 <xtensa_fft32_32b>)
    7c66:	02ad                                    	mov.n	a10, a2
    7c68:	0003e0                                    	callx8	a3
    7c6b:	e1af31                                    	l32r	a3, 328 (7a58 <xtensa_fft16_32b>)
    7c6e:	01d2a2                                    	addmi	a10, a2, 0x100
    7c71:	0003e0                                    	callx8	a3
    7c74:	80a142                                    	movi	a4, 0x180
    7c77:	a24a                                    	add.n	a10, a2, a4
    7c79:	0003e0                                    	callx8	a3
    7c7c:	e1aa31                                    	l32r	a3, 324 (7360 <xtensa_fft_pass_32b>)
    7c7f:	0b1c                                    	movi.n	a11, 16
    7c81:	02ad                                    	mov.n	a10, a2
    7c83:	0003e0                                    	callx8	a3
    7c86:	f01d                                    	retw.n

00007c88 <xtensa_fft32_32b>:
    7c88:	004136                                    	entry	a1, 32
    7c8b:	e1a731                                    	l32r	a3, 328 (7a58 <xtensa_fft16_32b>)
    7c8e:	02ad                                    	mov.n	a10, a2
    7c90:	0003e0                                    	callx8	a3
    7c93:	80a032                                    	movi	a3, 128
    7c96:	c0a042                                    	movi	a4, 192
    7c99:	a23a                                    	add.n	a10, a2, a3
    7c9b:	e1a531                                    	l32r	a3, 330 (7af8 <xtensa_fft8_32b>)
    7c9e:	0003e0                                    	callx8	a3
    7ca1:	a24a                                    	add.n	a10, a2, a4
    7ca3:	0003e0                                    	callx8	a3
    7ca6:	e19f31                                    	l32r	a3, 324 (7360 <xtensa_fft_pass_32b>)
    7ca9:	8b0c                                    	movi.n	a11, 8
    7cab:	02ad                                    	mov.n	a10, a2
    7cad:	0003e0                                    	callx8	a3
    7cb0:	f01d                                    	retw.n

00007cb2 <xtensa_fft32_32b+0x2a>:
	...

00007cc0 <find_phase>:
    7cc0:	004136                                    	entry	a1, 32
    7cc3:	344030                                    	extui	a4, a3, 0, 4
    7cc6:	1034a6                                    	blti	a4, 3, 7cda <find_phase+0x1a>
    7cc9:	2054e6                                    	bgei	a4, 5, 7ced <find_phase+0x2d>
    7ccc:	333426                                    	beqi	a4, 3, 7d03 <find_phase+0x43>
    7ccf:	564466                                    	bnei	a4, 4, 7d29 <find_phase+0x69>
    7cd2:	000502400060152e                  	{ j	7cfb <find_phase+0x3b>; ae_l32m.i	aed0, a2, 4 }

00007cda <find_phase+0x1a>:
    7cda:	d4ac                                    	beqz.n	a4, 7d0b <find_phase+0x4b>
    7cdc:	671426                                    	beqi	a4, 1, 7d47 <find_phase+0x87>
    7cdf:	462466                                    	bnei	a4, 2, 7d29 <find_phase+0x69>
    7ce2:	220720c000c5722e                  	{ ae_l32m.i	aed0, a2, 8; nop }
    7cea:	001846                                    	j	7d4f <find_phase+0x8f>

00007ced <find_phase+0x2d>:
    7ced:	255426                                    	beqi	a4, 5, 7d16 <find_phase+0x56>
    7cf0:	356466                                    	bnei	a4, 6, 7d29 <find_phase+0x69>
    7cf3:	220720c000c5722e                  	{ ae_l32m.i	aed0, a2, 8; nop }
    7cfb:	0005024000610d3e                  	{ j	7d3c <find_phase+0x7c>; ae_l32m.i	aed1, a2, 0 }

00007d03 <find_phase+0x43>:
    7d03:	000502400060171e                  	{ j	7d1e <find_phase+0x5e>; ae_l32m.i	aed0, a2, 4 }

00007d0b <find_phase+0x4b>:
    7d0b:	220720c000c5702e                  	{ ae_l32m.i	aed0, a2, 0; nop }
    7d13:	000e06                                    	j	7d4f <find_phase+0x8f>

00007d16 <find_phase+0x56>:
    7d16:	220720c000c5722e                  	{ ae_l32m.i	aed0, a2, 8; nop }
    7d1e:	220720c008c5702e                  	{ ae_l32m.i	aed1, a2, 0; nop }
    7d26:	000b46                                    	j	7d57 <find_phase+0x97>

00007d29 <find_phase+0x69>:
    7d29:	220720c000c5722e                  	{ ae_l32m.i	aed0, a2, 8; nop }
    7d31:	220720c008c5712e                  	{ ae_l32m.i	aed1, a2, 4; nop }
    7d39:	1a7426                                    	beqi	a4, 7, 7d57 <find_phase+0x97>
    7d3c:	220740c000e5108e                  	{ ae_neg64	aed0, aed0; nop }
    7d44:	0003c6                                    	j	7d57 <find_phase+0x97>

00007d47 <find_phase+0x87>:
    7d47:	220720c000c5712e                  	{ ae_l32m.i	aed0, a2, 4; nop }
    7d4f:	220740c008e5106e                  	{ ae_mov	aed1, aed0; nop }
    7d57:	0ead257b0d040cd0c58081380401c01f 	{ ae_add64	aed0, aed1, aed0; nop; nop; nop }
    7d67:	0ead257b09040cd0c580813a0c01010f 	{ ae_srai64	aed0, aed0, 1; nop; nop; nop }
    7d77:	076347                                    	bbci	a3, 4, 7d82 <find_phase+0xc2>
    7d7a:	220740c000e5108e                  	{ ae_neg64	aed0, aed0; nop }
    7d82:	0ead217b0d440cd0c50041380c01015f 	{ nop; nop; nop; ae_roundsq32f48asym	aed0, aed0 }
    7d92:	0ead257b0d240cd0c400813b0c01620f 	{ ae_trunca32q48	a2, aed0; nop; nop; nop }
    7da2:	f01d                                    	retw.n

00007da4 <memset_S16>:
    7da4:	004136                                    	entry	a1, 32
    7da7:	0614a6                                    	blti	a4, 1, 7db1 <memset_S16+0xd>
    7daa:	038476                                    	loop	a4, 7db1 <memset_S16+0xd>
    7dad:	623d                                    	ae_s16i.n	a3, a2, 0
    7daf:	222b                                    	addi.n	a2, a2, 2

00007db1 <memset_S16+0xd>:
    7db1:	f01d                                    	retw.n

00007db3 <memset_S16+0xf>:
	...

00007db4 <beam2_setup>:
    7db4:	004136                                    	entry	a1, 32
    7db7:	140c                                    	movi.n	a4, 1
    7db9:	c50c                                    	movi.n	a5, 12
    7dbb:	014440                                    	slli	a4, a4, 28
    7dbe:	1f0c                                    	movi.n	a15, 1
    7dc0:	1c5232                                    	s16i	a3, a2, 56
    7dc3:	113f40                                    	slli	a3, a15, 12
    7dc6:	a249                                    	s32i.n	a4, a2, 40
    7dc8:	40c222                                    	addi	a2, a2, 64
    7dcb:	038576                                    	loop	a5, 7dd2 <beam2_setup+0x1e>
    7dce:	623d                                    	ae_s16i.n	a3, a2, 0
    7dd0:	222b                                    	addi.n	a2, a2, 2

00007dd2 <beam2_setup+0x1e>:
    7dd2:	f01d                                    	retw.n

00007dd4 <cal_vad_thrd_x1>:
    7dd4:	004136                                    	entry	a1, 32
    7dd7:	e0db51                                    	l32r	a5, 144 (b540 <immediate_num>)
    7dda:	110473c00481a02e                  	{ ae_l16x2m.i	aed0, a2, 0; ae_l16x2m.i	aed1, a3, 0 }
    7de2:	1a8103083800410e                  	{ ae_sel16i	aed3, aed0, aed1, 1; nop; ae_sel16i.n	aed0, aed0, aed1, 3 }
    7dea:	230760c01485b75e                  	{ ae_l16x2m.i	aed2, a5, 28; nop }
    7df2:	0e1d20db0d440c17c12f18f80c43015f 	{ nop; nop; ae_mulzaafd32s.hh.ll	aed31, aed2, aed3; ae_mulzaafd32s.hh.ll	aed0, aed2, aed0 }
    7e02:	0ead3d7b0d5c0ce8c307e1380c01015f 	{ nop; nop; nop; ae_roundsp16q48x2asym	aed1, aed31, aed31 }
    7e12:	0ead217b0c450ce8c30001381c01404f 	{ ae_s16m.l.i	aed1, a4, 0; nop; nop; ae_roundsp16q48x2asym	aed0, aed0, aed0 }
    7e22:	220740c004c5114e                  	{ ae_s16m.l.i	aed0, a4, 2; nop }
    7e2a:	f01d                                    	retw.n

00007e2c <CH13_cb_setup>:
    7e2c:	004136                                    	entry	a1, 32
    7e2f:	90a032                                    	movi	a3, 144
    7e32:	14c242                                    	addi	a4, a2, 20
    7e35:	323a                                    	add.n	a3, a2, a3
    7e37:	3249                                    	s32i.n	a4, a2, 12
    7e39:	166232                                    	s32i	a3, a2, 88
    7e3c:	f01d                                    	retw.n

00007e3e <CH13_cb_setup+0x12>:
	...

00007e40 <TWO_MIC_WB_init>:
    7e40:	006136                                    	entry	a1, 48
    7e43:	e076e1                                    	l32r	a14, 1c (d8e8 <p_ecnr_mem>)
    7e46:	a5a7f2                                    	movi	a15, 0x7a5
    7e49:	3139                                    	s32i.n	a3, a1, 12
    7e4b:	113fd0                                    	slli	a3, a15, 3
    7e4e:	0b0c                                    	movi.n	a11, 0
    7e50:	58a2c2                                    	movi	a12, 0x258
    7e53:	0e68                                    	l32i.n	a6, a14, 0
    7e55:	eca072                                    	movi	a7, 236
    7e58:	463a                                    	add.n	a4, a6, a3
    7e5a:	e0b031                                    	l32r	a3, 11c (a5b0 <xt_memset>)
    7e5d:	04ad                                    	mov.n	a10, a4
    7e5f:	dea052                                    	movi	a5, 222
    7e62:	0003e0                                    	callx8	a3
    7e65:	633c                                    	movi.n	a3, 54
    7e67:	3dd772                                    	addmi	a7, a7, 0x3d00
    7e6a:	3dd332                                    	addmi	a3, a3, 0x3d00
    7e6d:	b25a                                    	add.n	a11, a2, a5
    7e6f:	a63a                                    	add.n	a10, a6, a3
    7e71:	e06c31                                    	l32r	a3, 24 (a5c4 <xt_memcpy>)
    7e74:	5c0c                                    	movi.n	a12, 5
    7e76:	567a                                    	add.n	a5, a6, a7
    7e78:	0003e0                                    	callx8	a3
    7e7b:	eaa092                                    	movi	a9, 234
    7e7e:	749282                                    	l16si	a8, a2, 232
    7e81:	3ed672                                    	addmi	a7, a6, 0x3e00
    7e84:	b29a                                    	add.n	a11, a2, a9
    7e86:	4c0c                                    	movi.n	a12, 4
    7e88:	05ad                                    	mov.n	a10, a5
    7e8a:	225782                                    	s16i	a8, a7, 68
    7e8d:	fca052                                    	movi	a5, 252
    7e90:	0003e0                                    	callx8	a3
    7e93:	f2a082                                    	movi	a8, 242
    7e96:	3dd552                                    	addmi	a5, a5, 0x3d00
    7e99:	b28a                                    	add.n	a11, a2, a8
    7e9b:	a65a                                    	add.n	a10, a6, a5
    7e9d:	8c0c                                    	movi.n	a12, 8
    7e9f:	c50c                                    	movi.n	a5, 12
    7ea1:	0003e0                                    	callx8	a3
    7ea4:	70a182                                    	movi	a8, 0x170
    7ea7:	3ed552                                    	addmi	a5, a5, 0x3e00
    7eaa:	b28a                                    	add.n	a11, a2, a8
    7eac:	a65a                                    	add.n	a10, a6, a5
    7eae:	4c0c                                    	movi.n	a12, 4
    7eb0:	c51c                                    	movi.n	a5, 28
    7eb2:	0003e0                                    	callx8	a3
    7eb5:	78a182                                    	movi	a8, 0x178
    7eb8:	3ed552                                    	addmi	a5, a5, 0x3e00
    7ebb:	b28a                                    	add.n	a11, a2, a8
    7ebd:	a65a                                    	add.n	a10, a6, a5
    7ebf:	8c0c                                    	movi.n	a12, 8
    7ec1:	0003e0                                    	callx8	a3
    7ec4:	8192a2                                    	l16si	a10, a2, 0x102
    7ec7:	41d6b2                                    	addmi	a11, a6, 0x4100
    7eca:	8592c2                                    	l16si	a12, a2, 0x10a
    7ecd:	3dd6d2                                    	addmi	a13, a6, 0x3d00
    7ed0:	44a1f2                                    	movi	a15, 0x144
    7ed3:	645ba2                                    	s16i	a10, a11, 200
    7ed6:	1a5dc2                                    	s16i	a12, a13, 52
    7ed9:	829282                                    	l16si	a8, a2, 0x104
    7edc:	8492e2                                    	l16si	a14, a2, 0x108
    7edf:	b2fa                                    	add.n	a11, a2, a15
    7ee1:	6c0c                                    	movi.n	a12, 6
    7ee3:	04ad                                    	mov.n	a10, a4
    7ee5:	3f5d82                                    	s16i	a8, a13, 126
    7ee8:	1657e2                                    	s16i	a14, a7, 44
    7eeb:	0003e0                                    	callx8	a3
    7eee:	d7a7a2                                    	movi	a10, 0x7d7
    7ef1:	3d0c                                    	movi.n	a13, 3
    7ef3:	01aad0                                    	slli	a10, a10, 19
    7ef6:	015d50                                    	slli	a5, a13, 27
    7ef9:	1067a2                                    	s32i	a10, a7, 64
    7efc:	3a0c                                    	movi.n	a10, 3
    7efe:	e111e1                                    	l32r	a14, 344 (d330000 <_end+0xd322714>)
    7f01:	1d0c                                    	movi.n	a13, 1
    7f03:	ada792                                    	movi	a9, 0x7ad
    7f06:	b4a0b2                                    	movi	a11, 180
    7f09:	3667e2                                    	s32i	a14, a7, 216
    7f0c:	3dd632                                    	addmi	a3, a6, 0x3d00
    7f0f:	376752                                    	s32i	a5, a7, 220
    7f12:	115a30                                    	slli	a5, a10, 13
    7f15:	01ad20                                    	slli	a10, a13, 30
    7f18:	77a1d2                                    	movi	a13, 0x177
    7f1b:	cca0e2                                    	movi	a14, 204
    7f1e:	140c                                    	movi.n	a4, 1
    7f20:	3e5352                                    	s16i	a5, a3, 124
    7f23:	1199d0                                    	slli	a9, a9, 3
    7f26:	11cdc0                                    	slli	a12, a13, 4
    7f29:	3dde52                                    	addmi	a5, a14, 0x3d00
    7f2c:	2367a2                                    	s32i	a10, a7, 140
    7f2f:	3ddbb2                                    	addmi	a11, a11, 0x3d00
    7f32:	2c67a2                                    	s32i	a10, a7, 176
    7f35:	0144b0                                    	slli	a4, a4, 21
    7f38:	74a0f2                                    	movi	a15, 116
    7f3b:	7757c2                                    	s16i	a12, a7, 238
    7f3e:	3367a2                                    	s32i	a10, a7, 204
    7f41:	3edfc2                                    	addmi	a12, a15, 0x3e00
    7f44:	1c67a2                                    	s32i	a10, a7, 112
    7f47:	130c                                    	movi.n	a3, 1
    7f49:	3dd6a2                                    	addmi	a10, a6, 0x3d00
    7f4c:	e0fd81                                    	l32r	a8, 340 (e390000 <_end+0xe382714>)
    7f4f:	969a                                    	add.n	a9, a6, a9
    7f51:	e6ba                                    	add.n	a14, a6, a11
    7f53:	f65a                                    	add.n	a15, a6, a5
    7f55:	cd0c                                    	movi.n	a13, 12
    7f57:	206a42                                    	s32i	a4, a10, 128
    7f5a:	117320                                    	slli	a7, a3, 14
    7f5d:	46ca                                    	add.n	a4, a6, a12
    7f5f:	226a82                                    	s32i	a8, a10, 136
    7f62:	236a92                                    	s32i	a9, a10, 140
    7f65:	296ae2                                    	s32i	a14, a10, 164
    7f68:	2f6af2                                    	s32i	a15, a10, 188
    7f6b:	038d76                                    	loop	a13, 7f72 <TWO_MIC_WB_init+0x132>
    7f6e:	647d                                    	ae_s16i.n	a7, a4, 0
    7f70:	442b                                    	addi.n	a4, a4, 2

00007f72 <TWO_MIC_WB_init+0x132>:
    7f72:	3fd682                                    	addmi	a8, a6, 0x3f00
    7f75:	43d6b2                                    	addmi	a11, a6, 0x4300
    7f78:	d72892                                    	l32i	a9, a8, 0x35c
    7f7b:	849242                                    	l16si	a4, a2, 0x108
    7f7e:	8899                                    	s32i.n	a9, a8, 32
    7f80:	0298                                    	l32i.n	a9, a2, 0
    7f82:	272bb2                                    	l32i	a11, a11, 156
    7f85:	879252                                    	l16si	a5, a2, 0x10e
    7f88:	44d6c2                                    	addmi	a12, a6, 0x4400
    7f8b:	445852                                    	s16i	a5, a8, 136
    7f8e:	78b9                                    	s32i.n	a11, a8, 28
    7f90:	f72852                                    	l32i	a5, a8, 0x3dc
    7f93:	7cb8                                    	l32i.n	a11, a12, 28
    7f95:	3cc9f2                                    	addi	a15, a9, 60
    7f98:	2f68b2                                    	s32i	a11, a8, 188
    7f9b:	28c9e2                                    	addi	a14, a9, 40
    7f9e:	2e68f2                                    	s32i	a15, a8, 184
    7fa1:	f9a3a2                                    	movi	a10, 0x3f9
    7fa4:	306852                                    	s32i	a5, a8, 192
    7fa7:	b41b                                    	addi.n	a11, a4, 1
    7fa9:	68e9                                    	s32i.n	a14, a8, 24
    7fab:	118ac0                                    	slli	a8, a10, 4
    7fae:	40d632                                    	addmi	a3, a6, 0x4000
    7fb1:	43d6d2                                    	addmi	a13, a6, 0x4300
    7fb4:	a72352                                    	l32i	a5, a3, 0x29c
    7fb7:	170c                                    	movi.n	a7, 1
    7fb9:	406352                                    	s32i	a5, a3, 0x100
    7fbc:	f723a2                                    	l32i	a10, a3, 0x3dc
    7fbf:	7d58                                    	l32i.n	a5, a13, 28
    7fc1:	40d6e2                                    	addmi	a14, a6, 0x4000
    7fc4:	3e6392                                    	s32i	a9, a3, 248
    7fc7:	50c992                                    	addi	a9, a9, 80
    7fca:	3f63a2                                    	s32i	a10, a3, 252
    7fcd:	572d32                                    	l32i	a3, a13, 0x15c
    7fd0:	b3b440                                    	movgez	a11, a4, a4
    7fd3:	186e52                                    	s32i	a5, a14, 96
    7fd6:	1f0c                                    	movi.n	a15, 1
    7fd8:	017740                                    	slli	a7, a7, 28
    7fdb:	176e32                                    	s32i	a3, a14, 92
    7fde:	3ed6c2                                    	addmi	a12, a6, 0x3e00
    7fe1:	166e92                                    	s32i	a9, a14, 88
    7fe4:	4151b0                                    	srli	a5, a11, 1
    7fe7:	ce0c                                    	movi.n	a14, 12
    7fe9:	185c52                                    	s16i	a5, a12, 48
    7fec:	114f40                                    	slli	a4, a15, 12
    7fef:	808680                                    	add	a8, a6, a8
    7ff2:	5e6c72                                    	s32i	a7, a12, 0x178
    7ff5:	038e76                                    	loop	a14, 7ffc <TWO_MIC_WB_init+0x1bc>
    7ff8:	684d                                    	ae_s16i.n	a4, a8, 0
    7ffa:	882b                                    	addi.n	a8, a8, 2
    7ffc:	03a492                                    	movi	a9, 0x403
    7fff:	40d6f2                                    	addmi	a15, a6, 0x4000
    8002:	899252                                    	l16si	a5, a2, 0x112
    8005:	1199c0                                    	slli	a9, a9, 4
    8008:	ca0c                                    	movi.n	a10, 12
    800a:	145f52                                    	s16i	a5, a15, 40
    800d:	869a                                    	add.n	a8, a6, a9
    800f:	6f79                                    	s32i.n	a7, a15, 24
    8011:	038a76                                    	loop	a10, 8018 <TWO_MIC_WB_init+0x1d8>
    8014:	684d                                    	ae_s16i.n	a4, a8, 0
    8016:	882b                                    	addi.n	a8, a8, 2
    8018:	0da492                                    	movi	a9, 0x40d
    801b:	40d6f2                                    	addmi	a15, a6, 0x4000
    801e:	8a9252                                    	l16si	a5, a2, 0x114
    8021:	1199c0                                    	slli	a9, a9, 4
    8024:	ca0c                                    	movi.n	a10, 12
    8026:	645f52                                    	s16i	a5, a15, 200
    8029:	869a                                    	add.n	a8, a6, a9
    802b:	2e6f72                                    	s32i	a7, a15, 184
    802e:	038a76                                    	loop	a10, 8035 <TWO_MIC_WB_init+0x1f5>
    8031:	684d                                    	ae_s16i.n	a4, a8, 0
    8033:	882b                                    	addi.n	a8, a8, 2
    8035:	17a492                                    	movi	a9, 0x417
    8038:	889252                                    	l16si	a5, a2, 0x110
    803b:	41d682                                    	addmi	a8, a6, 0x4100
    803e:	1199c0                                    	slli	a9, a9, 4
    8041:	176872                                    	s32i	a7, a8, 92
    8044:	ca0c                                    	movi.n	a10, 12
    8046:	769a                                    	add.n	a7, a6, a9
    8048:	02bd                                    	mov.n	a11, a2
    804a:	2d5852                                    	s16i	a5, a8, 90
    804d:	038a76                                    	loop	a10, 8054 <TWO_MIC_WB_init+0x214>
    8050:	674d                                    	ae_s16i.n	a4, a7, 0
    8052:	772b                                    	addi.n	a7, a7, 2
    8054:	eca022                                    	movi	a2, 236
    8057:	fca0f2                                    	movi	a15, 252
    805a:	3dd222                                    	addmi	a2, a2, 0x3d00
    805d:	cd2c                                    	movi.n	a13, 44
    805f:	1302ff40048fc26e                  	{ ae_l16x2m.x	aed0, a6, a2; addmi	a2, a15, 0x3d00 }
    8067:	e037f1                                    	l32r	a15, 144 (b540 <immediate_num>)
    806a:	f4a0e2                                    	movi	a14, 244
    806d:	3d02fd400c8fd26e                  	{ ae_l16x2m.x	aed1, a6, a2; addmi	a13, a13, 0x3f00 }
    8075:	1a8103083000410e                  	{ ae_sel16i	aed2, aed0, aed1, 1; nop; ae_sel16i.n	aed0, aed0, aed1, 3 }
    807d:	dfa342                                    	movi	a4, 0x3df
    8080:	3ddee2                                    	addmi	a14, a14, 0x3d00
    8083:	3f02f645148fb7fe                  	{ ae_l16x2m.i	aed22, a15, 28; addmi	a15, a6, 0x3f00 }
    808b:	0e1d60c5a5374cb7c52f18070ac0d6df 	{ add	a13, a6, a13; slli	a4, a4, 4; ae_mulzaafd32s.hh.ll	aed0, aed22, aed0; ae_mulzaafd32s.hh.ll	aed2, aed22, aed2 }
    809b:	9fd9                                    	s32i.n	a13, a15, 36
    809d:	3ed6f2                                    	addmi	a15, a6, 0x3e00
    80a0:	0eace1706530cce8c288413a0801edaf 	{ movi	a10, 0x7f5; movi	a12, 204; nop; ae_roundsp16q48x2asym	aed2, aed2, aed2 }
    80b0:	0ead6165d526ade8c2000139000192ef 	{ ae_s16m.l.xu	aed2, a14, a6; slli	a10, a10, 3; nop; ae_roundsp16q48x2asym	aed0, aed0, aed0 }
    80c0:	34044f4004de11ee                  	{ ae_s16m.l.i	aed0, a14, 2; movi	a5, 0x7bf }
    80c8:	350476c51c80a0fe                  	{ ae_l16x2m.i	aed23, a15, 0; ae_l16x2m.x	aed0, a6, a4 }
    80d0:	1a8103b83800670e                  	{ ae_sel16i	aed3, aed0, aed23, 1; nop; ae_sel16i.n	aed0, aed0, aed23, 3 }
    80d8:	3fdcc2                                    	addmi	a12, a12, 0x3f00
    80db:	1155d0                                    	slli	a5, a5, 3
    80de:	0e1d60c6547a6ab7f02f18011ec0f6ff 	{ addmi	a15, a6, 0x3f00; add	a10, a6, a10; ae_mulzaafd32s.hh.ll	aed0, aed22, aed0; ae_mulzaafd32s.hh.ll	aed24, aed22, aed3 }
    80ee:	1c6fa2                                    	s32i	a10, a15, 112
    80f1:	3fd6a2                                    	addmi	a10, a6, 0x3f00
    80f4:	0eacf9700521cfe8c30b013f0801c6cf 	{ add	a12, a6, a12; movi	a15, 12; nop; ae_roundsp16q48x2asym	aed2, aed24, aed24 }
    8104:	0eace1700d2043e8c20001390001925f 	{ ae_s16m.l.xu	aed2, a5, a6; movi	a3, 20; nop; ae_roundsp16q48x2asym	aed0, aed0, aed0 }
    8114:	316ac2                                    	s32i	a12, a10, 196
    8117:	ca1c                                    	movi.n	a10, 28
    8119:	2402df4004cf115e                  	{ ae_s16m.l.i	aed0, a5, 2; addmi	a5, a15, 0x3e00 }
    8121:	2502fa40048fd56e                  	{ ae_l16x2m.x	aed0, a6, a5; addmi	a5, a10, 0x3e00 }
    8129:	2302f3460c8fc56e                  	{ ae_l16x2m.x	aed25, a6, a5; addmi	a2, a3, 0x3e00 }
    8131:	1a8103ce3000690e                  	{ ae_sel16i	aed26, aed0, aed25, 1; nop; ae_sel16i.n	aed0, aed0, aed25, 3 }
    8139:	f1a1e2                                    	movi	a14, 0x1f1
    813c:	e1a332                                    	movi	a3, 0x3e1
    813f:	0e1d78c5ed36ebb7f62f18000ac0d07f 	{ movi	a7, 108; slli	a13, a14, 5; ae_mulzaafd32s.hh.ll	aed0, aed22, aed0; ae_mulzaafd32s.hh.ll	aed27, aed22, aed26 }
    814f:	894c                                    	movi.n	a9, 72
    8151:	1133c0                                    	slli	a3, a3, 4
    8154:	0eacf96a053a77e8c28b613a00018fef 	{ movi	a14, 0x7c3; addmi	a7, a7, 0x4000; nop; ae_roundsp16q48x2asym	aed2, aed27, aed27 }
    8164:	0eace16a052299e8c20001390001922f 	{ ae_s16m.l.xu	aed2, a2, a6; addmi	a9, a9, 0x4000; nop; ae_roundsp16q48x2asym	aed0, aed0, aed0 }
    8174:	0c06ce4004c5112e                  	{ ae_s16m.l.i	aed0, a2, 2; slli	a4, a14, 3 }
    817c:	330476c70480dd6e                  	{ ae_l16x2m.x	aed28, a6, a13; ae_l16x2m.x	aed0, a6, a3 }
    8184:	0e54f3aa053b6e0005039de70ba0f67f 	{ add	a15, a6, a7; addmi	a14, a6, 0x4000; ae_sel16i.n	aed29, aed0, aed28, 1; ae_sel16i	aed0, aed0, aed28, 3 }
    8194:	0e1cdcd071e88ab7fd2f18050ec06eff 	{ s32i	a15, a14, 100; movi	a10, 232; ae_mulzaafd32s.hh.ll	aed0, aed22, aed0; ae_mulzaafd32s.hh.ll	aed30, aed22, aed29 }
    81a4:	efa372                                    	movi	a7, 0x3ef
    81a7:	40da52                                    	addmi	a5, a10, 0x4000
    81aa:	0ead7d664c7269e8c27fc13b040106cf 	{ addmi	a12, a6, 0x4000; add	a9, a6, a9; nop; ae_roundsp16q48x2asym	aed31, aed30, aed30 }
    81ba:	0eace173a52088e8c2800138000121ef 	{ movi	a14, 0x411; movi	a8, 0x748; nop; ae_roundsp16q48x2asym	aed0, aed0, aed0 }
    81ca:	1127c0                                    	slli	a2, a7, 4
    81cd:	4c99                                    	s32i.n	a9, a12, 16
    81cf:	565a                                    	add.n	a5, a6, a5
    81d1:	117ec0                                    	slli	a7, a14, 4
    81d4:	2c6c52                                    	s32i	a5, a12, 176
    81d7:	b08880                                    	addx8	a8, a8, a8
    81da:	767a                                    	add.n	a7, a6, a7
    81dc:	34a1f2                                    	movi	a15, 0x134
    81df:	41d6d2                                    	addmi	a13, a6, 0x4100
    81e2:	df9051                                    	l32r	a5, 24 (a5c4 <xt_memcpy>)
    81e5:	1d79                                    	s32i.n	a7, a13, 4
    81e7:	868a                                    	add.n	a8, a6, a8
    81e9:	3a06db471cc9564e                  	{ ae_s16m.l.xu	aed31, a4, a6; or	a7, a11, a11 }
    81f1:	bbfa                                    	add.n	a11, a11, a15
    81f3:	a62a                                    	add.n	a10, a6, a2
    81f5:	146d82                                    	s32i	a8, a13, 80
    81f8:	0c04484004c0014e                  	{ ae_s16m.l.i	aed0, a4, 2; movi	a12, 8 }
    8200:	0005e0                                    	callx8	a5
    8203:	df8621                                    	l32r	a2, 1c (d8e8 <p_ecnr_mem>)
    8206:	3dd6e2                                    	addmi	a14, a6, 0x3d00
    8209:	e4a082                                    	movi	a8, 228
    820c:	31f8                                    	l32i.n	a15, a1, 12
    820e:	3dd8c2                                    	addmi	a12, a8, 0x3d00
    8211:	3fd6a2                                    	addmi	a10, a6, 0x3f00
    8214:	0248                                    	l32i.n	a4, a2, 0
    8216:	03d792                                    	addmi	a9, a7, 0x300
    8219:	03d7b2                                    	addmi	a11, a7, 0x300
    821c:	26ca                                    	add.n	a2, a6, a12
    821e:	e0a1d2                                    	movi	a13, 0x1e0
    8221:	22d432                                    	addmi	a3, a4, 0x2200
    8224:	75d442                                    	addmi	a4, a4, 0x7500
    8227:	162332                                    	l32i	a3, a3, 88
    822a:	286e32                                    	s32i	a3, a14, 160
    822d:	30a2e2                                    	movi	a14, 0x230
    8230:	047f16                                    	beqz	a15, 827b <TWO_MIC_WB_init+0x43b>
    8233:	479932                                    	l16si	a3, a9, 142
    8236:	1b2442                                    	l32i	a4, a4, 108
    8239:	085a32                                    	s16i	a3, a10, 16
    823c:	41d6a2                                    	addmi	a10, a6, 0x4100
    823f:	469b32                                    	l16si	a3, a11, 140
    8242:	3dd6b2                                    	addmi	a11, a6, 0x3d00
    8245:	6a5a32                                    	s16i	a3, a10, 212
    8248:	84a3f2                                    	movi	a15, 0x384
    824b:	059d                                    	mov.n	a9, a5
    824d:	356b22                                    	s32i	a2, a11, 212
    8250:	54da                                    	add.n	a5, a4, a13
    8252:	41d6d2                                    	addmi	a13, a6, 0x4100
    8255:	34ea                                    	add.n	a3, a4, a14
    8257:	3fd6a2                                    	addmi	a10, a6, 0x3f00
    825a:	b7fa                                    	add.n	a11, a7, a15
    825c:	4c0c                                    	movi.n	a12, 4
    825e:	336d52                                    	s32i	a5, a13, 204
    8261:	094d                                    	mov.n	a4, a9
    8263:	346d32                                    	s32i	a3, a13, 208
    8266:	e1a722                                    	movi	a2, 0x7e1
    8269:	0009e0                                    	callx8	a9
    826c:	12a432                                    	movi	a3, 0x412
    826f:	1122d0                                    	slli	a2, a2, 3
    8272:	b73a                                    	add.n	a11, a7, a3
    8274:	a62a                                    	add.n	a10, a6, a2
    8276:	4c0c                                    	movi.n	a12, 4
    8278:	0004e0                                    	callx8	a4

0000827b <TWO_MIC_WB_init+0x43b>:
    827b:	f01d                                    	retw.n

0000827d <TWO_MIC_WB_init+0x43d>:
    827d:	000000                                        ...

00008280 <take_max_four>:
    8280:	004136                                    	entry	a1, 32
    8283:	f67c                                    	movi.n	a6, -1
    8285:	224d                                    	ae_l16si.n	a4, a2, 0
    8287:	116610                                    	slli	a6, a6, 15
    828a:	4f23a6                                    	blti	a3, 2, 82dd <take_max_four+0x5d>
    828d:	f57c                                    	movi.n	a5, -1
    828f:	630b                                    	addi.n	a6, a3, -1
    8291:	115510                                    	slli	a5, a5, 15
    8294:	222b                                    	addi.n	a2, a2, 2
    8296:	048d                                    	mov.n	a8, a4
    8298:	053d                                    	mov.n	a3, a5
    829a:	207550                                    	or	a7, a5, a5
    829d:	318676                                    	loop	a6, 82d2 <take_max_four+0x52>
    82a0:	22ad                                    	ae_l16si.n	a10, a2, 0
    82a2:	086d                                    	mov.n	a6, a8
    82a4:	079d                                    	mov.n	a9, a7
    82a6:	0a4d                                    	mov.n	a4, a10
    82a8:	1c28a7                                    	blt	a8, a10, 82c8 <take_max_four+0x48>
    82ab:	084d                                    	mov.n	a4, a8
    82ad:	0a6d                                    	mov.n	a6, a10
    82af:	079d                                    	mov.n	a9, a7
    82b1:	1327a7                                    	blt	a7, a10, 82c8 <take_max_four+0x48>
    82b4:	084d                                    	mov.n	a4, a8
    82b6:	076d                                    	mov.n	a6, a7
    82b8:	0a9d                                    	mov.n	a9, a10
    82ba:	0a23a7                                    	blt	a3, a10, 82c8 <take_max_four+0x48>
    82bd:	5355a0                                    	max	a5, a5, a10
    82c0:	039d                                    	mov.n	a9, a3
    82c2:	076d                                    	mov.n	a6, a7
    82c4:	084d                                    	mov.n	a4, a8
    82c6:	053d                                    	mov.n	a3, a5

000082c8 <take_max_four+0x48>:
    82c8:	035d                                    	mov.n	a5, a3
    82ca:	222b                                    	addi.n	a2, a2, 2
    82cc:	093d                                    	mov.n	a3, a9
    82ce:	067d                                    	mov.n	a7, a6
    82d0:	048d                                    	mov.n	a8, a4

000082d2 <take_max_four+0x52>:
    82d2:	249a                                    	add.n	a2, a4, a9
    82d4:	365a                                    	add.n	a3, a6, a5
    82d6:	223a                                    	add.n	a2, a2, a3
    82d8:	112220                                    	slli	a2, a2, 14
    82db:	f01d                                    	retw.n

000082dd <take_max_four+0x5d>:
    82dd:	069d                                    	mov.n	a9, a6
    82df:	065d                                    	mov.n	a5, a6
    82e1:	fffb46                                    	j	82d2 <take_max_four+0x52>

000082e4 <prelim_filter>:
    82e4:	012136                                    	entry	a1, 144
    82e7:	40c2c2                                    	addi	a12, a2, 64
    82ea:	46c2d2                                    	addi	a13, a2, 70
    82ed:	f3f6c0                                    	wur.ae_cbegin0	a12
    82f0:	f3f7d0                                    	wur.ae_cend0	a13
    82f3:	22c2f2                                    	addi	a15, a2, 34
    82f6:	c139                                    	s32i.n	a3, a1, 48
    82f8:	7d2252                                    	l32i	a5, a2, 0x1f4
    82fb:	192262                                    	l32i	a6, a2, 100
    82fe:	7e22e2                                    	l32i	a14, a2, 0x1f8
    8301:	a129                                    	s32i.n	a2, a1, 40
    8303:	7c2272                                    	l32i	a7, a2, 0x1f0
    8306:	24c232                                    	addi	a3, a2, 36
    8309:	df8421                                    	l32r	a2, 11c (a5b0 <xt_memset>)
    830c:	60c1a2                                    	addi	a10, a1, 96
    830f:	0a046040048070fe                  	{ ae_l16m.i	aed0, a15, 0; movi	a11, 0 }
    8317:	d149                                    	s32i.n	a4, a1, 52
    8319:	6c0c                                    	movi.n	a12, 6
    831b:	8159                                    	s32i.n	a5, a1, 32
    831d:	91e9                                    	s32i.n	a14, a1, 36
    831f:	b1f9                                    	s32i.n	a15, a1, 44
    8321:	a50c                                    	movi.n	a5, 10
    8323:	0404024000e08b1e                  	{ ae_s64.i	aed0, a1, 16; movi	a4, 2 }
    832b:	0002e0                                    	callx8	a2
    832e:	81a8                                    	l32i.n	a10, a1, 32
    8330:	5cc122                                    	addi	a2, a1, 92
    8333:	0921f2                                    	l32i	a15, a1, 36
    8336:	40c192                                    	addi	a9, a1, 64
    8339:	0c0760400401038e                  	{ l32r	a8, 348 (ccccc00 <_end+0xccbf314>); ae_movi	aed1, 0 }
    8341:	fec7b2                                    	addi	a11, a7, -2
    8344:	310728431080012e                  	{ s32i	a2, a1, 56; ae_movda32	aed0, a8 }
    834c:	1204404110e0006e                  	{ ae_mov	aed6, aed0; movi	a2, 16 }
    8354:	2205e1471465eaae                  	{ addi	a10, a10, -2; ae_l64.i	aed5, a1, 16 }
    835c:	03a0c2                                    	movi	a12, 3
    835f:	fecf72                                    	addi	a7, a15, -2
    8362:	2c0289c110ff9f1e                  	{ ae_s64.i	aed6, a1, 24; addi	a13, a9, -2 }

0000836a <prelim_filter+0x86>:
    836a:	01056340048261ae                  	{ ae_l16m.iu	aed0, a10, 2; ae_l32m.i	aed2, a3, 0 }
    8372:	1d07404004c0346e                  	{ ae_s16m.l.xc	aed0, a6, a4; ae_mov	aed0, aed1 }
    837a:	0961a2                                    	s32i	a10, a1, 36
    837d:	178c76                                    	loop	a12, 8398 <prelim_filter+0xb4>
    8380:	230760c01c85946e                  	{ ae_l16m.xc	aed3, a6, a4; nop }
    8388:	0e9d233b0d3c0c1083930b001063813f 	{ ae_l32m.iu	aed2, a3, 4; nop; ae_mulaf32s.ll	aed0, aed3, aed3; ae_mulaf48q32sp16s.l	aed1, aed2, aed3 }

00008398 <prelim_filter+0xb4>:
    8398:	0e6cf57001101827c594213a0c01020f 	{ ae_srai64	aed0, aed0, 2; movi	a8, 1; nop; ae_cvtq56p32s.l	aed31, aed5 }
    83a8:	0eace17001001ad0c58041381c01a81f 	{ ae_slaaq56	aed2, aed1, a8; movi	a10, 1; nop; ae_roundsq32f48asym	aed0, aed0 }
    83b8:	0ea56405d526a2d0c400820b0d616f0f 	{ ae_trunca32q48	a15, aed0; slli	a10, a10, 14; ae_add64	aed1, aed2, aed1; nop }
    83c8:	0ea5243b0c450cd0c5009f09048145bf 	{ ae_s16m.l.iu	aed5, a11, 2; nop; ae_sub64	aed1, aed31, aed1; nop }
    83d8:	0ead017b08ed0ce8c204213f1c015d8f 	{ l32r	a8, 14c (7270 <airoha_divide>); nop; nop; ae_roundsp16q48x2asym	aed1, aed1, aed1 }
    83e8:	000003ed038300fcb6a38302246011bf 	{ s32i	a11, a1, 32; ae_cvta32f24s.l	a9, aed1; nop }
    83f8:	3b06cfc00cca01de                  	{ ae_s16m.l.iu	aed1, a13, 2; max	a11, a15, a10 }
    8400:	f1d9                                    	s32i.n	a13, a1, 60
    8402:	21a690                                    	srai	a10, a9, 6
    8405:	0008e0                                    	callx8	a8
    8408:	20070b431480018e                  	{ l32i	a8, a1, 56; ae_cvt48a32	aed0, a11 }
    8410:	0c04034010a00a0e                  	{ ae_slaasq56s	aed0, aed0, a10; movi	a12, 3 }
    8418:	0eace16785233398c200013d1801871f 	{ ae_l64.i	aed6, a1, 24; addi	a3, a3, -16; nop; ae_round24x2f48sasym	aed0, aed0, aed0 }
    8428:	0020f0                                    	nop
    842b:	f03d                                    	nop.n
    842d:	478c76                                    	loop	a12, 8478 <prelim_filter+0x194>
    8430:	3504364008c2613e                  	{ ae_l32m.iu	aed1, a3, 4; ae_l16m.xc	aed2, a6, a4 }
    8438:	1e828b0b3402e18e                  	{ ae_l32m.iu	aed30, a8, 4; nop; ae_mulaf32s.ll	aed1, aed0, aed2 }
    8440:	0ead217b0d4c0cd0c50441380c01015f 	{ nop; nop; nop; ae_roundsq32f48asym	aed1, aed1 }
    8450:	220700c00845d21e                  	{ ae_trunca32x2f64s	aed3, aed1, aed1, a2; nop }
    8458:	1e82c8f720c3103e                  	{ ae_s32m.i	aed1, a3, 0; nop; ae_mulaf32r.ll	aed30, aed6, aed3 }
    8460:	0ead3d7b0d540cd0c57c41380c01015f 	{ nop; nop; nop; ae_roundsq32f48asym	aed31, aed30 }
    8470:	220760c718c5b08e                  	{ ae_s32m.i	aed31, a8, 0; nop }
    8478:	91a8                                    	l32i.n	a10, a1, 36
    847a:	0d07404104a14c0e                  	{ ae_movi	aed4, 0; ae_movi	aed1, 0 }
    8482:	f1d8                                    	l32i.n	a13, a1, 60
    8484:	550b                                    	addi.n	a5, a5, -1
    8486:	81b8                                    	l32i.n	a11, a1, 32
    8488:	0302e3c10c9e717e                  	{ ae_l16m.iu	aed5, a7, 2; addi	a3, a3, -8 }
    8490:	ed6556                                    	bnez	a5, 836a <prelim_filter+0x86>
    8493:	a178                                    	l32i.n	a7, a1, 40
    8495:	40c132                                    	addi	a3, a1, 64
    8498:	b1f8                                    	l32i.n	a15, a1, 44
    849a:	0aa052                                    	movi	a5, 10
    849d:	1d0762461000eb4e                  	{ l32r	a4, 34c (393e4b <_end+0x38655f>); ae_mov	aed0, aed4 }
    84a5:	040614c70481672e                  	{ l32i	a2, a7, 0x1f0; ae_movda32x2	aed1, a4, a4 }
    84ad:	010433460882076e                  	{ s32i	a6, a7, 100; ae_l16m.i	aed2, a3, 0 }
    84b5:	2402c2c10cdf00fe                  	{ ae_s16m.l.i	aed5, a15, 0; addi	a4, a2, -2 }
    84bd:	378576                                    	loop	a5, 84f8 <prelim_filter+0x214>
    84c0:	22822a142822314e                  	{ ae_l16m.iu	aed3, a4, 2; nop; ae_mulf32s.ll	aed2, aed1, aed2 }
    84c8:	22834a1b3423b13e                  	{ nop; nop; ae_mulf32s.ll	aed3, aed1, aed3 }
    84d0:	0ead057b08e40cd0c48081381401e22f 	{ ae_round24x2f48sasym	aed2, aed2, aed2; nop; nop; nop }
    84e0:	0e9cc73110e231d0c4808b001c42e33f 	{ ae_round24x2f48sasym	aed3, aed3, aed3; ae_l16m.iu	aed2, a3, 2; ae_mulaf32s.ll	aed0, aed2, aed2; nop }
    84f0:	1e834b233463b13e                  	{ nop; nop; ae_mulaf32s.ll	aed4, aed3, aed3 }
    84f8:	0eacc17000e114d0c408413f04011f3f 	{ l32r	a3, 144 (b540 <immediate_num>); movi	a4, 1; nop; ae_roundsq32f48asym	aed2, aed0 }
    8508:	0ead6565a46640d0c400413a040177ff 	{ addi	a15, a7, 92; slli	a4, a4, 16; nop; ae_roundsq32f48asym	aed0, aed4 }
    8518:	2007244710c360fe                  	{ ae_l32m.i	aed30, a15, 0; ae_cvt48a32	aed3, a4 }
    8520:	0f056f400c87b73e                  	{ ae_l16x2m.i	aed1, a3, 28; ae_l32m.i	aed7, a15, -4 }
    8528:	0e1cc28203ea1305822b4e280841611f 	{ ae_sel16i	aed6, aed1, aed1, 1; addi	a3, a1, 64; ae_mulf48q32sp16s.l	aed5, aed2, aed1; ae_mulf48q32sp16s.l	aed1, aed0, aed1 }
    8538:	0e9cc41040f0043883930e2803c6e22f 	{ ae_sub64	aed2, aed2, aed0; movi	a4, 128; ae_mulaf48q32sp16s.l	aed5, aed30, aed6; ae_mulaf48q32sp16s.l	aed1, aed7, aed6 }
    8548:	0eacc57000c055d0c50081381001043f 	{ ae_lt64	b0, aed3, aed2; movi	a5, 5; nop; nop }
    8558:	0eace576146b30d0c47c413a0401f22f 	{ addi	a2, a2, -4; ae_l16x2m.i	aed2, a3, 0; nop; ae_roundsq32f48asym	aed31, aed5 }
    8568:	0ead217b0d2d0cd0c584413b0001ccff 	{ ae_s32m.i	aed31, a15, 0; nop; nop; ae_roundsq32f48asym	aed1, aed1 }
    8578:	040674c008c1affe                  	{ ae_s32m.i	aed1, a15, -4; ae_movda32x2	aed1, a4, a4 }
    8580:	540076                                    	bf	b0, 85d8 <prelim_filter+0x2f4>
    8583:	230720c318e5747e                  	{ nop; nop }
    858b:	f03d                                    	nop.n
    858d:	478576                                    	loop	a5, 85d8 <prelim_filter+0x2f4>
    8590:	0e6d217b0d2d0ce8878041380001c12f 	{ ae_l16x2m.iu	aed3, a2, 4; nop; nop; ae_srai24	aed2, aed2, 1 }
    85a0:	0ead257b0b040cd0c40081380801db3f 	{ ae_srai24	aed3, aed3, 1; nop; nop; nop }
    85b0:	0eace577150231d0c48081381401833f 	{ ae_add24s	aed3, aed3, aed2; ae_l16x2m.iu	aed2, a3, 4; nop; nop }
    85c0:	0ead257b0d040cd0c48081380c01833f 	{ ae_add24s	aed3, aed3, aed1; nop; nop; nop }
    85d0:	230740c01cc55f3e                  	{ ae_s16x2m.i	aed3, a3, -4; nop }

000085d8 <prelim_filter+0x2f4>:
    85d8:	df5e21                                    	l32r	a2, 350 (15555500 <_end+0x15547c14>)
    85db:	041c                                    	movi.n	a4, 16
    85dd:	4cc732                                    	addi	a3, a7, 76
    85e0:	0b9752                                    	l16si	a5, a7, 22
    85e3:	300702400041040e                  	{ ae_trunca32x2f64s	aed0, aed0, aed0, a4; ae_movda32	aed1, a2 }
    85eb:	3a03a74010c5603e                  	{ ae_l32m.i	aed2, a3, 0; l32i	a10, a7, 92 }
    85f3:	1e81e812242067ee                  	{ l32i	a14, a7, 88; nop; ae_mulaf32r.ll	aed2, aed1, aed0 }
    85fb:	ded321                                    	l32r	a2, 148 (7324 <airoha_divide_limit_1>)
    85fe:	0ead6165fd3652d0c40041380001126f 	{ movi	a6, 10; slli	a15, a5, 14; nop; ae_roundsq32f48asym	aed0, aed2 }
    860e:	3e06eec000cab03e                  	{ ae_s32m.i	aed0, a3, 0; max	a11, a14, a15 }
    8616:	0002e0                                    	callx8	a2
    8619:	1a061ac70c80674e                  	{ l32i	a4, a7, 0x1f4; ae_truncp24a32x2	aed0, a10, a10 }
    8621:	0eacc16100e37fd0c400013f1c014c5f 	{ l32r	a5, 354 (175e97 <_end+0x1685ab>); addi	a15, a7, 32; nop; ae_roundsp16f24asym	aed0, aed0 }
    8631:	040655c004c110fe                  	{ ae_s16m.l.i	aed0, a15, 0; ae_movda32x2	aed1, a5, a5 }
    8639:	000563401480704e                  	{ ae_l16m.i	aed2, a4, 0; ae_l32m.i	aed0, a3, 4 }
    8641:	1f8676                                    	loop	a6, 8664 <prelim_filter+0x380>
    8644:	22834a133422b13e                  	{ nop; nop; ae_mulf32s.ll	aed2, aed1, aed2 }
    864c:	0ead057b08e40cd0c48081381401e22f 	{ ae_round24x2f48sasym	aed2, aed2, aed2; nop; nop; nop }
    865c:	1e822b042842214e                  	{ ae_l16m.iu	aed2, a4, 2; nop; ae_mulaf32s.ll	aed0, aed2, aed2 }

00008664 <prelim_filter+0x380>:
    8664:	0eacc16301e21ad0c50041381401212f 	{ l32i	a2, a1, 40; addi	a10, a1, 96; nop; ae_roundsq32f48asym	aed0, aed0 }
    8674:	34046f4000c3a13e                  	{ ae_s32m.i	aed0, a3, 4; movi	a4, 255 }
    867c:	df3731                                    	l32r	a3, 358 (7cc0 <find_phase>)
    867f:	00a472                                    	movi	a7, 0x400
    8682:	2b92b2                                    	l16si	a11, a2, 86
    8685:	7fd442                                    	addmi	a4, a4, 0x7f00
    8688:	0003e0                                    	callx8	a3
    868b:	162262                                    	l32i	a6, a2, 88
    868e:	0a5d                                    	mov.n	a5, a10
    8690:	109282                                    	l16si	a8, a2, 32
    8693:	030c                                    	movi.n	a3, 0
    8695:	089292                                    	l16si	a9, a2, 16
    8698:	0992b2                                    	l16si	a11, a2, 18
    869b:	772677                                    	blt	a6, a7, 8716 <prelim_filter+0x432>
    869e:	c0a890                                    	sub	a10, a8, a9
    86a1:	130c                                    	movi.n	a3, 1
    86a3:	026d                                    	mov.n	a6, a2
    86a5:	6d1aa6                                    	blti	a10, 1, 8716 <prelim_filter+0x432>
    86a8:	40c142                                    	addi	a4, a1, 64
    86ab:	32aab7                                    	bge	a10, a11, 86e1 <prelim_filter+0x3fd>
    86ae:	dea621                                    	l32r	a2, 148 (7324 <airoha_divide_limit_1>)
    86b1:	0002e0                                    	callx8	a2
    86b4:	a20c                                    	movi.n	a2, 10
    86b6:	1a067ac00c80604e                  	{ ae_l16m.i	aed1, a4, 0; ae_truncp24a32x2	aed0, a10, a10 }
    86be:	1f8276                                    	loop	a2, 86e1 <prelim_filter+0x3fd>
    86c1:	22822a142820114e                  	{ ae_l16m.iu	aed1, a4, 2; nop; ae_mulf32s.ll	aed2, aed1, aed0 }
    86c9:	0ead217b0d540ce8c30841380c01015f 	{ nop; nop; nop; ae_roundsp16q48x2asym	aed2, aed2, aed2 }
    86d9:	220740c014c51f4e                  	{ ae_s16m.l.i	aed2, a4, -2; nop }

000086e1 <prelim_filter+0x3fd>:
    86e1:	7c2642                                    	l32i	a4, a6, 0x1f0
    86e4:	40c122                                    	addi	a2, a1, 64
    86e7:	5f0c                                    	movi.n	a15, 5
    86e9:	100472c70460e44e                  	{ addi	a4, a4, -4; ae_l16x2m.i	aed0, a2, 0 }
    86f1:	1f8f76                                    	loop	a15, 8714 <prelim_filter+0x430>
    86f4:	220760c00c85d14e                  	{ ae_l16x2m.iu	aed1, a4, 4; nop }
    86fc:	0eacc57700e221d0c58081380001211f 	{ ae_sub24s	aed1, aed1, aed0; ae_l16x2m.iu	aed0, a2, 4; nop; nop }
    870c:	230740c00cc5504e                  	{ ae_s16x2m.i	aed1, a4, 0; nop }

00008714 <prelim_filter+0x430>:
    8714:	040c                                    	movi.n	a4, 0

00008716 <prelim_filter+0x432>:
    8716:	c128                                    	l32i.n	a2, a1, 48
    8718:	d1f8                                    	l32i.n	a15, a1, 52
    871a:	0259                                    	s32i.n	a5, a2, 0
    871c:	1239                                    	s32i.n	a3, a2, 4
    871e:	6f4d                                    	ae_s16i.n	a4, a15, 0
    8720:	f01d                                    	retw.n

00008722 <prelim_filter+0x43e>:
	...

00008724 <prelim_filter3>:
    8724:	00a136                                    	entry	a1, 80
    8727:	037d                                    	mov.n	a7, a3
    8729:	8159                                    	s32i.n	a5, a1, 32
    872b:	130c                                    	movi.n	a3, 1
    872d:	235426                                    	beqi	a4, 5, 8754 <prelim_filter3+0x30>
    8730:	118320                                    	slli	a8, a3, 14
    8733:	3f3466                                    	bnei	a4, 3, 8776 <prelim_filter3+0x52>
    8736:	140c                                    	movi.n	a4, 1
    8738:	2b9252                                    	l16si	a5, a2, 86
    873b:	114440                                    	slli	a4, a4, 12
    873e:	2f0c                                    	movi.n	a15, 2
    8740:	98a232                                    	movi	a3, 0x298
    8743:	94a262                                    	movi	a6, 0x294
    8746:	3149                                    	s32i.n	a4, a1, 12
    8748:	423a                                    	add.n	a4, a2, a3
    874a:	326a                                    	add.n	a3, a2, a6
    874c:	a90c                                    	movi.n	a9, 10
    874e:	212550                                    	srai	a2, a5, 5
    8751:	000dc6                                    	j	878c <prelim_filter3+0x68>

00008754 <prelim_filter3+0x30>:
    8754:	160c                                    	movi.n	a6, 1
    8756:	04d232                                    	addmi	a3, a2, 0x400
    8759:	116640                                    	slli	a6, a6, 12
    875c:	a4a442                                    	movi	a4, 0x4a4
    875f:	561332                                    	l16ui	a3, a3, 172
    8762:	2f0c                                    	movi.n	a15, 2
    8764:	a8a452                                    	movi	a5, 0x4a8
    8767:	4139                                    	s32i.n	a3, a1, 16
    8769:	3169                                    	s32i.n	a6, a1, 12
    876b:	a90c                                    	movi.n	a9, 10
    876d:	424a                                    	add.n	a4, a2, a4
    876f:	325a                                    	add.n	a3, a2, a5
    8771:	51f9                                    	s32i.n	a15, a1, 20
    8773:	000646                                    	j	8790 <prelim_filter3+0x6c>

00008776 <prelim_filter3+0x52>:
    8776:	2b9252                                    	l16si	a5, a2, 86
    8779:	5f0c                                    	movi.n	a15, 5
    877b:	38a332                                    	movi	a3, 0x338
    877e:	34a362                                    	movi	a6, 0x334
    8781:	423a                                    	add.n	a4, a2, a3
    8783:	3189                                    	s32i.n	a8, a1, 12
    8785:	326a                                    	add.n	a3, a2, a6
    8787:	491c                                    	movi.n	a9, 20
    8789:	212a50                                    	srai	a2, a5, 10
    878c:	51f9                                    	s32i.n	a15, a1, 20
    878e:	4129                                    	s32i.n	a2, a1, 16
    8790:	0428                                    	l32i.n	a2, a4, 0
    8792:	0388                                    	l32i.n	a8, a3, 0
    8794:	0758                                    	l32i.n	a5, a7, 0
    8796:	16c762                                    	addi	a6, a7, 22
    8799:	10c7f2                                    	addi	a15, a7, 16
    879c:	7179                                    	s32i.n	a7, a1, 28
    879e:	774b                                    	addi.n	a7, a7, 4
    87a0:	240c                                    	movi.n	a4, 2
    87a2:	6169                                    	s32i.n	a6, a1, 24
    87a4:	3a0c                                    	movi.n	a10, 3
    87a6:	f3f6f0                                    	wur.ae_cbegin0	a15
    87a9:	f3f760                                    	wur.ae_cend0	a6
    87ac:	3806f9400488706e                  	{ ae_l16m.i	aed0, a6, 0; or	a3, a9, a9 }
    87b4:	9179                                    	s32i.n	a7, a1, 36
    87b6:	0c0760471461e26e                  	{ addi	a6, a2, -2; ae_movi	aed1, 0 }
    87be:	fec882                                    	addi	a8, a8, -2
    87c1:	a199                                    	s32i.n	a9, a1, 40
    87c3:	010567401483618e                  	{ ae_l16m.iu	aed2, a8, 2; ae_l32m.i	aed3, a7, 0 }
    87cb:	1d07404014c2345e                  	{ ae_s16m.l.xc	aed2, a5, a4; ae_mov	aed2, aed1 }
    87d3:	b189                                    	s32i.n	a8, a1, 44
    87d5:	178a76                                    	loop	a10, 87f0 <prelim_filter3+0xcc>
    87d8:	230760c10485945e                  	{ ae_l16m.xc	aed4, a5, a4; nop }
    87e0:	0e9d241b0d240c20839eae101064c17f 	{ ae_l32m.iu	aed3, a7, 4; nop; ae_mulaf48q32sp16s.l	aed2, aed3, aed4; ae_mulaf32s.ll	aed1, aed4, aed4 }

000087f0 <prelim_filter3+0xcc>:
    87f0:	5198                                    	l32i.n	a9, a1, 20
    87f2:	0804414000e0002e                  	{ ae_cvtq56p32s.l	aed0, aed0; movi	a8, 1 }
    87fa:	0e6d217b091c0c50478021381c01e82f 	{ ae_slaaq56	aed3, aed2, a8; nop; nop; ae_srai64	aed1, aed1, 2 }
    880a:	0ea5001b08ed0cd0c47c43161d624f8f 	{ l32r	a8, 148 (7324 <airoha_divide_limit_1>); nop; ae_add64	aed2, aed3, aed2; ae_roundsq32f48asym	aed31, aed1 }
    881a:	0ea5243b0d239cd0c40080130c806bff 	{ ae_trunca32q48	a11, aed31; ssr	a9; ae_sub64	aed0, aed0, aed2; nop }
    882a:	0ead217b0d440ce8c30001380c01015f 	{ nop; nop; nop; ae_roundsp16q48x2asym	aed0, aed0, aed0 }
    883a:	0ead257b0e240cd0c400813910017f0f 	{ ae_cvta32f24s.l	a15, aed0; nop; nop; nop }
    884a:	b1a0f0                                    	sra	a10, a15
    884d:	0008e0                                    	callx8	a8
    8850:	1a065ac0008003ae                  	{ movi	a10, 3; ae_truncp24a32x2	aed0, a10, a10 }
    8858:	0802a7c008dd6d7e                  	{ ae_l32m.i	aed1, a7, -12; addi	a8, a7, -12 }
    8860:	278a76                                    	loop	a10, 888b <prelim_filter3+0x167>
    8863:	230760c01485945e                  	{ ae_l16m.xc	aed2, a5, a4; nop }
    886b:	1e834b0b3402b13e                  	{ nop; nop; ae_mulaf32s.ll	aed1, aed0, aed2 }
    8873:	0ead217b0d4c0cd0c50441380c01015f 	{ nop; nop; nop; ae_roundsq32f48asym	aed1, aed1 }
    8883:	1005684008c1b08e                  	{ ae_s32m.i	aed1, a8, 0; ae_l32m.iu	aed1, a8, 4 }
    888b:	f4c872                                    	addi	a7, a8, -12
    888e:	a198                                    	l32i.n	a9, a1, 40
    8890:	0c0700421c81018e                  	{ l32i	a8, a1, 44; ae_movi	aed1, 0 }
    8898:	330b                                    	addi.n	a3, a3, -1
    889a:	1004163d07e033ee                  	{ bnez.w15	a3, 87c3 <prelim_filter3+0x9f>; ae_l16m.iu	aed0, a6, 2 }
    88a2:	7138                                    	l32i.n	a3, a1, 28
    88a4:	41f190                                    	srli	a15, a9, 1
    88a7:	0621e2                                    	l32i	a14, a1, 24
    88aa:	006352                                    	s32i	a5, a3, 0
    88ad:	0c07404004c100ee                  	{ ae_s16m.l.i	aed0, a14, 0; ae_movi	aed1, 0 }
    88b5:	230760c00485b02e                  	{ ae_l16x2m.i	aed0, a2, 0; nop }
    88bd:	078f76                                    	loop	a15, 88c8 <prelim_filter3+0x1a4>
    88c0:	1c823a0d3800012e                  	{ ae_l16x2m.iu	aed0, a2, 4; nop; ae_mulaafd32s.hh.ll	aed1, aed0, aed0 }
    88c8:	0eacc16849ec1ad0c50041381c01013f 	{ l32i	a3, a1, 12; l32i	a10, a1, 36; nop; ae_roundsq32f48asym	aed0, aed1 }
    88d8:	0eace56825241bd0c400813b0c01620f 	{ ae_trunca32q48	a2, aed0; l32i	a11, a1, 16; nop; nop }
    88e8:	722320                                    	salt	a2, a3, a2
    88eb:	de9b31                                    	l32r	a3, 358 (7cc0 <find_phase>)
    88ee:	0003e0                                    	callx8	a3
    88f1:	8138                                    	l32i.n	a3, a1, 32
    88f3:	1329                                    	s32i.n	a2, a3, 4
    88f5:	03a9                                    	s32i.n	a10, a3, 0
    88f7:	f01d                                    	retw.n

000088f9 <prelim_filter3+0x1d5>:
    88f9:	000000                                        ...

000088fc <cm_short_vad>:
    88fc:	004136                                    	entry	a1, 32
    88ff:	235d                                    	ae_l16si.n	a5, a3, 0
    8901:	024d                                    	mov.n	a4, a2
    8903:	336d                                    	ae_l16si.n	a6, a3, 2
    8905:	420c                                    	movi.n	a2, 4
    8907:	cf7c                                    	movi.n	a15, -4
    8909:	152547                                    	blt	a5, a4, 8922 <cm_short_vad+0x26>
    890c:	220c                                    	movi.n	a2, 2
    890e:	102647                                    	blt	a6, a4, 8922 <cm_short_vad+0x26>
    8911:	029352                                    	l16si	a5, a3, 4
    8914:	020c                                    	movi.n	a2, 0
    8916:	039362                                    	l16si	a6, a3, 6
    8919:	052547                                    	blt	a5, a4, 8922 <cm_short_vad+0x26>
    891c:	722640                                    	salt	a2, a6, a4
    891f:	9022f0                                    	addx2	a2, a2, a15

00008922 <cm_short_vad+0x26>:
    8922:	f01d                                    	retw.n

00008924 <cali_module_short>:
    8924:	004136                                    	entry	a1, 32
    8927:	ddbd51                                    	l32r	a5, 1c (d8e8 <p_ecnr_mem>)
    892a:	060c                                    	movi.n	a6, 0
    892c:	0558                                    	l32i.n	a5, a5, 0
    892e:	c4a082                                    	movi	a8, 196
    8931:	22d552                                    	addmi	a5, a5, 0x2200
    8934:	e4a072                                    	movi	a7, 228
    8937:	279552                                    	l16si	a5, a5, 78
    893a:	927a                                    	add.n	a9, a2, a7
    893c:	a28a                                    	add.n	a10, a2, a8
    893e:	5825a6                                    	blti	a5, 2, 899a <cali_module_short+0x76>
    8941:	1358                                    	l32i.n	a5, a3, 4
    8943:	060c                                    	movi.n	a6, 0
    8945:	0388                                    	l32i.n	a8, a3, 0
    8947:	839a40                                    	moveqz	a9, a10, a4
    894a:	0f0c                                    	movi.n	a15, 0
    894c:	5515a6                                    	blti	a5, 1, 89a5 <cali_module_short+0x81>
    894f:	396d                                    	ae_l16si.n	a6, a9, 2
    8951:	849272                                    	l16si	a7, a2, 0x108
    8954:	0299a2                                    	l16si	a10, a9, 4
    8957:	318080                                    	srai	a8, a8, 16
    895a:	0399b2                                    	l16si	a11, a9, 6
    895d:	8292d2                                    	l16si	a13, a2, 0x104
    8960:	29cd                                    	ae_l16si.n	a12, a9, 0
    8962:	42a687                                    	bge	a6, a8, 89a8 <cali_module_short+0x84>
    8965:	2f0c                                    	movi.n	a15, 2
    8967:	8a92e2                                    	l16si	a14, a2, 0x114
    896a:	8992b2                                    	l16si	a11, a2, 0x112
    896d:	726c80                                    	salt	a6, a12, a8
    8970:	1622c2                                    	l32i	a12, a2, 88
    8973:	a63b                                    	addi.n	a10, a6, 3
    8975:	9066f0                                    	addx2	a6, a6, a15
    8978:	7a7a                                    	add.n	a7, a10, a7
    897a:	9b1b                                    	addi.n	a9, a11, 1
    897c:	4377d0                                    	min	a7, a7, a13
    897f:	04d2a2                                    	addmi	a10, a2, 0x400
    8982:	00a2d2                                    	movi	a13, 0x200
    8985:	522ee6                                    	bgei	a14, 2, 89db <cali_module_short+0xb7>
    8988:	898d                                    	ae_sext16	a8, a9
    898a:	895292                                    	s16i	a9, a2, 0x112
    898d:	090c                                    	movi.n	a9, 0
    898f:	2cc8a6                                    	blti	a8, 32, 89bf <cali_module_short+0x9b>
    8992:	4098d7                                    	bne	a8, a13, 89d6 <cali_module_short+0xb2>
    8995:	280c                                    	movi.n	a8, 2
    8997:	000f46                                    	j	89d8 <cali_module_short+0xb4>

0000899a <cali_module_short+0x76>:
    899a:	835262                                    	s16i	a6, a2, 0x106
    899d:	855262                                    	s16i	a6, a2, 0x10a
    89a0:	436262                                    	s32i	a6, a2, 0x10c
    89a3:	f01d                                    	retw.n

000089a5 <cali_module_short+0x81>:
    89a5:	000d46                                    	j	89de <cali_module_short+0xba>

000089a8 <cali_module_short+0x84>:
    89a8:	060c                                    	movi.n	a6, 0
    89aa:	2d2a87                                    	blt	a10, a8, 89db <cali_module_short+0xb7>
    89ad:	f9c762                                    	addi	a6, a7, -7
    89b0:	1aab87                                    	bge	a11, a8, 89ce <cali_module_short+0xaa>
    89b3:	670b                                    	addi.n	a6, a7, -1
    89b5:	0f0c                                    	movi.n	a15, 0
    89b7:	5376f0                                    	max	a7, a6, a15
    89ba:	e67c                                    	movi.n	a6, -2
    89bc:	0006c6                                    	j	89db <cali_module_short+0xb7>

000089bf <cali_module_short+0x9b>:
    89bf:	509a82                                    	l16si	a8, a10, 160
    89c2:	118860                                    	slli	a8, a8, 10
    89c5:	12ac87                                    	bge	a12, a8, 89db <cali_module_short+0xb7>
    89c8:	895292                                    	s16i	a9, a2, 0x112
    89cb:	000306                                    	j	89db <cali_module_short+0xb7>

000089ce <cali_module_short+0xaa>:
    89ce:	5376f0                                    	max	a7, a6, a15
    89d1:	c67c                                    	movi.n	a6, -4
    89d3:	000106                                    	j	89db <cali_module_short+0xb7>

000089d6 <cali_module_short+0xb2>:
    89d6:	180c                                    	movi.n	a8, 1
    89d8:	8a5282                                    	s16i	a8, a2, 0x114
    89db:	845272                                    	s16i	a7, a2, 0x108
    89de:	3378                                    	l32i.n	a7, a3, 12
    89e0:	835262                                    	s16i	a6, a2, 0x106
    89e3:	d4a092                                    	movi	a9, 212
    89e6:	f4a0a2                                    	movi	a10, 244
    89e9:	b29a                                    	add.n	a11, a2, a9
    89eb:	080c                                    	movi.n	a8, 0
    89ed:	0217e6                                    	bgei	a7, 1, 89f3 <cali_module_short+0xcf>
    89f0:	002286                                    	j	8a7e <cali_module_short+0x15a>
    89f3:	82aa                                    	add.n	a8, a2, a10
    89f5:	2378                                    	l32i.n	a7, a3, 8
    89f7:	838b40                                    	moveqz	a8, a11, a4
    89fa:	460c                                    	movi.n	a6, 4
    89fc:	28ad                                    	ae_l16si.n	a10, a8, 0
    89fe:	cf7c                                    	movi.n	a15, -4
    8a00:	38bd                                    	ae_l16si.n	a11, a8, 2
    8a02:	319070                                    	srai	a9, a7, 16
    8a05:	152a97                                    	blt	a10, a9, 8a1e <cali_module_short+0xfa>
    8a08:	260c                                    	movi.n	a6, 2
    8a0a:	102b97                                    	blt	a11, a9, 8a1e <cali_module_short+0xfa>
    8a0d:	0298a2                                    	l16si	a10, a8, 4
    8a10:	060c                                    	movi.n	a6, 0
    8a12:	0398b2                                    	l16si	a11, a8, 6
    8a15:	052a97                                    	blt	a10, a9, 8a1e <cali_module_short+0xfa>
    8a18:	726b90                                    	salt	a6, a11, a9
    8a1b:	9066f0                                    	addx2	a6, a6, a15
    8a1e:	cca082                                    	movi	a8, 204
    8a21:	855262                                    	s16i	a6, a2, 0x10a
    8a24:	eca0d2                                    	movi	a13, 236
    8a27:	5615a6                                    	blti	a5, 1, 8a81 <cali_module_short+0x15d>
    8a2a:	ddc651                                    	l32r	a5, 144 (b540 <immediate_num>)
    8a2d:	e28a                                    	add.n	a14, a2, a8
    8a2f:	0368                                    	l32i.n	a6, a3, 0
    8a31:	160656c00080146e                  	{ movi	a6, 4; ae_truncp24a32x2	aed0, a6, a7 }
    8a39:	1d06e2400c91b75e                  	{ ae_l16x2m.i	aed1, a5, 28; add	a5, a2, a13 }
    8a41:	2a83190734205e4e                  	{ moveqz	a5, a14, a4; nop; ae_mulzaafd32s.hh.ll	aed0, aed1, aed0 }
    8a49:	25fd                                    	ae_l16si.n	a15, a5, 0
    8a4b:	0ead217b0c640ce8c30001380c01058f 	{ l16si	a8, a5, 2; nop; nop; ae_roundsp16q48x2asym	aed0, aed0, aed0 }
    8a5b:	2903054000e0db7e                  	{ ae_trunca16p24s.l	a7, aed0; l16si	a9, a5, 4 }
    8a63:	039552                                    	l16si	a5, a5, 6
    8a66:	172f77                                    	blt	a15, a7, 8a81 <cali_module_short+0x15d>
    8a69:	260c                                    	movi.n	a6, 2
    8a6b:	122877                                    	blt	a8, a7, 8a81 <cali_module_short+0x15d>
    8a6e:	060c                                    	movi.n	a6, 0
    8a70:	0d2977                                    	blt	a9, a7, 8a81 <cali_module_short+0x15d>
    8a73:	c67c                                    	movi.n	a6, -4
    8a75:	725570                                    	salt	a5, a5, a7
    8a78:	906560                                    	addx2	a6, a5, a6
    8a7b:	000086                                    	j	8a81 <cali_module_short+0x15d>

00008a7e <cali_module_short+0x15a>:
    8a7e:	855282                                    	s16i	a8, a2, 0x10a
    8a81:	5358                                    	l32i.n	a5, a3, 20
    8a83:	070c                                    	movi.n	a7, 0
    8a85:	875262                                    	s16i	a6, a2, 0x10e
    8a88:	dca082                                    	movi	a8, 220
    8a8b:	fca092                                    	movi	a9, 252
    8a8e:	628a                                    	add.n	a6, a2, a8
    8a90:	2a15a6                                    	blti	a5, 1, 8abe <cali_module_short+0x19a>
    8a93:	529a                                    	add.n	a5, a2, a9
    8a95:	43f8                                    	l32i.n	a15, a3, 16
    8a97:	835640                                    	moveqz	a5, a6, a4
    8a9a:	470c                                    	movi.n	a7, 4
    8a9c:	258d                                    	ae_l16si.n	a8, a5, 0
    8a9e:	359d                                    	ae_l16si.n	a9, a5, 2
    8aa0:	3160f0                                    	srai	a6, a15, 16
    8aa3:	cf7c                                    	movi.n	a15, -4
    8aa5:	152867                                    	blt	a8, a6, 8abe <cali_module_short+0x19a>
    8aa8:	270c                                    	movi.n	a7, 2
    8aaa:	102967                                    	blt	a9, a6, 8abe <cali_module_short+0x19a>
    8aad:	029582                                    	l16si	a8, a5, 4
    8ab0:	070c                                    	movi.n	a7, 0
    8ab2:	039552                                    	l16si	a5, a5, 6
    8ab5:	052867                                    	blt	a8, a6, 8abe <cali_module_short+0x19a>
    8ab8:	725560                                    	salt	a5, a5, a6
    8abb:	9075f0                                    	addx2	a7, a5, a15
    8abe:	7358                                    	l32i.n	a5, a3, 28
    8ac0:	865272                                    	s16i	a7, a2, 0x10c
    8ac3:	d8a182                                    	movi	a8, 0x1d8
    8ac6:	e0a192                                    	movi	a9, 0x1e0
    8ac9:	728a                                    	add.n	a7, a2, a8
    8acb:	060c                                    	movi.n	a6, 0
    8acd:	2f15a6                                    	blti	a5, 1, 8b00 <cali_module_short+0x1dc>
    8ad0:	529a                                    	add.n	a5, a2, a9
    8ad2:	6338                                    	l32i.n	a3, a3, 24
    8ad4:	835740                                    	moveqz	a5, a7, a4
    8ad7:	440c                                    	movi.n	a4, 4
    8ad9:	25fd                                    	ae_l16si.n	a15, a5, 0
    8adb:	356d                                    	ae_l16si.n	a6, a5, 2
    8add:	313030                                    	srai	a3, a3, 16
    8ae0:	029572                                    	l16si	a7, a5, 4
    8ae3:	142f37                                    	blt	a15, a3, 8afb <cali_module_short+0x1d7>
    8ae6:	240c                                    	movi.n	a4, 2
    8ae8:	0f2637                                    	blt	a6, a3, 8afb <cali_module_short+0x1d7>
    8aeb:	040c                                    	movi.n	a4, 0
    8aed:	0a2737                                    	blt	a7, a3, 8afb <cali_module_short+0x1d7>
    8af0:	039542                                    	l16si	a4, a5, 6
    8af3:	cf7c                                    	movi.n	a15, -4
    8af5:	723430                                    	salt	a3, a4, a3
    8af8:	9043f0                                    	addx2	a4, a3, a15
    8afb:	f55242                                    	s16i	a4, a2, 0x1ea
    8afe:	f01d                                    	retw.n

00008b00 <cali_module_short+0x1dc>:
    8b00:	f55262                                    	s16i	a6, a2, 0x1ea
    8b03:	f01d                                    	retw.n

00008b05 <cali_module_short+0x1e1>:
    8b05:	000000                                        ...

00008b08 <LH_34_1_setup>:
    8b08:	004136                                    	entry	a1, 32
    8b0b:	0348                                    	l32i.n	a4, a3, 0
    8b0d:	0268                                    	l32i.n	a6, a2, 0
    8b0f:	13e8                                    	l32i.n	a14, a3, 4
    8b11:	82f8                                    	l32i.n	a15, a2, 32
    8b13:	315040                                    	srai	a5, a4, 16
    8b16:	f8d552                                    	addmi	a5, a5, 0xfffff800
    8b19:	fece32                                    	addi	a3, a14, -2
    8b1c:	a55d                                    	ae_clamps16	a5, a5
    8b1e:	115500                                    	slli	a5, a5, 16
    8b21:	835430                                    	moveqz	a5, a4, a3
    8b24:	534650                                    	max	a4, a6, a5
    8b27:	433f50                                    	min	a3, a15, a5
    8b2a:	0249                                    	s32i.n	a4, a2, 0
    8b2c:	8239                                    	s32i.n	a3, a2, 32
    8b2e:	f01d                                    	retw.n

00008b30 <cali_power>:
    8b30:	006136                                    	entry	a1, 48
    8b33:	dd3a51                                    	l32r	a5, 1c (d8e8 <p_ecnr_mem>)
    8b36:	00a0a2                                    	movi	a10, 0
    8b39:	002552                                    	l32i	a5, a5, 0
    8b3c:	22d552                                    	addmi	a5, a5, 0x2200
    8b3f:	279552                                    	l16si	a5, a5, 78
    8b42:	05a062                                    	movi	a6, 5
    8b45:	0225e6                                    	bgei	a5, 2, 8b4b <cali_power+0x1b>
    8b48:	011806                                    	j	8fac <cali_power+0x47c>
    8b4b:	012442                                    	l32i	a4, a4, 4
    8b4e:	0214e6                                    	bgei	a4, 1, 8b54 <cali_power+0x24>
    8b51:	0115c6                                    	j	8fac <cali_power+0x47c>
    8b54:	2c1342                                    	l16ui	a4, a3, 88
    8b57:	7d22f2                                    	l32i	a15, a2, 0x1f4
    8b5a:	821352                                    	l16ui	a5, a3, 0x104
    8b5d:	0f03034004bfe45e                  	{ ae_cvtp24a16x2.ll	aed0, a4, a5; l16si	a14, a3, 248 }
    8b65:	2281e80a3c00e24e                  	{ l32i	a4, a2, 0x1f8; nop; ae_mulf32s.hh	aed1, aed0, aed0 }
    8b6d:	2281b30420201e5e                  	{ addi	a5, a14, 1; nop; ae_mulf48q32sp16s.l	aed0, aed1, aed0 }
    8b75:	0c0760410861605e                  	{ extui	a5, a5, 0, 7; ae_movi	aed1, 0 }
    8b7d:	0eacc167e1e2f2e8c300013e0401f35f 	{ s16i	a5, a3, 248; addi	a2, a15, -4; nop; ae_roundsp16q48x2asym	aed0, aed0, aed0 }
    8b8d:	0000813354e5400009831311a800801f 	{ ae_s64.i	aed0, a1, 8; ae_l16x2m.i	aed2, a4, 0; ae_mov	aed0, aed1 }
    8b9d:	0f8676                                    	loop	a6, 8bb0 <cali_power+0x80>
    8ba0:	1c823a0d3842312e                  	{ ae_l16x2m.iu	aed3, a2, 4; nop; ae_mulaafd32s.hh.ll	aed1, aed2, aed2 }
    8ba8:	1c823a053863214e                  	{ ae_l16x2m.iu	aed2, a4, 4; nop; ae_mulaafd32s.hh.ll	aed0, aed3, aed3 }

00008bb0 <cali_power+0x80>:
    8bb0:	0e6ce17004791450470021381c01032f 	{ l16si	a2, a3, 0x106; movi	a4, 1; nop; ae_srai64	aed1, aed1, 2 }
    8bc0:	0e6d6165a53e4150060001380801c47f 	{ movi	a7, 228; slli	a4, a4, 15; nop; ae_srai64	aed0, aed0, 2 }
    8bd0:	0eace17a1d2a73d0c40441380001d46f 	{ movi	a6, 232; ae_l32m.xu	aed3, a7, a3; nop; ae_roundsq32f48asym	aed1, aed1 }
    8be0:	0eace17a252363d0c500413f1801442f 	{ sub	a4, a4, a2; ae_l32m.xu	aed4, a6, a3; nop; ae_roundsq32f48asym	aed0, aed0 }
    8bf0:	0504014014a0f24e                  	{ ae_cvtp24a16x2.ll	aed2, a2, a4; movi	a5, 1 }
    8bf8:	0e1d4285abf65425842b4e181062512f 	{ ae_sel16i	aed5, aed2, aed2, 1; slli	a5, a5, 12; ae_mulf48q32sp16s.l	aed3, aed3, aed2; ae_mulf48q32sp16s.l	aed2, aed4, aed2 }
    8c08:	0e9d041b08ed0c0084130e1f0425582f 	{ l32r	a2, 148 (7324 <airoha_divide_limit_1>); nop; ae_mulaf48q32sp16s.l	aed3, aed1, aed5; ae_mulaf48q32sp16s.l	aed2, aed0, aed5 }
    8c18:	0ead217b0d5c0cd0c57841380c01015f 	{ nop; nop; nop; ae_roundsq32f48asym	aed30, aed3 }
    8c28:	0ead217b0d350cd0c5fc413b00018c7f 	{ ae_s32m.i	aed30, a7, 0; nop; nop; ae_roundsq32f48asym	aed31, aed2 }
    8c38:	1e03e34718ceb06e                  	{ ae_s32m.i	aed31, a6, 0; l32i	a15, a3, 228 }
    8c40:	3a23e2                                    	l32i	a14, a3, 232
    8c43:	21a3f0                                    	srai	a10, a15, 3
    8c46:	53b5e0                                    	max	a11, a5, a14
    8c49:	0002e0                                    	callx8	a2
    8c4c:	292342                                    	l32i	a4, a3, 164
    8c4f:	7c1392                                    	l16ui	a9, a3, 248
    8c52:	312382                                    	l32i	a8, a3, 196
    8c55:	0a2d                                    	mov.n	a2, a10
    8c57:	7d9352                                    	l16si	a5, a3, 250
    8c5a:	a8a0e2                                    	movi	a14, 168
    8c5d:	5374a0                                    	max	a7, a4, a10
    8c60:	c8a0f2                                    	movi	a15, 200
    8c63:	4348a0                                    	min	a4, a8, a10
    8c66:	296372                                    	s32i	a7, a3, 164
    8c69:	170637c40880334e                  	{ s32i	a4, a3, 196; ae_truncp24a32x2	aed0, a7, a7 }
    8c71:	150634a1040109ee                  	{ bnez.w15	a9, 8cd7 <cali_power+0x1a7>; ae_truncp24a32x2	aed1, a4, a4 }
    8c79:	0ead416650e33ed0c400013f1401b87f 	{ l32r	a7, 35c (8280 <take_max_four>); add	a10, a3, a14; nop; ae_roundsp16f24asym	aed0, aed0 }
    8c89:	0eace1700529cbd0c4040138040185ff 	{ slli	a8, a5, 1; movi	a11, 12; nop; ae_roundsp16f24asym	aed1, aed1 }
    8c99:	0e06c34004d138ae                  	{ ae_s16m.l.x	aed0, a10, a8; add	a4, a3, a15 }
    8ca1:	220740c00cc5384e                  	{ ae_s16m.l.x	aed1, a4, a8; nop }
    8ca9:	0007e0                                    	callx8	a7
    8cac:	dd9271                                    	l32r	a7, 2f4 (6090 <take_min_four>)
    8caf:	cb0c                                    	movi.n	a11, 12
    8cb1:	3063a2                                    	s32i	a10, a3, 192
    8cb4:	04ad                                    	mov.n	a10, a4
    8cb6:	0007e0                                    	callx8	a7
    8cb9:	a80c                                    	movi.n	a8, 10
    8cbb:	e51b                                    	addi.n	a14, a5, 1
    8cbd:	728850                                    	salt	a8, a8, a5
    8cc0:	0f0c                                    	movi.n	a15, 0
    8cc2:	dda741                                    	l32r	a4, 360 (c0010000 <_end+0xc0002714>)
    8cc5:	83fe80                                    	moveqz	a15, a14, a8
    8cc8:	dda771                                    	l32r	a7, 364 (3fff0000 <_end+0x3ffe2714>)
    8ccb:	3863a2                                    	s32i	a10, a3, 224
    8cce:	296342                                    	s32i	a4, a3, 164
    8cd1:	316372                                    	s32i	a7, a3, 196
    8cd4:	7d53f2                                    	s16i	a15, a3, 250

00008cd7 <cali_power+0x1a7>:
    8cd7:	150c                                    	movi.n	a5, 1
    8cd9:	0648                                    	l32i.n	a4, a6, 0
    8cdb:	210762440465055e                  	{ addmi	a5, a5, 0x1000; ae_cvt48a32	aed5, a2 }
    8ce3:	2604004010e3171e                  	{ ae_l64.i	aed2, a1, 8; movi	a7, 224 }
    8ceb:	2282330220a2ecfe                  	{ movi	a15, 236; nop; ae_mulf48q32sp16s.l	aed0, aed5, aed2 }
    8cf3:	02a457                                    	bge	a4, a5, 8cf9 <cali_power+0x1c9>
    8cf6:	005086                                    	j	8e3c <cali_power+0x30c>
    8cf9:	3404204008c3973e                  	{ ae_l32m.x	aed1, a3, a7; movi	a5, 240 }
    8d01:	0eacc57060c006d0c50081380001041f 	{ ae_lt64	b0, aed1, aed0; movi	a6, 192; nop; nop }
    8d11:	dd0c41                                    	l32r	a4, 144 (b540 <immediate_num>)
    8d14:	2206924008ea071e                  	{ ae_l64.i	aed1, a1, 8; or	a10, a2, a2 }
    8d1c:	650076                                    	bf	b0, 8d85 <cali_power+0x255>
    8d1f:	02052fc018c4b35e                  	{ ae_l32m.xu	aed3, a5, a3; ae_l32m.xu	aed4, a15, a3 }
    8d27:	38c442                                    	addi	a4, a4, 56
    8d2a:	230760c00c85b04e                  	{ ae_l16x2m.i	aed1, a4, 0; nop }
    8d32:	0e9cc29613e242d0c4004e180861111f 	{ ae_sel16i	aed1, aed1, aed1, 1; ae_l16x2m.i	aed2, a4, 8; ae_mulf48q32sp16s.l	aed3, aed3, aed1; ae_roundsq32f48asym	aed0, aed0 }
    8d42:	0e9d029b0bec0c2886130e201082212f 	{ ae_sel16i	aed2, aed2, aed2, 1; nop; ae_mulf48q32sp16s.l	aed4, aed4, aed2; ae_mulaf48q32sp16s.l	aed3, aed5, aed1 }
    8d52:	1e8354233402b13e                  	{ nop; nop; ae_mulaf48q32sp16s.l	aed4, aed0, aed2 }
    8d5a:	0ead217b0d5c0cd0c57841380c01015f 	{ nop; nop; nop; ae_roundsq32f48asym	aed30, aed3 }
    8d6a:	0ead257b0d250cd0c5fc413b00018c5f 	{ ae_s32m.i	aed30, a5, 0; nop; nop; ae_roundsq32f48asym	aed31, aed4 }
    8d7a:	220760c718c5b0fe                  	{ ae_s32m.i	aed31, a15, 0; nop }
    8d82:	002d86                                    	j	8e3c <cali_power+0x30c>

00008d85 <cali_power+0x255>:
    8d85:	0eace579062636d0c400813910017b1f 	{ ae_cvta32f24s.l	a11, aed1; ae_l32m.x	aed0, a3, a6; nop; nop }
    8d95:	228073033002ed4e                  	{ l32r	a4, 14c (7270 <airoha_divide>); nop; ae_mulf48q32sp16s.l	aed0, aed0, aed2 }
    8d9d:	f0a052                                    	movi	a5, 240
    8da0:	0eacc57070c0c7d0c50081380001045f 	{ ae_lt64	b0, aed5, aed0; movi	a7, 236; nop; nop }
    8db0:	021076                                    	bt	b0, 8db6 <cali_power+0x286>
    8db3:	002146                                    	j	8e3c <cali_power+0x30c>
    8db6:	220700c108e5971e                  	{ ae_s64.i	aed5, a1, 8; nop }
    8dbe:	0004e0                                    	callx8	a4
    8dc1:	20076b431000e04e                  	{ l32r	a4, 144 (b540 <immediate_num>); ae_cvt48a32	aed0, a11 }
    8dc9:	020505c010a11a0e                  	{ ae_slaasq56s	aed0, aed0, a10; ae_l32m.xu	aed1, a5, a3 }
    8dd1:	0ead2161ed211fd0c58041381801837f 	{ ae_l32m.xu	aed2, a7, a3; ae_l64.i	aed29, a1, 8; nop; ae_roundsq32f48asym	aed0, aed0 }
    8de1:	38c442                                    	addi	a4, a4, 56
    8de4:	230760c01c85b14e                  	{ ae_l16x2m.i	aed3, a4, 4; nop }
    8dec:	0e5d329b0d2d0c00c48c6e080823044f 	{ ae_l16x2m.i	aed4, a4, 0; nop; ae_mulf48q32sp16s.l	aed1, aed1, aed3; ae_sel16i	aed3, aed3, aed3, 1 }
    8dfc:	0e9d029b0bfc0c0082130e110044414f 	{ ae_sel16i	aed4, aed4, aed4, 1; nop; ae_mulf48q32sp16s.l	aed2, aed2, aed4; ae_mulaf48q32sp16s.l	aed1, aed0, aed3 }
    8e0c:	1e83541337a4b13e                  	{ nop; nop; ae_mulaf48q32sp16s.l	aed2, aed29, aed4 }
    8e14:	0ead217b0d4c0cd0c57841380c01015f 	{ nop; nop; nop; ae_roundsq32f48asym	aed30, aed1 }
    8e24:	0ead217b0d350cd0c5fc413b00018c5f 	{ ae_s32m.i	aed30, a5, 0; nop; nop; ae_roundsq32f48asym	aed31, aed2 }
    8e34:	220760c718c5b07e                  	{ ae_s32m.i	aed31, a7, 0; nop }
    8e3c:	3b2342                                    	l32i	a4, a3, 236
    8e3f:	3c2352                                    	l32i	a5, a3, 240
    8e42:	c02240                                    	sub	a2, a2, a4
    8e45:	21a120                                    	srai	a10, a2, 1
    8e48:	c0b540                                    	sub	a11, a5, a4
    8e4b:	dcbf21                                    	l32r	a2, 148 (7324 <airoha_divide_limit_1>)
    8e4e:	f4a062                                    	movi	a6, 244
    8e51:	0002e0                                    	callx8	a2
    8e54:	861322                                    	l16ui	a2, a3, 0x10c
    8e57:	f550a0                                    	extui	a5, a10, 16, 16
    8e5a:	8413d2                                    	l16ui	a13, a3, 0x108
    8e5d:	0f0c                                    	movi.n	a15, 0
    8e5f:	7f9372                                    	l16si	a7, a3, 254
    8e62:	882c                                    	movi.n	a8, 40
    8e64:	824d                                    	ae_sext16	a4, a2
    8e66:	112400                                    	slli	a2, a4, 16
    8e69:	c04540                                    	sub	a4, a5, a4
    8e6c:	851392                                    	l16ui	a9, a3, 0x10a
    8e6f:	62aa27                                    	bge	a10, a2, 8ed5 <cali_power+0x3a5>
    8e72:	f4a0d2                                    	movi	a13, 244
    8e75:	471b                                    	addi.n	a4, a7, 1
    8e77:	844d                                    	ae_sext16	a4, a4
    8e79:	434480                                    	min	a4, a4, a8
    8e7c:	2d05034004a1f49e                  	{ ae_cvtp24a16x2.ll	aed0, a4, a9; ae_l32m.x	aed1, a3, a13 }
    8e84:	2281e9063c00f34e                  	{ s16i	a4, a3, 254; nop; ae_mulf32s.lh	aed0, aed0, aed0 }
    8e8c:	0eace57001000fd0c58081380c01220f 	{ ae_slaisq56s	aed0, aed0, 10; movi	a15, 0; nop; nop }
    8e9c:	0ead057b08e40cd0c58081380001e01f 	{ ae_sub64	aed0, aed1, aed0; nop; nop; nop }
    8eac:	0ead217b0d440cd0c50041380c01015f 	{ nop; nop; nop; ae_roundsq32f48asym	aed0, aed0 }
    8ebc:	0ead257b0d240cd0c400813b0c016e0f 	{ ae_trunca32q48	a14, aed0; nop; nop; nop }
    8ecc:	534ef0                                    	max	a4, a14, a15
    8ecf:	3d6342                                    	s32i	a4, a3, 244
    8ed2:	001c86                                    	j	8f48 <cali_power+0x418>

00008ed5 <cali_power+0x3a5>:
    8ed5:	030506c004bff4de                  	{ ae_cvtp24a16x2.ll	aed0, a4, a13; ae_l32m.xu	aed31, a6, a3 }
    8edd:	2281e80e3c00f3fe                  	{ s16i	a15, a3, 254; nop; ae_mulf32s.hh	aed1, aed0, aed0 }
    8ee5:	228353033420b13e                  	{ nop; nop; ae_mulf48q32sp16s.l	aed0, aed1, aed0 }
    8eed:	0ead257b09040cd0c58081380c01330f 	{ ae_slaisq56s	aed0, aed0, 15; nop; nop; nop }
    8efd:	0ead217b0d440cd0c50041380c01015f 	{ nop; nop; nop; ae_roundsq32f48asym	aed0, aed0 }
    8f0d:	0ead257b09040cd0c580813a0c01110f 	{ ae_srai64	aed0, aed0, 5; nop; nop; nop }
    8f1d:	0ead257b0d050cd0c58081380401c0ff 	{ ae_add64	aed0, aed31, aed0; nop; nop; nop }
    8f2d:	0ead217b0d440cd0c50041380c01015f 	{ nop; nop; nop; ae_roundsq32f48asym	aed0, aed0 }
    8f3d:	220760c000c5b06e                  	{ ae_s32m.i	aed0, a6, 0; nop }
    8f45:	3d2342                                    	l32i	a4, a3, 244
    8f48:	150c                                    	movi.n	a5, 1
    8f4a:	214140                                    	srai	a4, a4, 1
    8f4d:	015520                                    	slli	a5, a5, 30
    8f50:	445a                                    	add.n	a4, a4, a5
    8f52:	14065ac0008001fe                  	{ movi	a15, 1; ae_truncp24a32x2	aed0, a10, a4 }
    8f5a:	228349033400b13e                  	{ nop; nop; ae_mulf32s.lh	aed0, aed0, aed0 }
    8f62:	2007024300a10f0e                  	{ ae_slaaq56	aed0, aed0, a15; ae_cvt48a32	aed1, a2 }
    8f6a:	0ead057b08c40cd0c40081380401041f 	{ ae_le64	b0, aed1, aed0; nop; nop; nop }
    8f7a:	070076                                    	bf	b0, 8f85 <cali_power+0x455>
    8f7d:	7e9322                                    	l16si	a2, a3, 252
    8f80:	224b                                    	addi.n	a2, a2, 4
    8f82:	0008c6                                    	j	8fa9 <cali_power+0x479>

00008f85 <cali_power+0x455>:
    8f85:	879322                                    	l16si	a2, a3, 0x10e
    8f88:	7e9342                                    	l16si	a4, a3, 252
    8f8b:	112200                                    	slli	a2, a2, 16
    8f8e:	200762470461e42e                  	{ addi	a2, a4, -4; ae_cvt48a32	aed1, a2 }
    8f96:	0ead057b08c40cd0c50081380801040f 	{ ae_lt64	b0, aed0, aed1; nop; nop; nop }
    8fa6:	020076                                    	bf	b0, 8fac <cali_power+0x47c>
    8fa9:	7e5322                                    	s16i	a2, a3, 252
    8fac:	01d322                                    	addmi	a2, a3, 0x100
    8faf:	31f0a0                                    	srai	a15, a10, 16
    8fb2:	62fd                                    	ae_s16i.n	a15, a2, 0
    8fb4:	f01d                                    	retw.n

00008fb6 <cali_power+0x486>:
	...

00008fb8 <mag_calibration>:
    8fb8:	004136                                    	entry	a1, 32
    8fbb:	dc6241                                    	l32r	a4, 144 (b540 <immediate_num>)
    8fbe:	20a132                                    	movi	a3, 0x120
    8fc1:	020563c30460427e                  	{ addi	a7, a2, 76; ae_l32m.xu	aed0, a3, a2 }
    8fc9:	00054744108204fe                  	{ movi	a15, 0x124; ae_l32m.i	aed2, a7, 0 }
    8fd1:	02056fc2047e246e                  	{ addi	a6, a4, 40; ae_l32m.xu	aed30, a15, a2 }
    8fd9:	010567400c84b06e                  	{ ae_l16x2m.i	aed1, a6, 0; ae_l32m.i	aed4, a7, 4 }
    8fe1:	0e1cc29003e815f5822b4e000801311f 	{ ae_sel16i	aed3, aed1, aed1, 1; movi	a5, 1; ae_mulf48q32sp16s.l	aed0, aed0, aed1; ae_mulf48q32sp16s.l	aed1, aed30, aed1 }
    8ff1:	0e9d201b0c7c0c2082130e010443455f 	{ addmi	a5, a5, 0x1000; nop; ae_mulaf48q32sp16s.l	aed0, aed2, aed3; ae_mulaf48q32sp16s.l	aed1, aed4, aed3 }
    9001:	0ead217b0d240cd0c400413808018e6f 	{ movi	a6, 0x1c6; nop; nop; ae_roundsq32f48asym	aed0, aed0 }
    9011:	0ead217b0d2d0cd0c5fc41390001003f 	{ ae_s32m.i	aed0, a3, 0; nop; nop; ae_roundsq32f48asym	aed31, aed1 }
    9021:	0a03e24718d2b0fe                  	{ ae_s32m.i	aed31, a15, 0; l32i	a11, a2, 0x120 }
    9029:	492232                                    	l32i	a3, a2, 0x124
    902c:	02ab57                                    	bge	a11, a5, 9032 <mag_calibration+0x7a>
    902f:	0060c6                                    	j	91b6 <mag_calibration+0x1fe>
    9032:	21a230                                    	srai	a10, a3, 2
    9035:	dc4431                                    	l32r	a3, 148 (7324 <airoha_divide_limit_1>)
    9038:	0003e0                                    	callx8	a3
    903b:	1a061ac20080823e                  	{ l16si	a3, a2, 0x110; ae_truncp24a32x2	aed0, a10, a10 }
    9043:	0eacc17091e0cad0c500013a1401228f 	{ l32i	a8, a2, 0x128; movi	a10, 0x12c; nop; ae_roundsp16f24asym	aed0, aed0 }
    9053:	2403c24004d4362e                  	{ ae_s16m.l.x	aed0, a2, a6; l32i	a5, a2, 0x148 }
    905b:	e39272                                    	l16si	a7, a2, 0x1c6
    905e:	331b                                    	addi.n	a3, a3, 1
    9060:	93fd                                    	ae_zext16	a15, a3
    9062:	885232                                    	s16i	a3, a2, 0x110
    9065:	8f9292                                    	l16si	a9, a2, 0x11e
    9068:	113700                                    	slli	a3, a7, 16
    906b:	02cf26                                    	beqi	a15, 32, 9071 <mag_calibration+0xb9>
    906e:	004e06                                    	j	91aa <mag_calibration+0x1f2>
    9071:	a2aa                                    	add.n	a10, a2, a10
    9073:	050c                                    	movi.n	a5, 0
    9075:	951272                                    	l16ui	a7, a2, 0x12a
    9078:	885252                                    	s16i	a5, a2, 0x110
    907b:	9039a0                                    	addx2	a3, a9, a10
    907e:	cb0c                                    	movi.n	a11, 12
    9080:	637d                                    	ae_s16i.n	a7, a3, 0
    9082:	44a152                                    	movi	a5, 0x144
    9085:	dcb531                                    	l32r	a3, 35c (8280 <take_max_four>)
    9088:	0003e0                                    	callx8	a3
    908b:	8f9262                                    	l16si	a6, a2, 0x11e
    908e:	4ca132                                    	movi	a3, 0x14c
    9091:	323a                                    	add.n	a3, a2, a3
    9093:	a51272                                    	l16ui	a7, a2, 0x14a
    9096:	5162a2                                    	s32i	a10, a2, 0x144
    9099:	cb0c                                    	movi.n	a11, 12
    909b:	906630                                    	addx2	a6, a6, a3
    909e:	03ad                                    	mov.n	a10, a3
    90a0:	667d                                    	ae_s16i.n	a7, a6, 0
    90a2:	1ca132                                    	movi	a3, 0x11c
    90a5:	dc9361                                    	l32r	a6, 2f4 (6090 <take_min_four>)
    90a8:	cda072                                    	movi	a7, 205
    90ab:	0006e0                                    	callx8	a6
    90ae:	2e0464400485b23e                  	{ ae_l16m.xu	aed0, a3, a2; movi	a15, 0x164 }
    90b6:	22828a0b3800052e                  	{ ae_l32m.x	aed0, a2, a5; nop; ae_mulf32s.ll	aed1, aed0, aed0 }
    90be:	5962a2                                    	s32i	a10, a2, 0x164
    90c1:	6cd762                                    	addmi	a6, a7, 0x6c00
    90c4:	0eace1708d2985e8c304213d0001366f 	{ ae_cvtp24a16x2.ll	aed3, a6, a6; movi	a5, 0x118; nop; ae_roundsp16q48x2asym	aed1, aed1, aed1 }
    90d4:	2282931338011f2e                  	{ ae_l32m.x	aed1, a2, a15; nop; ae_mulf48q32sp16s.l	aed2, aed0, aed1 }
    90dc:	0eacc56160c244d0c50081381001041f 	{ ae_lt64	b0, aed1, aed2; addi	a4, a4, 44; nop; nop }
    90ec:	5a0076                                    	bf	b0, 914a <mag_calibration+0x192>
    90ef:	0ead217b0d540cd0c50841380c01015f 	{ nop; nop; nop; ae_roundsq32f48asym	aed2, aed2 }
    90ff:	228353133443b13e                  	{ nop; nop; ae_mulf48q32sp16s.l	aed2, aed2, aed3 }
    9107:	0ead057b08c40cd0c50081380801042f 	{ ae_lt64	b0, aed2, aed1; nop; nop; nop }
    9117:	2f0076                                    	bf	b0, 914a <mag_calibration+0x192>
    911a:	030565c00c82a04e                  	{ ae_l16x2m.i	aed1, a4, 0; ae_l32m.xu	aed2, a5, a2 }
    9122:	228113102841411e                  	{ ae_sel16i	aed1, aed1, aed1, 1; nop; ae_mulf48q32sp16s.l	aed2, aed2, aed1 }
    912a:	1e8354133401b13e                  	{ nop; nop; ae_mulaf48q32sp16s.l	aed2, aed0, aed1 }
    9132:	0ead217b0d540cd0c50041380c01015f 	{ nop; nop; nop; ae_roundsq32f48asym	aed0, aed2 }
    9142:	220760c000c5b05e                  	{ ae_s32m.i	aed0, a5, 0; nop }

0000914a <mag_calibration+0x192>:
    914a:	4622b2                                    	l32i	a11, a2, 0x118
    914d:	0a0c                                    	movi.n	a10, 0
    914f:	dbba41                                    	l32r	a4, 38 (7b4 <HIFI_sqrt>)
    9152:	0004e0                                    	callx8	a4
    9155:	20070b431881825e                  	{ l16si	a5, a2, 0x11e; ae_cvt48a32	aed1, a11 }
    915d:	340302c010b84a1e                  	{ ae_slaasq56s	aed1, aed1, a10; l16si	a4, a2, 0x1c6 }
    9165:	0eace1700529bdd0c40441380001003f 	{ ae_l16m.i	aed0, a3, 0; movi	a13, 11; nop; ae_roundsq32f48asym	aed1, aed1 }
    9175:	551b                                    	addi.n	a5, a5, 1
    9177:	22823302202000ee                  	{ movi	a14, 0; nop; ae_mulf48q32sp16s.l	aed0, aed1, aed0 }
    917f:	856d                                    	ae_sext16	a6, a5
    9181:	0ead6165a52740e8c300013d14013d6f 	{ salt	a3, a13, a6; slli	a4, a4, 16; nop; ae_roundsp16q48x2asym	aed0, aed0, aed0 }
    9191:	935e30                                    	movnez	a5, a14, a3
    9194:	54c2f2                                    	addi	a15, a2, 84
    9197:	4a6242                                    	s32i	a4, a2, 0x128
    919a:	526242                                    	s32i	a4, a2, 0x148
    919d:	8f5252                                    	s16i	a5, a2, 0x11e
    91a0:	220740c004c510fe                  	{ ae_s16m.l.i	aed0, a15, 0; nop }
    91a8:	f01d                                    	retw.n

000091aa <mag_calibration+0x1f2>:
    91aa:	534830                                    	max	a4, a8, a3
    91ad:	433530                                    	min	a3, a5, a3
    91b0:	4a6242                                    	s32i	a4, a2, 0x128
    91b3:	526232                                    	s32i	a3, a2, 0x148
    91b6:	f01d                                    	retw.n

000091b8 <beam1_proc>:
    91b8:	006136                                    	entry	a1, 48
    91bb:	1179                                    	s32i.n	a7, a1, 4
    91bd:	907640                                    	addx2	a7, a6, a4
    91c0:	580c                                    	movi.n	a8, 5
    91c2:	0c0720240800e5ce                  	{ blti.w15	a5, 1, 9223 <beam1_proc+0x6b>; ae_movi	aed0, 0 }
    91ca:	0706f7400c89b07e                  	{ ae_l16x2m.i	aed1, a7, 0; or	a4, a7, a7 }
    91d2:	078876                                    	loop	a8, 91dd <beam1_proc+0x25>
    91d5:	1c823a053821114e                  	{ ae_l16x2m.iu	aed1, a4, 4; nop; ae_mulaafd32s.hh.ll	aed0, aed1, aed1 }

000091dd <beam1_proc+0x25>:
    91dd:	0e6ce17005381a50060001380001014f 	{ movi	a4, 1; movi	a10, 1; nop; ae_srai64	aed0, aed0, 2 }
    91ed:	0ead6165252647d0c40041380001028f 	{ movi	a8, 2; slli	a4, a4, 25; nop; ae_roundsq32f48asym	aed0, aed0 }
    91fd:	01aab0                                    	slli	a10, a10, 21
    9200:	728850                                    	salt	a8, a8, a5
    9203:	0ead6567552648d0c400813b0c016b0f 	{ ae_trunca32q48	a11, aed0; movnez	a10, a4, a8; nop; nop }
    9213:	dbce41                                    	l32r	a4, 14c (7270 <airoha_divide>)
    9216:	0004e0                                    	callx8	a4
    9219:	000186                                    	j	9223 <beam1_proc+0x6b>

0000921c <beam1_proc+0x64>:
    921c:	00000000                                 .......

00009223 <beam1_proc+0x6b>:
    9223:	10c3e2                                    	addi	a14, a3, 16
    9226:	8a92f2                                    	l16si	a15, a2, 0x114
    9229:	01043e40108101ee                  	{ s32i	a14, a1, 8; ae_l16m.i	aed1, a14, 0 }
    9231:	fec7c2                                    	addi	a12, a7, -2
    9234:	11e8                                    	l32i.n	a14, a1, 4
    9236:	1378                                    	l32i.n	a7, a3, 4
    9238:	14c342                                    	addi	a4, a3, 20
    923b:	0d0c                                    	movi.n	a13, 0
    923d:	3388                                    	l32i.n	a8, a3, 12
    923f:	f3f640                                    	wur.ae_cbegin0	a4
    9242:	624de0                                    	saltu	a4, a13, a14
    9245:	72fdf0                                    	salt	a15, a13, a15
    9248:	906670                                    	addx2	a6, a6, a7
    924b:	1074f0                                    	and	a7, a4, a15
    924e:	0304e0                                    	rsr.br	a14
    9251:	41f1e0                                    	srli	a15, a14, 1
    9254:	047070                                    	extui	a7, a7, 0, 1
    9257:	24c392                                    	addi	a9, a3, 36
    925a:	90ff70                                    	addx2	a15, a15, a7
    925d:	3139                                    	s32i.n	a3, a1, 12
    925f:	fec662                                    	addi	a6, a6, -2
    9262:	20074b40008002be                  	{ movi	a11, 2; ae_cvt48a32	aed0, a11 }
    926a:	094d                                    	mov.n	a4, a9
    926c:	830c                                    	movi.n	a3, 8
    926e:	f3f790                                    	wur.ae_cend0	a9
    9271:	1304f0                                    	wsr.br	a15
    9274:	067d                                    	mov.n	a7, a6
    9276:	04fd                                    	mov.n	a15, a4
    9278:	230760c0148571ce                  	{ ae_l16m.iu	aed2, a12, 2; nop }
    9280:	0e6d357b0c550c20450421391401a38f 	{ ae_s16m.l.xc	aed2, a8, a11; nop; nop; ae_cvtq56p32s.l	aed1, aed1 }
    9290:	0104544500a2030e                  	{ loop	a3, 92a8 <beam1_proc+0xf0>; ae_l16m.i	aed2, a4, 0 }
    9298:	230760c01c859b8e                  	{ ae_l16m.xc	aed3, a8, a11; nop }
    92a0:	2682320c284321fe                  	{ ae_l16m.iu	aed2, a15, 2; nop; ae_mulsf32s.ll	aed1, aed2, aed3 }

000092a8 <beam1_proc+0xf0>:
    92a8:	0ead217b0d2d0ce8c20821380801417f 	{ ae_l16m.iu	aed1, a7, 2; nop; nop; ae_roundsp16q48x2asym	aed2, aed1, aed1 }
    92b8:	220740c018e5126e                  	{ ae_mov	aed3, aed2; nop }
    92c0:	570076                                    	bf	b0, 931b <beam1_proc+0x163>
    92c3:	060562401c84702e                  	{ ae_l16m.i	aed3, a2, 0; ae_l32m.i	aed4, a2, 28 }
    92cb:	0e9ce6502d2322d0c4808d1a1862de2f 	{ ae_l32m.i	aed31, a2, 24; ae_l16m.i	aed5, a2, 4; ae_mulf32s.ll	aed3, aed3, aed2; nop }
    92db:	0004724718deb72e                  	{ ae_s32m.i	aed31, a2, 28; ae_l16m.i	aed30, a2, 2 }
    92e3:	220700c300a5db3e                  	{ ae_slaaq56	aed3, aed3, a11; nop }
    92eb:	1e83541b3485b13e                  	{ nop; nop; ae_mulaf48q32sp16s.l	aed3, aed4, aed5 }
    92f3:	1e83541b37feb13e                  	{ nop; nop; ae_mulaf48q32sp16s.l	aed3, aed31, aed30 }
    92fb:	0ead217b0d5c0cd0c51041380c01015f 	{ nop; nop; nop; ae_roundsq32f48asym	aed4, aed3 }
    930b:	0ead257b0d250ce8c38c81390001162f 	{ ae_s32m.i	aed4, a2, 24; nop; nop; ae_roundsp16q48x2asym	aed3, aed4, aed4 }

0000931b <beam1_proc+0x163>:
    931b:	0502cfc01cdc016e                  	{ ae_s16m.l.iu	aed3, a6, 2; addi	a4, a15, -16 }
    9323:	2281b3102002e0de                  	{ extui	a14, a13, 0, 1; nop; ae_mulf48q32sp16s.l	aed2, aed0, aed2 }
    932b:	4c15a6                                    	blti	a5, 1, 937b <beam1_proc+0x1c3>
    932e:	049e56                                    	bnez	a14, 937b <beam1_proc+0x1c3>
    9331:	08041f4010a38a2e                  	{ ae_slaasq56s	aed2, aed2, a10; ae_l16m.i	aed3, a15, -16 }
    9339:	0020f0                                    	nop
    933c:	f03d                                    	nop.n
    933e:	f03d                                    	nop.n
    9340:	0ead217b0d340c98c30841380401d30f 	{ loop	a3, 9378 <beam1_proc+0x1c0>; nop; nop; ae_round24x2f48sasym	aed2, aed2, aed2 }
    9350:	3a04584100ff132e                  	{ ae_cvtq56p32s.l	aed4, aed3; ae_l16m.xc	aed31, a8, a11 }
    9358:	1e822b24285f314e                  	{ ae_l16m.iu	aed3, a4, 2; nop; ae_mulaf32s.ll	aed4, aed2, aed31 }
    9360:	0ead257b0d440ce8c31081380c01015f 	{ nop; nop; nop; ae_roundsp16q48x2asym	aed4, aed4, aed4 }
    9370:	220740c104c51f4e                  	{ ae_s16m.l.i	aed4, a4, -2; nop }

00009378 <beam1_proc+0x1c0>:
    9378:	f0c442                                    	addi	a4, a4, -16

0000937b <beam1_proc+0x1c3>:
    937b:	dd1b                                    	addi.n	a13, a13, 1
    937d:	04fd                                    	mov.n	a15, a4
    937f:	029d26                                    	beqi	a13, 10, 9385 <beam1_proc+0x1cd>
    9382:	ffbc86                                    	j	9278 <beam1_proc+0xc0>
    9385:	3158                                    	l32i.n	a5, a1, 12
    9387:	430c                                    	movi.n	a3, 4
    9389:	0c0700401480014e                  	{ l32i	a4, a1, 8; ae_movi	aed0, 0 }
    9391:	100459c00cc1004e                  	{ ae_s16m.l.i	aed1, a4, 0; ae_l16x2m.i	aed1, a9, 0 }
    9399:	094d                                    	mov.n	a4, a9
    939b:	3589                                    	s32i.n	a8, a5, 12
    939d:	078376                                    	loop	a3, 93a8 <beam1_proc+0x1f0>
    93a0:	1c823a053821114e                  	{ ae_l16x2m.iu	aed1, a4, 4; nop; ae_mulaafd32s.hh.ll	aed0, aed1, aed1 }

000093a8 <beam1_proc+0x1f0>:
    93a8:	0eace160352422e8c20001380001f66f 	{ movi	a6, 250; l16si	a2, a2, 12; nop; ae_roundsp16q48x2asym	aed0, aed0, aed0 }
    93b8:	870c                                    	movi.n	a7, 8
    93ba:	2902964000ffcb3e                  	{ ae_trunca16p24s.l	a3, aed0; addmi	a8, a6, 0x7e00 }
    93c2:	095532                                    	s16i	a3, a5, 18
    93c5:	230700c004a5f88e                  	{ ae_cvtp24a16x2.ll	aed0, a8, a8; nop }
    93cd:	834d                                    	ae_sext16	a4, a3
    93cf:	2da247                                    	bge	a2, a4, 9400 <beam1_proc+0x248>
    93d2:	220760c00c85709e                  	{ ae_l16m.i	aed1, a9, 0; nop }
    93da:	0020f0                                    	nop
    93dd:	1f8776                                    	loop	a7, 9400 <beam1_proc+0x248>
    93e0:	22822a142801119e                  	{ ae_l16m.iu	aed1, a9, 2; nop; ae_mulf32s.ll	aed2, aed0, aed1 }
    93e8:	0ead217b0d540ce8c30841380c01015f 	{ nop; nop; nop; ae_roundsp16q48x2asym	aed2, aed2, aed2 }
    93f8:	220740c014c51f9e                  	{ ae_s16m.l.i	aed2, a9, -2; nop }

00009400 <beam1_proc+0x248>:
    9400:	f01d                                    	retw.n

00009402 <beam1_proc+0x24a>:
	...

00009404 <beam2_proc>:
    9404:	00e136                                    	entry	a1, 112
    9407:	952b                                    	addi.n	a9, a5, 2
    9409:	cd7c                                    	movi.n	a13, -4
    940b:	05fd                                    	mov.n	a15, a5
    940d:	07ad                                    	mov.n	a10, a7
    940f:	048d                                    	mov.n	a8, a4
    9411:	03cd                                    	mov.n	a12, a3
    9413:	93fd90                                    	movnez	a15, a13, a9
    9416:	e47c                                    	movi.n	a4, -2
    9418:	877c                                    	movi.n	a7, -8
    941a:	ab7c                                    	movi.n	a11, -6
    941c:	93b790                                    	movnez	a11, a7, a9
    941f:	90a0d2                                    	movi	a13, 144
    9422:	2f9392                                    	l16si	a9, a3, 94
    9425:	723540                                    	salt	a3, a5, a4
    9428:	4cda                                    	add.n	a4, a12, a13
    942a:	a0a072                                    	movi	a7, 160
    942d:	f3f640                                    	wur.ae_cbegin0	a4
    9430:	4c7a                                    	add.n	a4, a12, a7
    9432:	182c72                                    	l32i	a7, a12, 96
    9435:	119910                                    	slli	a9, a9, 15
    9438:	fec6d2                                    	addi	a13, a6, -2
    943b:	f3f740                                    	wur.ae_cend0	a4
    943e:	724790                                    	salt	a4, a7, a9
    9441:	80da72                                    	addmi	a7, a10, 0xffff8000
    9444:	83d640                                    	moveqz	a13, a6, a4
    9447:	be7c                                    	movi.n	a14, -5
    9449:	971b                                    	addi.n	a9, a7, 1
    944b:	170381401ca7eaae                  	{ ae_cvtp24a16x2.ll	aed3, a10, a10; l32i	a6, a1, 116 }
    9453:	1ca8                                    	l32i.n	a10, a12, 4
    9455:	83eb30                                    	moveqz	a14, a11, a3
    9458:	624970                                    	saltu	a4, a9, a7
    945b:	f1e9                                    	s32i.n	a14, a1, 60
    945d:	0c98                                    	l32i.n	a9, a12, 0
    945f:	0e0c                                    	movi.n	a14, 0
    9461:	d1d9                                    	s32i.n	a13, a1, 52
    9463:	93fe30                                    	movnez	a15, a14, a3
    9466:	1d0c                                    	movi.n	a13, 1
    9468:	9036a0                                    	addx2	a3, a6, a10
    946b:	90e680                                    	addx2	a14, a6, a8
    946e:	7275d0                                    	salt	a7, a5, a13
    9471:	9159                                    	s32i.n	a5, a1, 36
    9473:	905690                                    	addx2	a5, a6, a9
    9476:	fece92                                    	addi	a9, a14, -2
    9479:	fec3e2                                    	addi	a14, a3, -2
    947c:	162c32                                    	l32i	a3, a12, 88
    947f:	e1f9                                    	s32i.n	a15, a1, 56
    9481:	10d740                                    	and	a13, a7, a4
    9484:	1c21b2                                    	l32i	a11, a1, 112
    9487:	5eccf2                                    	addi	a15, a12, 94
    948a:	64cc82                                    	addi	a8, a12, 100
    948d:	38cc42                                    	addi	a4, a12, 56
    9490:	0f043f41188411be                  	{ s32i	a11, a1, 28; ae_l16m.i	aed4, a15, -2 }
    9498:	81f9                                    	s32i.n	a15, a1, 32
    949a:	fec5f2                                    	addi	a15, a5, -2
    949d:	260c                                    	movi.n	a6, 2
    949f:	b189                                    	s32i.n	a8, a1, 44
    94a1:	a149                                    	s32i.n	a4, a1, 40
    94a3:	1061c2                                    	s32i	a12, a1, 64
    94a6:	0604004018e0971e                  	{ ae_s64.i	aed3, a1, 8; movi	a7, 0 }
    94ae:	c1d9                                    	s32i.n	a13, a1, 48
    94b0:	000646                                    	j	94cd <beam2_proc+0xc9>

000094b3 <beam2_proc+0xaf>:
	...

000094b5 <beam2_proc+0xb1>:
    94b5:	1104594104c011fe                  	{ ae_s16m.l.iu	aed4, a15, 2; ae_l16m.iu	aed0, a9, 2 }
    94bd:	220740c100e5106e                  	{ ae_mov	aed4, aed0; nop }
    94c5:	771b                                    	addi.n	a7, a7, 1
    94c7:	029766                                    	bnei	a7, 10, 94cd <beam2_proc+0xc9>
    94ca:	006ec6                                    	j	9689 <beam2_proc+0x285>
    94cd:	11041e421080925e                  	{ l16ui	a5, a2, 0x114; ae_l16m.iu	aed0, a14, 2 }
    94d5:	0904484004c0263e                  	{ ae_s16m.l.xc	aed0, a3, a6; movi	a8, 8 }
    94dd:	0c07603803e0a5ae                  	{ beqz.w15	a5, 94b5 <beam2_proc+0xb1>; ae_movi	aed0, 0 }
    94e5:	0502a44008c1004e                  	{ ae_l32f24.i	aed1, a4, 0; addi	a4, a4, 4 }
    94ed:	118876                                    	loop	a8, 9502 <beam2_proc+0xfe>
    94f0:	1506f4401489863e                  	{ ae_l16m.xc	aed2, a3, a6; or	a5, a4, a4 }
    94f8:	1e828b013822104e                  	{ ae_l32f24.i	aed1, a4, 0; nop; ae_mulaf32s.ll	aed0, aed1, aed2 }
    9500:	444b                                    	addi.n	a4, a4, 4

00009502 <beam2_proc+0xfe>:
    9502:	0e6d157b08f40c20449021380401e00f 	{ ae_round24x2f48sasym	aed0, aed0, aed0; nop; nop; ae_cvtq56p32s.l	aed1, aed4 }
    9512:	0e9d24bb0d240cd0c400920b0c03244f 	{ ae_trunca16p24s.l	a4, aed4; nop; ae_mulssfd32s.hh.ll	aed1, aed0, aed3; nop }
    9522:	0ead217b0d4c0ce8c30021380c01015f 	{ nop; nop; nop; ae_roundsp16q48x2asym	aed0, aed1, aed1 }
    9532:	050700c000e1cb8e                  	{ ae_trunca16p24s.l	a8, aed0; abs	a4, a4 }
    953a:	608180                                    	abs	a8, a8
    953d:	07a487                                    	bge	a4, a8, 9548 <beam2_proc+0x144>
    9540:	220740c000e5146e                  	{ ae_mov	aed0, aed4; nop }

00009548 <beam2_proc+0x144>:
    9548:	0502e5c10498619e                  	{ ae_l16m.iu	aed4, a9, 2; addi	a4, a5, -32 }
    9550:	230740c004c511fe                  	{ ae_s16m.l.iu	aed0, a15, 2; nop }
    9558:	f69d16                                    	beqz	a13, 94c5 <beam2_proc+0xc1>
    955b:	025726                                    	beqi	a7, 5, 9561 <beam2_proc+0x15d>
    955e:	0c6756                                    	bnez	a7, 9628 <beam2_proc+0x224>
    9561:	090464400480863e                  	{ ae_l16m.xc	aed0, a3, a6; movi	a8, 4 }
    9569:	37043344088001fe                  	{ s32i	a15, a1, 68; ae_l16m.xc	aed0, a3, a6 }
    9571:	37043344108001ee                  	{ s32i	a14, a1, 72; ae_l16m.xc	aed0, a3, a6 }
    9579:	0d0760400c80863e                  	{ ae_l16m.xc	aed1, a3, a6; ae_movi	aed0, 0 }
    9581:	136192                                    	s32i	a9, a1, 76
    9584:	1e830b0520214e1e                  	{ ae_s64.i	aed4, a1, 16; nop; ae_mulaf32s.ll	aed0, aed1, aed1 }
    958c:	f03d                                    	nop.n
    958e:	0f8876                                    	loop	a8, 95a1 <beam2_proc+0x19d>
    9591:	230760c00c85963e                  	{ ae_l16m.xc	aed1, a3, a6; nop }
    9599:	1e834b033421b13e                  	{ nop; nop; ae_mulaf32s.ll	aed0, aed1, aed1 }

000095a1 <beam2_proc+0x19d>:
    95a1:	0e6cc17001f81a50070001381c01218f 	{ l32i	a8, a1, 44; movi	a10, 1; nop; ae_srai64	aed0, aed0, 2 }
    95b1:	f198                                    	l32i.n	a9, a1, 60
    95b3:	11aa40                                    	slli	a10, a10, 12
    95b6:	1e03a14008c3608e                  	{ ae_l32m.i	aed1, a8, 0; l32i	a14, a1, 52 }
    95be:	0ea4e01005200dd0c58041020961fcff 	{ movi	a15, -4; movi	a13, 0; ae_add64	aed1, aed1, aed0; ae_roundsq32f48asym	aed0, aed0 }
    95ce:	0ead217b0d2d0cd0c58441390001008f 	{ ae_s32m.i	aed0, a8, 0; nop; nop; ae_roundsq32f48asym	aed1, aed1 }
    95de:	0eace564252428d0c400813b0c016b1f 	{ ae_trunca32q48	a11, aed1; l16si	a8, a2, 0x108; nop; nop }
    95ee:	1a6cb2                                    	s32i	a11, a12, 104
    95f1:	728d80                                    	salt	a8, a13, a8
    95f4:	e1d8                                    	l32i.n	a13, a1, 56
    95f6:	72aba0                                    	salt	a10, a11, a10
    95f9:	939fa0                                    	movnez	a9, a15, a10
    95fc:	1f0c                                    	movi.n	a15, 1
    95fe:	839d80                                    	moveqz	a9, a13, a8
    9601:	8e9a                                    	add.n	a8, a14, a9
    9603:	401800                                    	ssl	a8
    9606:	dad181                                    	l32r	a8, 14c (7270 <airoha_divide>)
    9609:	a1af00                                    	sll	a10, a15
    960c:	0008e0                                    	callx8	a8
    960f:	1021c2                                    	l32i	a12, a1, 64
    9612:	0c21d2                                    	l32i	a13, a1, 48
    9615:	220581441c84019e                  	{ l32i	a9, a1, 76; ae_l64.i	aed4, a1, 16 }
    961d:	1221e2                                    	l32i	a14, a1, 72
    9620:	200581440c8311fe                  	{ l32i	a15, a1, 68; ae_l64.i	aed3, a1, 8 }

00009628 <beam2_proc+0x224>:
    9628:	20076b40048160fe                  	{ ae_l16m.i	aed0, a15, 0; ae_cvt48a32	aed1, a11 }
    9630:	0e9ce6970d2658d0c4008e000020108f 	{ movi	a8, 8; ae_l32f24.i	aed1, a5, -32; ae_mulf48q32sp16s.l	aed0, aed1, aed0; nop }
    9640:	0402844010a10a0e                  	{ ae_slaasq56s	aed0, aed0, a10; addi	a4, a4, 4 }
    9648:	0ead217b0d240c98c30001381401d80f 	{ loop	a8, 9682 <beam2_proc+0x27e>; nop; nop; ae_round24x2f48sasym	aed0, aed0, aed0 }
    9658:	3604534010ff012e                  	{ ae_cvtq56p32s.l	aed2, aed1; ae_l16m.xc	aed31, a3, a6 }
    9660:	045d                                    	mov.n	a5, a4
    9662:	1e828b11381f104e                  	{ ae_l32f24.i	aed1, a4, 0; nop; ae_mulaf32s.ll	aed2, aed0, aed31 }
    966a:	0eacc56020e244d0c48081381401e22f 	{ ae_round24x2f48sasym	aed2, aed2, aed2; addi	a4, a4, 4; nop; nop }
    967a:	230760c010c55f5e                  	{ ae_s32f24.l.i	aed2, a5, -4; nop }

00009682 <beam2_proc+0x27e>:
    9682:	e0c542                                    	addi	a4, a5, -32
    9685:	ff8f06                                    	j	94c5 <beam2_proc+0xc1>

00009688 <beam2_proc+0x284>:
	...

00009689 <beam2_proc+0x285>:
    9689:	8158                                    	l32i.n	a5, a1, 32
    968b:	4f0c                                    	movi.n	a15, 4
    968d:	0c0700421481017e                  	{ l32i	a7, a1, 40; ae_movi	aed1, 0 }
    9695:	17052cc510801c3e                  	{ s32i	a3, a12, 88; ae_l32x2f24.i	aed0, a12, 56 }
    969d:	0402c74104c20f5e                  	{ ae_s16m.l.i	aed4, a5, -2; addi	a4, a7, 8 }
    96a5:	078f76                                    	loop	a15, 96b0 <beam2_proc+0x2ac>
    96a8:	1c827a082800034e                  	{ ae_l32x2f24.ip	aed0, a4, 8; nop; ae_mulaafd32s.hh.ll	aed1, aed0, aed0 }

000096b0 <beam2_proc+0x2ac>:
    96b0:	0eacc177f9e8d3e8c30021380c01214f 	{ l32i	a4, a1, 36; movi	a3, -3; nop; ae_roundsp16q48x2asym	aed0, aed1, aed1 }
    96c0:	220740c004c5105e                  	{ ae_s16m.l.i	aed0, a5, 0; nop }
    96c8:	772347                                    	blt	a3, a4, 9743 <beam2_proc+0x33f>
    96cb:	841222                                    	l16ui	a2, a2, 0x108
    96ce:	78cca2                                    	addi	a10, a12, 120
    96d1:	06e256                                    	bnez	a2, 9743 <beam2_proc+0x33f>
    96d4:	399c22                                    	l16si	a2, a12, 114
    96d7:	2f9c42                                    	l16si	a4, a12, 94
    96da:	1b2c52                                    	l32i	a5, a12, 108
    96dd:	1b2c62                                    	l32i	a6, a12, 108
    96e0:	3a9c82                                    	l16si	a8, a12, 116
    96e3:	090c                                    	movi.n	a9, 0
    96e5:	221b                                    	addi.n	a2, a2, 1
    96e7:	2f9cd2                                    	l16si	a13, a12, 94
    96ea:	823d                                    	ae_sext16	a3, a2
    96ec:	395c22                                    	s16i	a2, a12, 114
    96ef:	254a                                    	add.n	a2, a5, a4
    96f1:	10c6b2                                    	addi	a11, a6, 16
    96f4:	48c3a6                                    	blti	a3, 32, 9740 <beam2_proc+0x33c>
    96f7:	9038a0                                    	addx2	a3, a8, a10
    96fa:	395c92                                    	s16i	a9, a12, 114
    96fd:	4125b0                                    	srli	a2, a11, 5
    9700:	b60c                                    	movi.n	a6, 11
    9702:	632d                                    	ae_s16i.n	a2, a3, 0
    9704:	cb0c                                    	movi.n	a11, 12
    9706:	3a9c22                                    	l16si	a2, a12, 116
    9709:	1b6cd2                                    	s32i	a13, a12, 108
    970c:	221b                                    	addi.n	a2, a2, 1
    970e:	0c4d                                    	mov.n	a4, a12
    9710:	82fd                                    	ae_sext16	a15, a2
    9712:	7236f0                                    	salt	a3, a6, a15
    9715:	932930                                    	movnez	a2, a9, a3
    9718:	3a5c22                                    	s16i	a2, a12, 116
    971b:	daf621                                    	l32r	a2, 2f4 (6090 <take_min_four>)
    971e:	0002e0                                    	callx8	a2
    9721:	da8831                                    	l32r	a3, 144 (b540 <immediate_num>)
    9724:	0abd                                    	mov.n	a11, a10
    9726:	182422                                    	l32i	a2, a4, 96
    9729:	20c3c2                                    	addi	a12, a3, 32
    972c:	daa131                                    	l32r	a3, 1b0 (890 <siir_safr>)
    972f:	02ad                                    	mov.n	a10, a2
    9731:	0003e0                                    	callx8	a3
    9734:	04cd                                    	mov.n	a12, a4
    9736:	1864a2                                    	s32i	a10, a4, 96
    9739:	000186                                    	j	9743 <beam2_proc+0x33f>

0000973c <beam2_proc+0x338>:
    973c:	00000000                                ....

00009740 <beam2_proc+0x33c>:
    9740:	1b6c22                                    	s32i	a2, a12, 108
    9743:	1a2c22                                    	l32i	a2, a12, 104
    9746:	130c                                    	movi.n	a3, 1
    9748:	7148                                    	l32i.n	a4, a1, 28
    974a:	10d332                                    	addmi	a3, a3, 0x1000
    974d:	b63c                                    	movi.n	a6, 59
    974f:	ff3c                                    	movi.n	a15, 63
    9751:	d7a052                                    	movi	a5, 215
    9754:	02a237                                    	bge	a2, a3, 975a <beam2_proc+0x356>
    9757:	002b46                                    	j	9808 <beam2_proc+0x404>
    975a:	d33c                                    	movi.n	a3, 61
    975c:	1324e6                                    	bgei	a4, 2, 9773 <beam2_proc+0x36f>
    975f:	66a022                                    	movi	a2, 102
    9762:	113680                                    	slli	a3, a6, 8
    9765:	46d222                                    	addmi	a2, a2, 0x4600
    9768:	27068f4004a4f32e                  	{ ae_cvtp24a16x2.ll	aed0, a3, a2; slli	a2, a15, 9 }
    9770:	000346                                    	j	9781 <beam2_proc+0x37d>

00009773 <beam2_proc+0x36f>:
    9773:	4ad332                                    	addmi	a3, a3, 0x4a00
    9776:	43d542                                    	addmi	a4, a5, 0x4300
    9779:	03030c4004aee43e                  	{ ae_cvtp24a16x2.ll	aed0, a4, a3; l16si	a2, a12, 112 }
    9781:	2f9c42                                    	l16si	a4, a12, 94
    9784:	000000c604810c3e                  	{ l32i	a3, a12, 96; ae_sel16i	aed1, aed0, aed0, 1 }
    978c:	2007434210820e3e                  	{ movi	a3, 174; ae_cvt48a32	aed2, a3 }
    9794:	2283531b3441b13e                  	{ nop; nop; ae_mulf48q32sp16s.l	aed3, aed2, aed1 }
    979c:	228313022440f41e                  	{ slli	a15, a4, 15; nop; ae_mulf48q32sp16s.l	aed0, aed2, aed0 }
    97a4:	21072f4318e1647e                  	{ nop; ae_cvt48a32	aed1, a15 }
    97ac:	0ead057b08c40cd0c50081380801043f 	{ ae_lt64	b0, aed3, aed1; nop; nop; nop }
    97bc:	0ead057b08c40cd0c40081380401141f 	{ ae_le64	b1, aed1, aed0; nop; nop; nop }
    97cc:	380076                                    	bf	b0, 9808 <beam2_proc+0x404>
    97cf:	020176                                    	bf	b1, 97d5 <beam2_proc+0x3d1>
    97d2:	7fd322                                    	addmi	a2, a3, 0x7f00
    97d5:	0304084004a0f22e                  	{ ae_cvtp24a16x2.ll	aed0, a2, a2; movi	a3, 8 }
    97dd:	0302a74008c1007e                  	{ ae_l32f24.i	aed1, a7, 0; addi	a2, a7, 4 }
    97e5:	1f8376                                    	loop	a3, 9808 <beam2_proc+0x404>
    97e8:	22828a1220011f2e                  	{ ae_l32f24.ip	aed1, a2, -4; nop; ae_mulf32s.ll	aed2, aed0, aed1 }
    97f0:	0ead057b08e40cd0c48081381401e22f 	{ ae_round24x2f48sasym	aed2, aed2, aed2; nop; nop; nop }
    9800:	220760c010c5722e                  	{ ae_s32f24.l.ip	aed2, a2, 8; nop }

00009808 <beam2_proc+0x404>:
    9808:	f01d                                    	retw.n

0000980a <beam2_proc+0x406>:
	...

0000980c <beam1_mid_band>:
    980c:	006136                                    	entry	a1, 48
    980f:	879232                                    	l16si	a3, a2, 0x10e
    9812:	a50c                                    	movi.n	a5, 10
    9814:	0c0700451480e24e                  	{ l32i	a4, a2, 0x3d8; ae_movi	aed0, 0 }
    981c:	5d13a6                                    	blti	a3, 1, 987d <beam1_mid_band+0x71>
    981f:	230760c00c85b04e                  	{ ae_l16x2m.i	aed1, a4, 0; nop }
    9827:	0020f0                                    	nop
    982a:	0020f0                                    	nop
    982d:	078576                                    	loop	a5, 9838 <beam1_mid_band+0x2c>
    9830:	1c823a053821114e                  	{ ae_l16x2m.iu	aed1, a4, 4; nop; ae_mulaafd32s.hh.ll	aed0, aed1, aed1 }

00009838 <beam1_mid_band+0x2c>:
    9838:	0e6ce17005381550060001380001014f 	{ movi	a4, 1; movi	a5, 1; nop; ae_srai64	aed0, aed0, 2 }
    9848:	0eace170052026d0c4004138000101af 	{ movi	a10, 1; movi	a6, 2; nop; ae_roundsq32f48asym	aed0, aed0 }
    9858:	0ead6565a52645d0c400813b0c01670f 	{ ae_trunca32q48	a7, aed0; slli	a4, a4, 11; nop; nop }
    9868:	015570                                    	slli	a5, a5, 25
    986b:	01aab0                                    	slli	a10, a10, 21
    986e:	726630                                    	salt	a6, a6, a3
    9871:	53b740                                    	max	a11, a7, a4
    9874:	da3641                                    	l32r	a4, 14c (7270 <airoha_divide>)
    9877:	93a560                                    	movnez	a10, a5, a6
    987a:	0004e0                                    	callx8	a4

0000987d <beam1_mid_band+0x71>:
    987d:	e0a3d2                                    	movi	a13, 0x3e0
    9880:	f62252                                    	l32i	a5, a2, 0x3d8
    9883:	e8a342                                    	movi	a4, 0x3e8
    9886:	f522e2                                    	l32i	a14, a2, 0x3d4
    9889:	08a472                                    	movi	a7, 0x408
    988c:	f72262                                    	l32i	a6, a2, 0x3dc
    988f:	c24a                                    	add.n	a12, a2, a4
    9891:	427a                                    	add.n	a4, a2, a7
    9893:	21076b400c80e2de                  	{ ae_l16x2m.xu	aed1, a13, a2; ae_cvt48a32	aed0, a11 }
    989b:	f3f6c0                                    	wur.ae_cbegin0	a12
    989e:	31d9                                    	s32i.n	a13, a1, 12
    98a0:	fcc5c2                                    	addi	a12, a5, -4
    98a3:	fcced2                                    	addi	a13, a14, -4
    98a6:	080c                                    	movi.n	a8, 0
    98a8:	490c                                    	movi.n	a9, 4
    98aa:	8b0c                                    	movi.n	a11, 8
    98ac:	f3f740                                    	wur.ae_cend0	a4
    98af:	205440                                    	or	a5, a4, a4
    98b2:	fecee2                                    	addi	a14, a14, -2
    98b5:	3406f540148bd1ce                  	{ ae_l16x2m.iu	aed2, a12, 4; or	a15, a5, a5 }
    98bd:	0e6d357b0d2c0c20840421391001a16f 	{ ae_s16x2m.xc	aed2, a6, a9; nop; nop; ae_cvtq56p32s.h	aed2, aed1 }
    98cd:	100455c008e3012e                  	{ ae_cvtq56p32s.l	aed1, aed1; ae_l16x2m.i	aed3, a5, 0 }
    98d5:	178b76                                    	loop	a11, 98f0 <beam1_mid_band+0xe4>
    98d8:	220760c10485f96e                  	{ ae_l16x2m.xc	aed4, a6, a9; nop }
    98e0:	0e1d255b0d250c1e45af4f080083c1ff 	{ ae_l16x2m.iu	aed3, a15, 4; nop; ae_mulasfd32s.hl.lh	aed1, aed4, aed3; ae_mulssfd32s.hh.ll	aed2, aed3, aed4 }

000098f0 <beam1_mid_band+0xe4>:
    98f0:	0eace1670452f5e8c20841380401708f 	{ extui	a7, a8, 0, 1; addi	a5, a15, -32; nop; ae_roundsp16q48x2asym	aed2, aed2, aed2 }
    9900:	0e9ce2970c4bd1e8c30c2e11040281ef 	{ ae_s16m.l.iu	aed2, a14, 2; ae_l16x2m.iu	aed1, a13, 4; ae_mulf48q32sp16s.l	aed2, aed0, aed2; ae_roundsp16q48x2asym	aed3, aed1, aed1 }
    9910:	2282b31f300331ee                  	{ ae_s16m.l.iu	aed3, a14, 2; nop; ae_mulf48q32sp16s.l	aed3, aed0, aed3 }
    9918:	0213e6                                    	bgei	a3, 1, 991e <beam1_mid_band+0x112>
    991b:	002306                                    	j	99ab <beam1_mid_band+0x19f>
    991e:	089756                                    	bnez	a7, 99ab <beam1_mid_band+0x19f>
    9921:	220700c010a59a2e                  	{ ae_slaasq56s	aed2, aed2, a10; nop }
    9929:	0ead217b09140c98c38841381c01fa3f 	{ ae_slaasq56s	aed3, aed3, a10; nop; nop; ae_round24x2f48sasym	aed2, aed2, aed2 }
    9939:	0ead057b08e40cd0c48081381c01e33f 	{ ae_round24x2f48sasym	aed3, aed3, aed3; nop; nop; nop }
    9949:	070071401c82a8fe                  	{ ae_l16x2m.i	aed3, a15, -32; ae_sel16i	aed2, aed2, aed3, 2 }
    9951:	fec5f2                                    	addi	a15, a5, -2
    9954:	0020f0                                    	nop
    9957:	0020f0                                    	nop
    995a:	0020f0                                    	nop
    995d:	478b76                                    	loop	a11, 99a8 <beam1_mid_band+0x19c>
    9960:	0e6cf5702d366921840c213c1801496f 	{ ae_cvtq56p32s.h	aed4, aed3; ae_l16x2m.xc	aed5, a6, a9; nop; ae_cvtq56p32s.l	aed6, aed3 }
    9970:	0e1d255b0d2d0c1609ab2f300045c15f 	{ ae_l16x2m.iu	aed3, a5, 4; nop; ae_mulasfd32s.hl.lh	aed6, aed2, aed5; ae_mulaafd32s.hh.ll	aed4, aed2, aed5 }
    9980:	0ead257b0d440ce8c31081380c01015f 	{ nop; nop; nop; ae_roundsp16q48x2asym	aed4, aed4, aed4 }
    9990:	0ead257b0c550ce8c37cc139040105ff 	{ ae_s16m.l.iu	aed4, a15, 2; nop; nop; ae_roundsp16q48x2asym	aed31, aed6, aed6 }
    99a0:	230740c71cc511fe                  	{ ae_s16m.l.iu	aed31, a15, 2; nop }
    99a8:	e0c552                                    	addi	a5, a5, -32

000099ab <beam1_mid_band+0x19f>:
    99ab:	881b                                    	addi.n	a8, a8, 1
    99ad:	029826                                    	beqi	a8, 10, 99b3 <beam1_mid_band+0x1a7>
    99b0:	ffc046                                    	j	98b5 <beam1_mid_band+0xa9>
    99b3:	3178                                    	l32i.n	a7, a1, 12
    99b5:	830c                                    	movi.n	a3, 8
    99b7:	0d0740400cc0407e                  	{ ae_s16x2m.i	aed1, a7, 0; ae_movi	aed0, 0 }
    99bf:	110435c51881e26e                  	{ s32i	a6, a2, 0x3dc; ae_l16x2m.i	aed1, a5, 0 }
    99c7:	0020f0                                    	nop
    99ca:	0020f0                                    	nop
    99cd:	078376                                    	loop	a3, 99d8 <beam1_mid_band+0x1cc>
    99d0:	1c823a053821115e                  	{ ae_l16x2m.iu	aed1, a5, 4; nop; ae_mulaafd32s.hh.ll	aed0, aed1, aed1 }

000099d8 <beam1_mid_band+0x1cc>:
    99d8:	0e6ce160347c2550060001391c01026f 	{ addmi	a6, a2, 0x300; l16si	a5, a2, 12; nop; ae_srai64	aed0, aed0, 2 }
    99e8:	0eace172052089e8c20001380001f68f 	{ movi	a8, 250; movi	a9, 0x408; nop; ae_roundsp16q48x2asym	aed0, aed0, aed0 }
    99f8:	2b02984000ffcb3e                  	{ ae_trunca16p24s.l	a3, aed0; addmi	a10, a8, 0x7e00 }
    9a00:	725632                                    	s16i	a3, a6, 228
    9a03:	1b04004004a0faae                  	{ ae_cvtp24a16x2.ll	aed0, a10, a10; movi	a11, 16 }
    9a0b:	837d                                    	ae_sext16	a7, a3
    9a0d:	2fa577                                    	bge	a5, a7, 9a40 <beam1_mid_band+0x234>
    9a10:	220760c00c85992e                  	{ ae_l16m.x	aed1, a2, a9; nop }
    9a18:	0020f0                                    	nop
    9a1b:	f03d                                    	nop.n
    9a1d:	1f8b76                                    	loop	a11, 9a40 <beam1_mid_band+0x234>
    9a20:	22822a142801114e                  	{ ae_l16m.iu	aed1, a4, 2; nop; ae_mulf32s.ll	aed2, aed0, aed1 }
    9a28:	0ead217b0d540ce8c30841380c01015f 	{ nop; nop; nop; ae_roundsp16q48x2asym	aed2, aed2, aed2 }
    9a38:	220740c014c51f4e                  	{ ae_s16m.l.i	aed2, a4, -2; nop }

00009a40 <beam1_mid_band+0x234>:
    9a40:	f01d                                    	retw.n

00009a42 <beam1_mid_band+0x236>:
	...

00009a44 <beam2_mid_band>:
    9a44:	00e136                                    	entry	a1, 112
    9a47:	03d272                                    	addmi	a7, a2, 0x300
    9a4a:	d0a352                                    	movi	a5, 0x3d0
    9a4d:	989782                                    	l16si	a8, a7, 0x130
    9a50:	90a062                                    	movi	a6, 144
    9a53:	b25a                                    	add.n	a11, a2, a5
    9a55:	4d2792                                    	l32i	a9, a7, 0x134
    9a58:	5b6a                                    	add.n	a5, a11, a6
    9a5a:	8792e2                                    	l16si	a14, a2, 0x10e
    9a5d:	f3f650                                    	wur.ae_cbegin0	a5
    9a60:	118810                                    	slli	a8, a8, 15
    9a63:	b0a0a2                                    	movi	a10, 176
    9a66:	f52232                                    	l32i	a3, a2, 0x3d4
    9a69:	4a2772                                    	l32i	a7, a7, 0x128
    9a6c:	f62242                                    	l32i	a4, a2, 0x3d8
    9a6f:	02dd                                    	mov.n	a13, a2
    9a71:	f42252                                    	l32i	a5, a2, 0x3d0
    9a74:	5ccb22                                    	addi	a2, a11, 92
    9a77:	726980                                    	salt	a6, a9, a8
    9a7a:	9baa                                    	add.n	a9, a11, a10
    9a7c:	6c1c                                    	movi.n	a12, 22
    9a7e:	8f1c                                    	movi.n	a15, 24
    9a80:	7199                                    	s32i.n	a9, a1, 28
    9a82:	0ead                                    	mov.n	a10, a14
    9a84:	f3f790                                    	wur.ae_cend0	a9
    9a87:	110432c30085012e                  	{ s32i	a2, a1, 48; ae_l16x2m.i	aed5, a2, 0 }
    9a8f:	190c                                    	movi.n	a9, 1
    9a91:	071ee6                                    	bgei	a14, 1, 9a9c <beam2_mid_band+0x58>
    9a94:	8a1d22                                    	l16ui	a2, a13, 0x114
    9a97:	190c                                    	movi.n	a9, 1
    9a99:	629290                                    	saltu	a9, a2, a9

00009a9c <beam2_mid_band+0x58>:
    9a9c:	58cb22                                    	addi	a2, a11, 88
    9a9f:	93fc60                                    	movnez	a15, a12, a6
    9aa2:	6129                                    	s32i.n	a2, a1, 24
    9aa4:	fcc582                                    	addi	a8, a5, -4
    9aa7:	fcc362                                    	addi	a6, a3, -4
    9aaa:	04ddc2                                    	addmi	a12, a13, 0x400
    9aad:	2a2b                                    	addi.n	a2, a10, 2
    9aaf:	837c                                    	movi.n	a3, -8
    9ab1:	a57c                                    	movi.n	a5, -6
    9ab3:	8189                                    	s32i.n	a8, a1, 32
    9ab5:	b1c9                                    	s32i.n	a12, a1, 44
    9ab7:	935320                                    	movnez	a5, a3, a2
    9aba:	c87c                                    	movi.n	a8, -4
    9abc:	0acd                                    	mov.n	a12, a10
    9abe:	e37c                                    	movi.n	a3, -2
    9ac0:	93c820                                    	movnez	a12, a8, a2
    9ac3:	d1a9                                    	s32i.n	a10, a1, 52
    9ac5:	fcc4e2                                    	addi	a14, a4, -4
    9ac8:	72aa30                                    	salt	a10, a10, a3
    9acb:	b87c                                    	movi.n	a8, -5
    9acd:	040c                                    	movi.n	a4, 0
    9acf:	8385a0                                    	moveqz	a8, a5, a10
    9ad2:	93c4a0                                    	movnez	a12, a4, a10
    9ad5:	e189                                    	s32i.n	a8, a1, 56
    9ad7:	0b8d                                    	mov.n	a8, a11
    9ad9:	f1c9                                    	s32i.n	a12, a1, 60
    9adb:	60c842                                    	addi	a4, a8, 96
    9ade:	7138                                    	l32i.n	a3, a1, 28
    9ae0:	0d0740400ca24c0e                  	{ ae_movi	aed1, 0; ae_movi	aed2, 0 }
    9ae8:	420c                                    	movi.n	a2, 4
    9aea:	81c8                                    	l32i.n	a12, a1, 32
    9aec:	a189                                    	s32i.n	a8, a1, 40
    9aee:	050c                                    	movi.n	a5, 0
    9af0:	9149                                    	s32i.n	a4, a1, 36
    9af2:	880c                                    	movi.n	a8, 8
    9af4:	1161d2                                    	s32i	a13, a1, 68
    9af7:	106192                                    	s32i	a9, a1, 64
    9afa:	0063c6                                    	j	9c8d <beam2_mid_band+0x249>

00009afd <beam2_mid_band+0xb9>:
    9afd:	000000                                        ...

00009b00 <beam2_mid_band+0xbc>:
    9b00:	080c                                    	movi.n	a8, 0
    9b02:	0ead217b0c6d0cd0c400013a0401843f 	{ addi	a3, a4, -32; nop; nop; ae_roundsp16f24asym	aed0, aed1 }
    9b12:	220740c004c571ce                  	{ ae_s16x2m.iu	aed0, a12, 4; nop }
    9b1a:	15d956                                    	bnez	a9, 9c7b <beam2_mid_band+0x237>
    9b1d:	025526                                    	beqi	a5, 5, 9b23 <beam2_mid_band+0xdf>
    9b20:	0c4556                                    	bnez	a5, 9be8 <beam2_mid_band+0x1a4>
    9b23:	0304a744108001ee                  	{ s32i	a14, a1, 72; ae_l16x2m.xc	aed0, a7, a2 }
    9b2b:	0c0760400c80e27e                  	{ ae_l16x2m.xc	aed1, a7, a2; ae_movi	aed0, 0 }
    9b33:	4e0c                                    	movi.n	a14, 4
    9b35:	0204874108e18b1e                  	{ ae_s64.i	aed5, a1, 16; ae_l16x2m.xc	aed1, a7, a2 }
    9b3d:	0304a742008101ce                  	{ s32i	a12, a1, 32; ae_l16x2m.xc	aed1, a7, a2 }
    9b45:	1c821a002421316e                  	{ s32i	a6, a1, 76; nop; ae_mulaafd32s.hh.ll	aed0, aed1, aed1 }
    9b4d:	0f8e76                                    	loop	a14, 9b60 <beam2_mid_band+0x11c>
    9b50:	220760c00c85f27e                  	{ ae_l16x2m.xc	aed1, a7, a2; nop }
    9b58:	1c835a033421b13e                  	{ nop; nop; ae_mulaafd32s.hh.ll	aed0, aed1, aed1 }

00009b60 <beam2_mid_band+0x11c>:
    9b60:	0e6ce17005381c50068001380001706f 	{ movi	a6, 0x438; movi	a12, 1; nop; ae_srai64	aed0, aed0, 2 }
    9b70:	2a03a14008c386de                  	{ ae_l32m.x	aed1, a13, a6; l32i	a10, a1, 56 }
    9b78:	0ea56005e467c5d0c500410005611d9f 	{ l16si	a9, a13, 0x108; slli	a12, a12, 11; ae_add64	aed1, aed1, aed0; ae_roundsq32f48asym	aed0, aed0 }
    9b88:	0eace177fd29ced0c5844139080112df 	{ ae_s32m.x	aed0, a13, a6; movi	a14, -4; nop; ae_roundsq32f48asym	aed1, aed1 }
    9b98:	0eace5685d241dd0c400813b0c016b1f 	{ ae_trunca32q48	a11, aed1; l32i	a13, a1, 44; nop; nop }
    9ba8:	0f6d                                    	mov.n	a6, a15
    9baa:	72cbc0                                    	salt	a12, a11, a12
    9bad:	fdb9                                    	s32i.n	a11, a13, 60
    9baf:	93aec0                                    	movnez	a10, a14, a12
    9bb2:	0e0c                                    	movi.n	a14, 0
    9bb4:	729e90                                    	salt	a9, a14, a9
    9bb7:	f1e8                                    	l32i.n	a14, a1, 60
    9bb9:	83ae90                                    	moveqz	a10, a14, a9
    9bbc:	1e0c                                    	movi.n	a14, 1
    9bbe:	9faa                                    	add.n	a9, a15, a10
    9bc0:	fec9a2                                    	addi	a10, a9, -2
    9bc3:	83a980                                    	moveqz	a10, a9, a8
    9bc6:	d96181                                    	l32r	a8, 14c (7270 <airoha_divide>)
    9bc9:	401a00                                    	ssl	a10
    9bcc:	a1ae00                                    	sll	a10, a14
    9bcf:	0008e0                                    	callx8	a8
    9bd2:	06fd                                    	mov.n	a15, a6
    9bd4:	1121d2                                    	l32i	a13, a1, 68
    9bd7:	220581440485019e                  	{ l32i	a9, a1, 64; ae_l64.i	aed5, a1, 16 }
    9bdf:	132162                                    	l32i	a6, a1, 76
    9be2:	1221e2                                    	l32i	a14, a1, 72
    9be5:	0821c2                                    	l32i	a12, a1, 32

00009be8 <beam2_mid_band+0x1a4>:
    9be8:	21076b400481a0ce                  	{ ae_l16x2m.i	aed0, a12, 0; ae_cvt48a32	aed1, a11 }
    9bf0:	228113003020400e                  	{ ae_sel16i	aed2, aed0, aed0, 1; nop; ae_mulf48q32sp16s.l	aed0, aed1, aed0 }
    9bf8:	2282330a2022088e                  	{ movi	a8, 8; nop; ae_mulf48q32sp16s.l	aed1, aed1, aed2 }
    9c00:	220700c010a51a0e                  	{ ae_slaasq56s	aed0, aed0, a10; nop }
    9c08:	0ead217b09040c98c38001381c017a1f 	{ ae_slaasq56s	aed1, aed1, a10; nop; nop; ae_round24x2f48sasym	aed0, aed0, aed0 }
    9c18:	0eace167f52b3498c2fc21380801604f 	{ ae_l16x2m.i	aed1, a4, -32; addi	a4, a3, -2; nop; ae_round24x2f48sasym	aed31, aed1, aed1 }
    9c28:	01005f4300a0580e                  	{ loop	a8, 9c78 <beam2_mid_band+0x234>; ae_sel16i	aed0, aed31, aed0, 2 }
    9c30:	0e6cf5701d3672210404213c0801296f 	{ ae_cvtq56p32s.h	aed2, aed1; ae_l16x2m.xc	aed3, a7, a2; nop; ae_cvtq56p32s.l	aed4, aed1 }
    9c40:	0e1d215b0d3d0c0605ab2f200003413f 	{ ae_l16x2m.iu	aed1, a3, 4; nop; ae_mulasfd32s.hl.lh	aed4, aed0, aed3; ae_mulaafd32s.hh.ll	aed2, aed0, aed3 }
    9c50:	0ead217b0d540ce8c30841380c01015f 	{ nop; nop; nop; ae_roundsp16q48x2asym	aed2, aed2, aed2 }
    9c60:	0ead257b0c450ce8c37c81390401814f 	{ ae_s16m.l.iu	aed2, a4, 2; nop; nop; ae_roundsp16q48x2asym	aed31, aed4, aed4 }
    9c70:	230740c71cc5114e                  	{ ae_s16m.l.iu	aed31, a4, 2; nop }

00009c78 <beam2_mid_band+0x234>:
    9c78:	e0c332                                    	addi	a3, a3, -32

00009c7b <beam2_mid_band+0x237>:
    9c7b:	551b                                    	addi.n	a5, a5, 1
    9c7d:	880c                                    	movi.n	a8, 8
    9c7f:	0d0740400ca24c0e                  	{ ae_movi	aed1, 0; ae_movi	aed2, 0 }
    9c87:	029566                                    	bnei	a5, 10, 9c8d <beam2_mid_band+0x249>
    9c8a:	002846                                    	j	9d2f <beam2_mid_band+0x2eb>
    9c8d:	0206f3400489d16e                  	{ ae_l16x2m.iu	aed0, a6, 4; or	a4, a3, a3 }
    9c95:	1c07424004c0927e                  	{ ae_s16x2m.xc	aed0, a7, a2; ae_mov	aed0, aed5 }
    9c9d:	110453c700a3080e                  	{ loop	a8, 9cbd <beam2_mid_band+0x279>; ae_l16x2m.i	aed3, a3, 0 }
    9ca5:	220760c10485f27e                  	{ ae_l16x2m.xc	aed4, a7, a2; nop }
    9cad:	0e1527fb0d250c18c5ab78080064c14f 	{ ae_l16x2m.iu	aed3, a4, 4; nop; ae_mulaafd32s.hh.ll	aed1, aed3, aed4; ae_mulasfd32s.hl.lh	aed2, aed3, aed4 }

00009cbd <beam2_mid_band+0x279>:
    9cbd:	0e9cc0d728eae198c28438f81400e22f 	{ ae_round24x2f48sasym	aed2, aed2, aed2; ae_l16x2m.iu	aed5, a14, 4; ae_mulzaafd32s.hh.ll	aed31, aed0, aed0; ae_round24x2f48sasym	aed1, aed1, aed1 }
    9ccd:	040050c00081118e                  	{ movi	a8, 1; ae_sel16i	aed1, aed1, aed2, 3 }
    9cd5:	0ead057b08e40cd0c58081380801220f 	{ ae_sub24s	aed2, aed0, aed1; nop; nop; nop }
    9ce5:	0ead057b08e40cd0c58081380801212f 	{ ae_sub24s	aed1, aed2, aed1; nop; nop; nop }
    9cf5:	0ead217b0d4c0cd0c50401380c01015f 	{ nop; nop; nop; ae_roundsp16f24asym	aed1, aed1 }
    9d05:	2a83591b3421b13e                  	{ nop; nop; ae_mulzaafd32s.hh.ll	aed3, aed1, aed1 }
    9d0d:	0ead057b08c50cd0c5008138180104ff 	{ ae_lt64	b0, aed31, aed3; nop; nop; nop }
    9d1d:	021076                                    	bt	b0, 9d23 <beam2_mid_band+0x2df>
    9d20:	ff7706                                    	j	9b00 <beam2_mid_band+0xbc>
    9d23:	220740c008e5126e                  	{ ae_mov	aed1, aed2; nop }
    9d2b:	ff74c6                                    	j	9b02 <beam2_mid_band+0xbe>

00009d2e <beam2_mid_band+0x2ea>:
	...

00009d2f <beam2_mid_band+0x2eb>:
    9d2f:	6188                                    	l32i.n	a8, a1, 24
    9d31:	c128                                    	l32i.n	a2, a1, 48
    9d33:	a168                                    	l32i.n	a6, a1, 40
    9d35:	0c0740421881005e                  	{ movi	a5, 176; ae_movi	aed1, 0 }
    9d3d:	830c                                    	movi.n	a3, 8
    9d3f:	0879                                    	s32i.n	a7, a8, 0
    9d41:	7178                                    	l32i.n	a7, a1, 28
    9d43:	350456c10cc0502e                  	{ ae_s16x2m.i	aed5, a2, 0; ae_l16x2m.x	aed0, a6, a5 }
    9d4b:	072d                                    	mov.n	a2, a7
    9d4d:	078376                                    	loop	a3, 9d58 <beam2_mid_band+0x314>
    9d50:	1c823a0d3800012e                  	{ ae_l16x2m.iu	aed0, a2, 4; nop; ae_mulaafd32s.hh.ll	aed1, aed0, aed0 }

00009d58 <beam2_mid_band+0x314>:
    9d58:	0e6cc16869fc1350070021380c01219f 	{ l32i	a9, a1, 36; l32i	a3, a1, 52; nop; ae_srai64	aed0, aed1, 2 }
    9d68:	0ead217b0d240ce8c380013a0801fd2f 	{ movi	a2, -3; nop; nop; ae_roundsp16q48x2asym	aed0, aed0, aed0 }
    9d78:	220740c004c5109e                  	{ ae_s16m.l.i	aed0, a9, 0; nop }
    9d80:	02a237                                    	bge	a2, a3, 9d86 <beam2_mid_band+0x342>
    9d83:	002306                                    	j	9e13 <beam2_mid_band+0x3cf>
    9d86:	841d22                                    	l16ui	a2, a13, 0x108
    9d89:	44cda2                                    	addi	a10, a13, 68
    9d8c:	29bd                                    	ae_l16si.n	a11, a9, 0
    9d8e:	44cde2                                    	addi	a14, a13, 68
    9d91:	07e256                                    	bnez	a2, 9e13 <beam2_mid_band+0x3cf>
    9d94:	04dd22                                    	addmi	a2, a13, 0x400
    9d97:	48a4c2                                    	movi	a12, 0x448
    9d9a:	229232                                    	l16si	a3, a2, 68
    9d9d:	331b                                    	addi.n	a3, a3, 1
    9d9f:	834d                                    	ae_sext16	a4, a3
    9da1:	225232                                    	s16i	a3, a2, 68
    9da4:	030c                                    	movi.n	a3, 0
    9da6:	bf0c                                    	movi.n	a15, 11
    9da8:	5fc4a6                                    	blti	a4, 32, 9e0b <beam2_mid_band+0x3c7>
    9dab:	ff2e62                                    	l32i	a6, a14, 0x3fc
    9dae:	04dd52                                    	addmi	a5, a13, 0x400
    9db1:	239582                                    	l16si	a8, a5, 70
    9db4:	adca                                    	add.n	a10, a13, a12
    9db6:	297d                                    	ae_l16si.n	a7, a9, 0
    9db8:	225232                                    	s16i	a3, a2, 68
    9dbb:	10c6b2                                    	addi	a11, a6, 16
    9dbe:	ff6e72                                    	s32i	a7, a14, 0x3fc
    9dc1:	90c8a0                                    	addx2	a12, a8, a10
    9dc4:	4125b0                                    	srli	a2, a11, 5
    9dc7:	6c2d                                    	ae_s16i.n	a2, a12, 0
    9dc9:	7178                                    	l32i.n	a7, a1, 28
    9dcb:	239522                                    	l16si	a2, a5, 70
    9dce:	cb0c                                    	movi.n	a11, 12
    9dd0:	221b                                    	addi.n	a2, a2, 1
    9dd2:	82ed                                    	ae_sext16	a14, a2
    9dd4:	726fe0                                    	salt	a6, a15, a14
    9dd7:	932360                                    	movnez	a2, a3, a6
    9dda:	0d3d                                    	mov.n	a3, a13
    9ddc:	235522                                    	s16i	a2, a5, 70
    9ddf:	b0a052                                    	movi	a5, 176
    9de2:	d94421                                    	l32r	a2, 2f4 (6090 <take_min_four>)
    9de5:	0002e0                                    	callx8	a2
    9de8:	6128                                    	l32i.n	a2, a1, 24
    9dea:	0abd                                    	mov.n	a11, a10
    9dec:	d8d6f1                                    	l32r	a15, 144 (b540 <immediate_num>)
    9def:	3298                                    	l32i.n	a9, a2, 12
    9df1:	d8ef21                                    	l32r	a2, 1b0 (890 <siir_safr>)
    9df4:	20cfc2                                    	addi	a12, a15, 32
    9df7:	09ad                                    	mov.n	a10, a9
    9df9:	0002e0                                    	callx8	a2
    9dfc:	6128                                    	l32i.n	a2, a1, 24
    9dfe:	a168                                    	l32i.n	a6, a1, 40
    9e00:	03dd                                    	mov.n	a13, a3
    9e02:	9198                                    	l32i.n	a9, a1, 36
    9e04:	6188                                    	l32i.n	a8, a1, 24
    9e06:	32a9                                    	s32i.n	a10, a2, 12
    9e08:	0001c6                                    	j	9e13 <beam2_mid_band+0x3cf>

00009e0b <beam2_mid_band+0x3c7>:
    9e0b:	ff2a42                                    	l32i	a4, a10, 0x3fc
    9e0e:	34ba                                    	add.n	a3, a4, a11
    9e10:	ff6a32                                    	s32i	a3, a10, 0x3fc
    9e13:	b128                                    	l32i.n	a2, a1, 44
    9e15:	130c                                    	movi.n	a3, 1
    9e17:	da3c                                    	movi.n	a10, 61
    9e19:	10d332                                    	addmi	a3, a3, 0x1000
    9e1c:	1b0c                                    	movi.n	a11, 1
    9e1e:	f228                                    	l32i.n	a2, a2, 60
    9e20:	11eb20                                    	slli	a14, a11, 14
    9e23:	4adac2                                    	addmi	a12, a10, 0x4a00
    9e26:	02a237                                    	bge	a2, a3, 9e2c <beam2_mid_band+0x3e8>
    9e29:	0020c6                                    	j	9eb0 <beam2_mid_band+0x46c>
    9e2c:	020508400081194e                  	{ l16si	a4, a9, 0; ae_l32m.i	aed1, a8, 12 }
    9e34:	03029d4004a1eece                  	{ ae_cvtp24a16x2.ll	aed0, a14, a12; addmi	a2, a13, 0x400 }
    9e3c:	228113003020400e                  	{ ae_sel16i	aed2, aed0, aed0, 1; nop; ae_mulf48q32sp16s.l	aed0, aed1, aed0 }
    9e44:	2283131a2422f41e                  	{ slli	a15, a4, 15; nop; ae_mulf48q32sp16s.l	aed3, aed1, aed2 }
    9e4c:	20074f4210820e3e                  	{ movi	a3, 174; ae_cvt48a32	aed2, a15 }
    9e54:	0ead057b08c40cd0c50081381001043f 	{ ae_lt64	b0, aed3, aed2; nop; nop; nop }
    9e64:	0ead057b08c40cd0c50081381001140f 	{ ae_lt64	b1, aed0, aed2; nop; nop; nop }
    9e74:	380076                                    	bf	b0, 9eb0 <beam2_mid_band+0x46c>
    9e77:	050176                                    	bf	b1, 9e80 <beam2_mid_band+0x43c>
    9e7a:	191222                                    	l16ui	a2, a2, 50
    9e7d:	000086                                    	j	9e83 <beam2_mid_band+0x43f>

00009e80 <beam2_mid_band+0x43c>:
    9e80:	7fd322                                    	addmi	a2, a3, 0x7f00
    9e83:	0f1c                                    	movi.n	a15, 16
    9e85:	2504164004a1f22e                  	{ ae_cvtp24a16x2.ll	aed0, a2, a2; ae_l16m.x	aed1, a6, a5 }
    9e8d:	1f8f76                                    	loop	a15, 9eb0 <beam2_mid_band+0x46c>
    9e90:	22822a142801117e                  	{ ae_l16m.iu	aed1, a7, 2; nop; ae_mulf32s.ll	aed2, aed0, aed1 }
    9e98:	0ead217b0d540ce8c30841380c01015f 	{ nop; nop; nop; ae_roundsp16q48x2asym	aed2, aed2, aed2 }
    9ea8:	220740c014c51f7e                  	{ ae_s16m.l.i	aed2, a7, -2; nop }

00009eb0 <beam2_mid_band+0x46c>:
    9eb0:	f01d                                    	retw.n

00009eb2 <beam2_mid_band+0x46e>:
	...

00009ec0 <fill_vad_thrd_Nbands>:
    9ec0:	004136                                    	entry	a1, 32
    9ec3:	1914a6                                    	blti	a4, 1, 9ee0 <fill_vad_thrd_Nbands+0x20>
    9ec6:	944d                                    	ae_zext16	a4, a4
    9ec8:	148476                                    	loop	a4, 9ee0 <fill_vad_thrd_Nbands+0x20>
    9ecb:	234d                                    	ae_l16si.n	a4, a3, 0
    9ecd:	332b                                    	addi.n	a3, a3, 2
    9ecf:	745840                                    	extui	a5, a4, 8, 8
    9ed2:	b44d                                    	ae_zext8	a4, a4
    9ed4:	115590                                    	slli	a5, a5, 7
    9ed7:	114490                                    	slli	a4, a4, 7
    9eda:	625d                                    	ae_s16i.n	a5, a2, 0
    9edc:	724d                                    	ae_s16i.n	a4, a2, 2
    9ede:	224b                                    	addi.n	a2, a2, 4

00009ee0 <fill_vad_thrd_Nbands+0x20>:
    9ee0:	f01d                                    	retw.n

00009ee2 <fill_vad_thrd_Nbands+0x22>:
	...

00009ee4 <complement_para>:
    9ee4:	004136                                    	entry	a1, 32
    9ee7:	f47c                                    	movi.n	a4, -1
    9ee9:	623d                                    	ae_s16i.n	a3, a2, 0
    9eeb:	114410                                    	slli	a4, a4, 15
    9eee:	c0f430                                    	sub	a15, a4, a3
    9ef1:	72fd                                    	ae_s16i.n	a15, a2, 2
    9ef3:	f01d                                    	retw.n

00009ef5 <complement_para+0x11>:
    9ef5:	000000                                        ...

00009ef8 <common_noise_gen_init>:
    9ef8:	004136                                    	entry	a1, 32
    9efb:	4193e2                                    	l16si	a14, a3, 130
    9efe:	f67c                                    	movi.n	a6, -1
    9f00:	116610                                    	slli	a6, a6, 15
    9f03:	150c                                    	movi.n	a5, 1
    9f05:	4293c2                                    	l16si	a12, a3, 132
    9f08:	379382                                    	l16si	a8, a3, 110
    9f0b:	c066e0                                    	sub	a6, a6, a14
    9f0e:	3993d2                                    	l16si	a13, a3, 114
    9f11:	9aa0f2                                    	movi	a15, 154
    9f14:	470c                                    	movi.n	a7, 4
    9f16:	965252                                    	s16i	a5, a2, 0x12c
    9f19:	53fa                                    	add.n	a5, a3, a15
    9f1b:	775262                                    	s16i	a6, a2, 238
    9f1e:	08c262                                    	addi	a6, a2, 8
    9f21:	1252c2                                    	s16i	a12, a2, 36
    9f24:	025282                                    	s16i	a8, a2, 4
    9f27:	0352d2                                    	s16i	a13, a2, 6
    9f2a:	7652e2                                    	s16i	a14, a2, 236
    9f2d:	148776                                    	loop	a7, 9f45 <common_noise_gen_init+0x4d>
    9f30:	257d                                    	ae_l16si.n	a7, a5, 0
    9f32:	552b                                    	addi.n	a5, a5, 2
    9f34:	748870                                    	extui	a8, a7, 8, 8
    9f37:	b77d                                    	ae_zext8	a7, a7
    9f39:	118890                                    	slli	a8, a8, 7
    9f3c:	117790                                    	slli	a7, a7, 7
    9f3f:	668d                                    	ae_s16i.n	a8, a6, 0
    9f41:	767d                                    	ae_s16i.n	a7, a6, 2
    9f43:	664b                                    	addi.n	a6, a6, 4

00009f45 <common_noise_gen_init+0x4d>:
    9f45:	d49c                                    	beqz.n	a4, 9f66 <common_noise_gen_init+0x6e>
    9f47:	5e9332                                    	l16si	a3, a3, 188
    9f4a:	b35d                                    	ae_zext8	a5, a3
    9f4c:	115590                                    	slli	a5, a5, 7
    9f4f:	744830                                    	extui	a4, a3, 8, 8
    9f52:	0d5252                                    	s16i	a5, a2, 26
    9f55:	114490                                    	slli	a4, a4, 7
    9f58:	d90551                                    	l32r	a5, 36c (d8a0 <win_ns_swb>)
    9f5b:	eea032                                    	movi	a3, 238
    9f5e:	0c5242                                    	s16i	a4, a2, 24
    9f61:	940c                                    	movi.n	a4, 9
    9f63:	0001c6                                    	j	9f6e <common_noise_gen_init+0x76>

00009f66 <common_noise_gen_init+0x6e>:
    9f66:	d90051                                    	l32r	a5, 368 (d880 <win_ns>)
    9f69:	78a032                                    	movi	a3, 120
    9f6c:	740c                                    	movi.n	a4, 7
    9f6e:	426252                                    	s32i	a5, a2, 0x108
    9f71:	334242                                    	s8i	a4, a2, 51
    9f74:	175232                                    	s16i	a3, a2, 46
    9f77:	f01d                                    	retw.n

00009f79 <common_noise_gen_init+0x81>:
    9f79:	000000                                        ...

00009f7c <common_NR_init>:
    9f7c:	004136                                    	entry	a1, 32
    9f7f:	330252                                    	l8ui	a5, a2, 51
    9f82:	170c                                    	movi.n	a7, 1
    9f84:	980c                                    	movi.n	a8, 9
    9f86:	117750                                    	slli	a7, a7, 11
    9f89:	00a462                                    	movi	a6, 0x400
    9f8c:	b0a0c2                                    	movi	a12, 176
    9f8f:	628850                                    	saltu	a8, a8, a5
    9f92:	7a7c                                    	movi.n	a10, -9
    9f94:	936780                                    	movnez	a6, a7, a8
    9f97:	d278                                    	l32i.n	a7, a2, 52
    9f99:	791c                                    	movi.n	a9, 23
    9f9b:	15ac                                    	beqz.n	a5, 9fc0 <common_NR_init+0x44>
    9f9d:	018a50                                    	slli	a8, a10, 27
    9fa0:	119950                                    	slli	a9, a9, 11
    9fa3:	ca0c                                    	movi.n	a10, 12
    9fa5:	05bd                                    	mov.n	a11, a5
    9fa7:	c2ca                                    	add.n	a12, a2, a12
    9fa9:	07dd                                    	mov.n	a13, a7

00009fab <common_NR_init+0x2f>:
    9fab:	0c89                                    	s32i.n	a8, a12, 0
    9fad:	038a76                                    	loop	a10, 9fb4 <common_NR_init+0x38>
    9fb0:	6d9d                                    	ae_s16i.n	a9, a13, 0
    9fb2:	dd2b                                    	addi.n	a13, a13, 2

00009fb4 <common_NR_init+0x38>:
    9fb4:	bb0b                                    	addi.n	a11, a11, -1
    9fb6:	18c772                                    	addi	a7, a7, 24
    9fb9:	cc4b                                    	addi.n	a12, a12, 4
    9fbb:	07dd                                    	mov.n	a13, a7
    9fbd:	feab56                                    	bnez	a11, 9fab <common_NR_init+0x2f>

00009fc0 <common_NR_init+0x44>:
    9fc0:	f77c                                    	movi.n	a7, -1
    9fc2:	439382                                    	l16si	a8, a3, 134
    9fc5:	117710                                    	slli	a7, a7, 15
    9fc8:	6c5282                                    	s16i	a8, a2, 216
    9fcb:	1f0c                                    	movi.n	a15, 1
    9fcd:	6da0d2                                    	movi	a13, 109
    9fd0:	3042f2                                    	s8i	a15, a2, 48
    9fd3:	c08780                                    	sub	a8, a7, a8
    9fd6:	03f8                                    	l32i.n	a15, a3, 0
    9fd8:	6d5282                                    	s16i	a8, a2, 218
    9fdb:	4493a2                                    	l16si	a10, a3, 136
    9fde:	9552d2                                    	s16i	a13, a2, 0x12a
    9fe1:	6e52a2                                    	s16i	a10, a2, 220
    9fe4:	ffa792                                    	movi	a9, 0x7ff
    9fe7:	a066f0                                    	addx4	a6, a6, a15
    9fea:	00a1b2                                    	movi	a11, 0x100
    9fed:	c0c7a0                                    	sub	a12, a7, a10
    9ff0:	9e6c                                    	movi.n	a14, -23
    9ff2:	6f52c2                                    	s16i	a12, a2, 222
    9ff5:	11c5d0                                    	slli	a12, a5, 3
    9ff8:	459382                                    	l16si	a8, a3, 138
    9ffb:	c066c0                                    	sub	a6, a6, a12
    9ffe:	705282                                    	s16i	a8, a2, 224
    a001:	f4a0e0                                    	extui	a10, a14, 0, 16
    a004:	1452b2                                    	s16i	a11, a2, 40
    a007:	1199b0                                    	slli	a9, a9, 5
    a00a:	c08780                                    	sub	a8, a7, a8
    a00d:	d85fb1                                    	l32r	a11, 18c (7fff0000 <_end+0x7ffe2714>)
    a010:	715282                                    	s16i	a8, a2, 226
    a013:	a0e560                                    	addx4	a14, a5, a6
    a016:	469382                                    	l16si	a8, a3, 140
    a019:	02f9                                    	s32i.n	a15, a2, 0
    a01b:	725282                                    	s16i	a8, a2, 228
    a01e:	7b5292                                    	s16i	a9, a2, 246
    a021:	c08780                                    	sub	a8, a7, a8
    a024:	7952a2                                    	s16i	a10, a2, 242
    a027:	735282                                    	s16i	a8, a2, 230
    a02a:	4793d2                                    	l16si	a13, a3, 142
    a02d:	4862b2                                    	s32i	a11, a2, 0x120
    a030:	1712c2                                    	l16ui	a12, a2, 46
    a033:	7452d2                                    	s16i	a13, a2, 232
    a036:	452252                                    	l32i	a5, a2, 0x114
    a039:	4962b2                                    	s32i	a11, a2, 0x124
    a03c:	c077d0                                    	sub	a7, a7, a13
    a03f:	406262                                    	s32i	a6, a2, 0x100
    a042:	755272                                    	s16i	a7, a2, 234
    a045:	8d93f2                                    	l16si	a15, a3, 0x11a
    a048:	4162e2                                    	s32i	a14, a2, 0x104
    a04b:	130c                                    	movi.n	a3, 1
    a04d:	9452f2                                    	s16i	a15, a2, 0x128
    a050:	013320                                    	slli	a3, a3, 30
    a053:	0d2426                                    	beqi	a4, 2, a064 <common_NR_init+0xe8>
    a056:	0c4d                                    	mov.n	a4, a12
    a058:	8c8c                                    	beqz.n	a12, a064 <common_NR_init+0xe8>
    a05a:	202550                                    	or	a2, a5, a5
    a05d:	038476                                    	loop	a4, a064 <common_NR_init+0xe8>
    a060:	0239                                    	s32i.n	a3, a2, 0
    a062:	224b                                    	addi.n	a2, a2, 4

0000a064 <common_NR_init+0xe8>:
    a064:	f01d                                    	retw.n

0000a066 <common_NR_init+0xea>:
	...

0000a068 <get_post_ec_memsize>:
    a068:	004136                                    	entry	a1, 32
    a06b:	720c                                    	movi.n	a2, 7
    a06d:	112260                                    	slli	a2, a2, 10
    a070:	f01d                                    	retw.n

0000a072 <get_post_ec_memsize+0xa>:
	...

0000a074 <EXT_POST_EC_Init>:
    a074:	004136                                    	entry	a1, 32
    a077:	d82931                                    	l32r	a3, 11c (a5b0 <xt_memset>)
    a07a:	7c0c                                    	movi.n	a12, 7
    a07c:	11cc70                                    	slli	a12, a12, 9
    a07f:	0b0c                                    	movi.n	a11, 0
    a081:	02ad                                    	mov.n	a10, a2
    a083:	0003e0                                    	callx8	a3
    a086:	d7e731                                    	l32r	a3, 24 (a5c4 <xt_memcpy>)
    a089:	a28b                                    	addi.n	a10, a2, 8
    a08b:	2c1c                                    	movi.n	a12, 18
    a08d:	0abd                                    	mov.n	a11, a10
    a08f:	0003e0                                    	callx8	a3
    a092:	68c2a2                                    	addi	a10, a2, 104
    a095:	90a0c2                                    	movi	a12, 144
    a098:	04bd                                    	mov.n	a11, a4
    a09a:	b3a152                                    	movi	a5, 0x1b3
    a09d:	0003e0                                    	callx8	a3
    a0a0:	d87741                                    	l32r	a4, 27c (9ef8 <common_noise_gen_init>)
    a0a3:	18d232                                    	addmi	a3, a2, 0x1800
    a0a6:	0c0c                                    	movi.n	a12, 0
    a0a8:	03ad                                    	mov.n	a10, a3
    a0aa:	02bd                                    	mov.n	a11, a2
    a0ac:	0229                                    	s32i.n	a2, a2, 0
    a0ae:	0004e0                                    	callx8	a4
    a0b1:	b1a142                                    	movi	a4, 0x1b1
    a0b4:	93a162                                    	movi	a6, 0x193
    a0b7:	1144c0                                    	slli	a4, a4, 4
    a0ba:	b5a172                                    	movi	a7, 0x1b5
    a0bd:	19d282                                    	addmi	a8, a2, 0x1900
    a0c0:	1155c0                                    	slli	a5, a5, 4
    a0c3:	424a                                    	add.n	a4, a2, a4
    a0c5:	1166c0                                    	slli	a6, a6, 4
    a0c8:	3849                                    	s32i.n	a4, a8, 12
    a0ca:	1177c0                                    	slli	a7, a7, 4
    a0cd:	c25a                                    	add.n	a12, a2, a5
    a0cf:	d87241                                    	l32r	a4, 298 (9f7c <common_NR_init>)
    a0d2:	48c9                                    	s32i.n	a12, a8, 16
    a0d4:	d26a                                    	add.n	a13, a2, a6
    a0d6:	f27a                                    	add.n	a15, a2, a7
    a0d8:	0c0c                                    	movi.n	a12, 0
    a0da:	03ad                                    	mov.n	a10, a3
    a0dc:	02bd                                    	mov.n	a11, a2
    a0de:	58d9                                    	s32i.n	a13, a8, 20
    a0e0:	d3f9                                    	s32i.n	a15, a3, 52
    a0e2:	10d232                                    	addmi	a3, a2, 0x1000
    a0e5:	0004e0                                    	callx8	a4
    a0e8:	15d242                                    	addmi	a4, a2, 0x1500
    a0eb:	ffa0d2                                    	movi	a13, 255
    a0ee:	ff6432                                    	s32i	a3, a4, 0x3fc
    a0f1:	059252                                    	l16si	a5, a2, 10
    a0f4:	1bd2c2                                    	addmi	a12, a2, 0x1b00
    a0f7:	7fdd42                                    	addmi	a4, a13, 0x7f00
    a0fa:	9592f2                                    	l16si	a15, a2, 0x12a
    a0fd:	7d5c52                                    	s16i	a5, a12, 250
    a100:	7f5cf2                                    	s16i	a15, a12, 254
    a103:	7c5c42                                    	s16i	a4, a12, 248
    a106:	7e5c42                                    	s16i	a4, a12, 252
    a109:	f01d                                    	retw.n

0000a10b <EXT_POST_EC_Init+0x97>:
	...

0000a10c <aec_post_prcs>:
    a10c:	004136                                    	entry	a1, 32
    a10f:	0004524318821f8e                  	{ movi	a8, 255; ae_l16m.i	aed2, a2, 2 }
    a117:	010472471c60688e                  	{ addmi	a8, a8, 0x7f00; ae_l16m.i	aed0, a2, 0 }
    a11f:	3f040fc00cbff88e                  	{ ae_cvtp24a16x2.ll	aed1, a8, a8; movi	a15, -1 }
    a127:	22832a083841366e                  	{ ae_cvtp24a16x2.ll	aed3, a6, a6; nop; ae_mulf32s.ll	aed1, aed2, aed1 }
    a12f:	4189f0                                    	srli	a8, a15, 9
    a132:	0ea4c43009e002d0c50083040423026f 	{ s16i	a6, a2, 0; movi	a2, 16; ae_sub24s	aed3, aed3, aed0; nop }
    a142:	0eace17005292698c304213f0001288f 	{ ae_movda32x2	aed2, a8, a8; movi	a6, 2; nop; ae_round24x2f48sasym	aed1, aed1, aed1 }
    a152:	0e6ce567f46344e8c600613a1401f55f 	{ addi	a5, a5, -2; addi	a4, a4, -2; nop; ae_srai24	aed3, aed3, 4 }
    a162:	220760c10485703e                  	{ ae_l16m.i	aed4, a3, 0; nop }

0000a16a <aec_post_prcs+0x5e>:
    a16a:	0ead257b0d040cd0c48081381c01800f 	{ ae_add24s	aed0, aed0, aed3; nop; nop; nop }
    a17a:	7a17a6                                    	blti	a7, 1, a1f8 <aec_post_prcs+0xec>
    a17d:	0ead057b08e40cd0c58081380001312f 	{ ae_sub24s	aed5, aed2, aed0; nop; nop; nop }
    a18d:	22834a2b34a1b13e                  	{ nop; nop; ae_mulf32s.ll	aed5, aed5, aed1 }
    a195:	0ead257b0d4c0cd0c51441380c01015f 	{ nop; nop; nop; ae_roundsq32f48asym	aed5, aed5 }
    a1a5:	4f8776                                    	loop	a7, a1f8 <aec_post_prcs+0xec>
    a1a8:	22822a242804615e                  	{ ae_l16m.iu	aed6, a5, 2; nop; ae_mulf32s.ll	aed4, aed0, aed4 }
    a1b0:	2283533334a6b13e                  	{ nop; nop; ae_mulf48q32sp16s.l	aed6, aed5, aed6 }
    a1b8:	0ead257b0d440cd0c51041380c01015f 	{ nop; nop; nop; ae_roundsq32f48asym	aed4, aed4 }
    a1c8:	220700c304a5966e                  	{ ae_slaaq56	aed6, aed6, a6; nop }
    a1d0:	0ead257b0d040cd0c58081391401d04f 	{ ae_add64	aed4, aed4, aed6; nop; nop; nop }
    a1e0:	0ead257b0d250ce8c21881380801053f 	{ ae_l16m.iu	aed4, a3, 2; nop; nop; ae_roundsp16q48x2asym	aed6, aed4, aed4 }
    a1f0:	230740c114c5114e                  	{ ae_s16m.l.iu	aed6, a4, 2; nop }

0000a1f8 <aec_post_prcs+0xec>:
    a1f8:	220b                                    	addi.n	a2, a2, -1
    a1fa:	f6c256                                    	bnez	a2, a16a <aec_post_prcs+0x5e>
    a1fd:	f01d                                    	retw.n

0000a1ff <aec_post_prcs+0xf3>:
	...

0000a200 <ns_ifft_wo>:
    a200:	006136                                    	entry	a1, 48
    a203:	0258                                    	l32i.n	a5, a2, 0
    a205:	3302d2                                    	l8ui	a13, a2, 51
    a208:	d83481                                    	l32r	a8, 2d8 (cc80 <fftorder_1024_12b>)
    a20b:	070c                                    	movi.n	a7, 0
    a20d:	240c                                    	movi.n	a4, 2
    a20f:	00a292                                    	movi	a9, 0x200
    a212:	0b04404404a4784e                  	{ ae_movba2	b0:b1, a4; movi	a11, 0x100 }
    a21a:	1579                                    	s32i.n	a7, a5, 4
    a21c:	3f2242                                    	l32i	a4, a2, 252
    a21f:	0579                                    	s32i.n	a7, a5, 0
    a221:	4173d0                                    	srli	a7, a13, 3
    a224:	c84b                                    	addi.n	a12, a8, 4
    a226:	93b970                                    	movnez	a11, a9, a7
    a229:	888b                                    	addi.n	a8, a8, 8
    a22b:	4a0c                                    	movi.n	a10, 4
    a22d:	860c                                    	movi.n	a6, 8
    a22f:	4191b0                                    	srli	a9, a11, 1
    a232:	938c70                                    	movnez	a8, a12, a7
    a235:	2706ba4004a5b94e                  	{ ae_l32x2f24.ip	aed0, a4, 8; movnez	a6, a10, a7 }
    a23d:	178976                                    	loop	a9, a258 <ns_ifft_wo+0x58>
    a240:	0a0308400ce0c0fe                  	{ ae_neg24s	aed1, aed0; l16si	a10, a8, 0 }
    a248:	300614c00ce0101e                  	{ ae_movt32x2	aed1, aed0, b0:b1; ae_l32x2f24.ip	aed0, a4, 8 }
    a250:	0706e84008d2ea5e                  	{ ae_s32x2f24.x	aed1, a5, a10; add	a8, a8, a6 }

0000a258 <ns_ifft_wo+0x58>:
    a258:	e0a1e2                                    	movi	a14, 0x1e0
    a25b:	f0a0f2                                    	movi	a15, 240
    a25e:	93fe70                                    	movnez	a15, a14, a7
    a261:	f8c4a2                                    	addi	a10, a4, -8
    a264:	1d0524c0188011fe                  	{ s32i	a15, a1, 12; ae_l32x2f24.i	aed0, a4, -24 }
    a26c:	0c2c                                    	movi.n	a12, 32
    a26e:	041c                                    	movi.n	a4, 16
    a270:	d90b                                    	addi.n	a13, a9, -1
    a272:	f0caf2                                    	addi	a15, a10, -16
    a275:	f8cf92                                    	addi	a9, a15, -8
    a278:	934c70                                    	movnez	a4, a12, a7
    a27b:	118d76                                    	loop	a13, a290 <ns_ifft_wo+0x90>
    a27e:	28ad                                    	ae_l16si.n	a10, a8, 0
    a280:	0706e84000d2ea5e                  	{ ae_s32x2f24.x	aed0, a5, a10; add	a8, a8, a6 }
    a288:	080289c000fe119e                  	{ ae_l32x2f24.i	aed0, a9, 0; addi	a9, a9, -8 }
    a290:	d81381                                    	l32r	a8, 2dc (755c <sw_fft_32b_2811>)
    a293:	8c0c                                    	movi.n	a12, 8
    a295:	0d0c                                    	movi.n	a13, 0
    a297:	1e0c                                    	movi.n	a14, 1
    a299:	05ad                                    	mov.n	a10, a5
    a29b:	21b9                                    	s32i.n	a11, a1, 8
    a29d:	060c                                    	movi.n	a6, 0
    a29f:	0008e0                                    	callx8	a8
    a2a2:	159282                                    	l16si	a8, a2, 42
    a2a5:	4222c2                                    	l32i	a12, a2, 0x108
    a2a8:	4422e2                                    	l32i	a14, a2, 0x110
    a2ab:	797c                                    	movi.n	a9, -9
    a2ad:	f8afb2                                    	movi	a11, -8
    a2b0:	0105254618e0c97e                  	{ movnez	a11, a9, a7; ae_l32m.i	aed0, a5, 0 }
    a2b8:	c0fa80                                    	sub	a15, a10, a8
    a2bb:	fec372                                    	addi	a7, a3, -2
    a2be:	fece22                                    	addi	a2, a14, -2
    a2c1:	fecc82                                    	addi	a8, a12, -2
    a2c4:	9094c0                                    	addx2	a9, a4, a12
    a2c7:	803fb0                                    	add	a3, a15, a11
    a2ca:	20a220                                    	or	a10, a2, a2
    a2cd:	3f8476                                    	loop	a4, a310 <ns_ifft_wo+0x110>
    a2d0:	10041a4010a1130e                  	{ ae_slaasq56s	aed0, aed0, a3; ae_l16m.iu	aed1, a10, 2 }
    a2d8:	0eace1711d2381d0c40061380801b39f 	{ ae_l16m.iu	aed2, a9, -2; ae_l16m.iu	aed3, a8, 2; nop; ae_roundsq32f48sym	aed0, aed0 }
    a2e8:	2281a90c2041166e                  	{ addi	a6, a6, 1; nop; ae_mulf32s.lh	aed1, aed2, aed1 }
    a2f0:	1e82940b3003025e                  	{ ae_l32m.iu	aed0, a5, 8; nop; ae_mulaf48q32sp16s.l	aed1, aed0, aed3 }
    a2f8:	0ead217b0d4c0cf0c30421380c01015f 	{ nop; nop; nop; ae_roundsp16q48x2sym	aed1, aed1, aed1 }
    a308:	230740c00cc5117e                  	{ ae_s16m.l.iu	aed1, a7, 2; nop }
    a310:	3198                                    	l32i.n	a9, a1, 12
    a312:	2188                                    	l32i.n	a8, a1, 8
    a314:	21a8                                    	l32i.n	a10, a1, 8
    a316:	c04960                                    	sub	a4, a9, a6
    a319:	3ab697                                    	bgeu	a6, a9, a357 <ns_ifft_wo+0x157>
    a31c:	0a8d                                    	mov.n	a8, a10
    a31e:	2f8476                                    	loop	a4, a351 <ns_ifft_wo+0x151>
    a321:	1205054010a0430e                  	{ ae_slaasq56s	aed1, aed0, a3; ae_l32m.iu	aed0, a5, 8 }
    a329:	0ead217b0d4c0cd0c50461380c01015f 	{ nop; nop; nop; ae_roundsq32f48sym	aed1, aed1 }
    a339:	0ead217b0d4c0cf0c30421380c01015f 	{ nop; nop; nop; ae_roundsp16q48x2sym	aed1, aed1, aed1 }
    a349:	230740c00cc5117e                  	{ ae_s16m.l.iu	aed1, a7, 2; nop }
    a351:	096d                                    	mov.n	a6, a9
    a353:	0000c6                                    	j	a35a <ns_ifft_wo+0x15a>

0000a356 <ns_ifft_wo+0x156>:
	...

0000a357 <ns_ifft_wo+0x157>:
    a357:	35b687                                    	bgeu	a6, a8, a390 <ns_ifft_wo+0x190>
    a35a:	c04860                                    	sub	a4, a8, a6
    a35d:	2f8476                                    	loop	a4, a390 <ns_ifft_wo+0x190>
    a360:	1205054010a0430e                  	{ ae_slaasq56s	aed1, aed0, a3; ae_l32m.iu	aed0, a5, 8 }
    a368:	0ead217b0d4c0cd0c50461380c01015f 	{ nop; nop; nop; ae_roundsq32f48sym	aed1, aed1 }
    a378:	0ead217b0d4c0cf0c30421380c01015f 	{ nop; nop; nop; ae_roundsp16q48x2sym	aed1, aed1, aed1 }
    a388:	230740c00cc5112e                  	{ ae_s16m.l.iu	aed1, a2, 2; nop }

0000a390 <ns_ifft_wo+0x190>:
    a390:	f01d                                    	retw.n

0000a392 <ns_ifft_wo+0x192>:
	...

0000a394 <NOISE_GEN_Prcs>:
    a394:	006136                                    	entry	a1, 48
    a397:	330252                                    	l8ui	a5, a2, 51
    a39a:	f0a072                                    	movi	a7, 240
    a39d:	0d0740400080006e                  	{ movi	a6, 0x200; ae_movi	aed0, 0 }
    a3a5:	78a092                                    	movi	a9, 120
    a3a8:	3149                                    	s32i.n	a4, a1, 12
    a3aa:	110433c204a1435e                  	{ srli	a8, a5, 3; ae_l16x2m.i	aed1, a3, 0 }
    a3b2:	00a152                                    	movi	a5, 0x100
    a3b5:	935680                                    	movnez	a5, a6, a8
    a3b8:	939780                                    	movnez	a9, a7, a8
    a3bb:	036d                                    	mov.n	a6, a3
    a3bd:	1f8976                                    	loop	a9, a3e0 <NOISE_GEN_Prcs+0x4c>
    a3c0:	0ead217b0d250c38c38021380001416f 	{ ae_l16x2m.iu	aed1, a6, 4; nop; nop; ae_maxabs32s	aed0, aed0, aed1 }
    a3d0:	0ead3d7b0d4c0cc8c50001380c01015f 	{ nop; nop; nop; ae_sat24s	aed0, aed0 }

0000a3e0 <NOISE_GEN_Prcs+0x4c>:
    a3e0:	000000450081029e                  	{ l16si	a9, a2, 40; ae_sel16i	aed1, aed0, aed0, 0 }
    a3e8:	071c                                    	movi.n	a7, 16
    a3ea:	0e0448400480010e                  	{ ae_max32	aed0, aed0, aed1; movi	a14, 8 }
    a3f2:	4322f2                                    	l32i	a15, a2, 0x10c
    a3f5:	000003ed010300fb11e383063860b8cf 	{ l32r	a12, 2d8 (cc80 <fftorder_1024_12b>); ae_cvta32f24s.l	a6, aed0; nop }
    a405:	8a0c                                    	movi.n	a10, 8
    a407:	02d8                                    	l32i.n	a13, a2, 0
    a409:	93e780                                    	movnez	a14, a7, a8
    a40c:	937a80                                    	movnez	a7, a10, a8
    a40f:	40e6b0                                    	nsa	a11, a6
    a412:	434b90                                    	min	a4, a11, a9
    a415:	422292                                    	l32i	a9, a2, 0x108
    a418:	67ed44                                    	wur.ae_sar	a4
    a41b:	1452b2                                    	s16i	a11, a2, 40
    a41e:	6c8b                                    	addi.n	a6, a12, 8
    a420:	10cca2                                    	addi	a10, a12, 16
    a423:	a0c5d0                                    	addx4	a12, a5, a13
    a426:	0b0460471c80b0fe                  	{ ae_l16x2m.i	aed31, a15, 0; movi	a11, 0 }
    a42e:	2806964308a620fe                  	{ ae_slas24s	aed0, aed31; movnez	a10, a6, a8 }
    a436:	dc4b                                    	addi.n	a13, a12, 4
    a438:	110459c300a12e0e                  	{ loop	a14, a468 <NOISE_GEN_Prcs+0xd4>; ae_l16x2m.i	aed1, a9, 0 }
    a440:	0e1ce2570d2b910405ab6df20001cdff 	{ ae_l16x2m.iu	aed31, a15, 4; ae_l16x2m.iu	aed1, a9, 4; ae_mulf32s.ll	aed30, aed0, aed1; ae_mulf32s.hh	aed2, aed0, aed1 }
    a450:	220760c010c5dbce                  	{ ae_s32m.x	aed2, a12, a11; nop }
    a458:	0a036a4710c0dbde                  	{ ae_s32m.x	aed30, a13, a11; l16si	a11, a10, 0 }
    a460:	26068a4308b230fe                  	{ ae_slas24s	aed0, aed31; add	a10, a10, a7 }
    a468:	e0a062                                    	movi	a6, 224
    a46b:	70a0f2                                    	movi	a15, 112
    a46e:	110433c718e0c68e                  	{ movnez	a15, a6, a8; ae_l16x2m.i	aed0, a3, 0 }
    a476:	0020f0                                    	nop
    a479:	f03d                                    	nop.n
    a47b:	f03d                                    	nop.n
    a47d:	298f76                                    	loop	a15, a4aa <NOISE_GEN_Prcs+0x116>
    a480:	200413c308a0500e                  	{ ae_slas24s	aed1, aed0; ae_l16x2m.iu	aed0, a3, 4 }
    a488:	0e6d357b0d340c204404213c0801296f 	{ ae_cvtq56p32s.h	aed2, aed1; nop; nop; ae_cvtq56p32s.l	aed1, aed1 }
    a498:	220760c010c5dbce                  	{ ae_s32m.x	aed2, a12, a11; nop }
    a4a0:	0a036a4008c0dbde                  	{ ae_s32m.x	aed1, a13, a11; l16si	a11, a10, 0 }
    a4a8:	aa7a                                    	add.n	a10, a10, a7
    a4aa:	432262                                    	l32i	a6, a2, 0x10c
    a4ad:	fcc682                                    	addi	a8, a6, -4
    a4b0:	230720c318e5747e                  	{ nop; nop }
    a4b8:	0020f0                                    	nop
    a4bb:	f03d                                    	nop.n
    a4bd:	318e76                                    	loop	a14, a4f2 <NOISE_GEN_Prcs+0x15e>
    a4c0:	0e6cf1770d2a9f18860401390801018f 	{ ae_s16x2m.iu	aed0, a8, 4; ae_l16x2m.iu	aed1, a9, -4; nop; ae_slas24s	aed2, aed0 }
    a4d0:	0e1d225b0d350c0c47ab4cf80041013f 	{ ae_l16x2m.iu	aed0, a3, 4; nop; ae_mulf32s.lh	aed31, aed2, aed1; ae_mulf32s.lh	aed3, aed1, aed2 }
    a4e0:	220760c018c5dbce                  	{ ae_s32m.x	aed3, a12, a11; nop }
    a4e8:	0a036a4718c0dbde                  	{ ae_s32m.x	aed31, a13, a11; l16si	a11, a10, 0 }
    a4f0:	aa7a                                    	add.n	a10, a10, a7
    a4f2:	0238                                    	l32i.n	a3, a2, 0
    a4f4:	41b150                                    	srli	a11, a5, 1
    a4f7:	8c0c                                    	movi.n	a12, 8
    a4f9:	1d0c                                    	movi.n	a13, 1
    a4fb:	0e0c                                    	movi.n	a14, 0
    a4fd:	a0a530                                    	addx4	a10, a5, a3
    a500:	d77731                                    	l32r	a3, 2dc (755c <sw_fft_32b_2811>)
    a503:	0003e0                                    	callx8	a3
    a506:	c034a0                                    	sub	a3, a4, a10
    a509:	02ad                                    	mov.n	a10, a2
    a50b:	155232                                    	s16i	a3, a2, 42
    a50e:	05bd                                    	mov.n	a11, a5
    a510:	d77431                                    	l32r	a3, 2e0 (6134 <gen_power>)
    a513:	0003e0                                    	callx8	a3
    a516:	d76531                                    	l32r	a3, 2ac (63a4 <NR_vad1>)
    a519:	02ad                                    	mov.n	a10, a2
    a51b:	0003e0                                    	callx8	a3
    a51e:	d76431                                    	l32r	a3, 2b0 (658c <NR_vad2>)
    a521:	02ad                                    	mov.n	a10, a2
    a523:	0003e0                                    	callx8	a3
    a526:	d76331                                    	l32r	a3, 2b4 (680c <NR_NoiseEstimate>)
    a529:	02ad                                    	mov.n	a10, a2
    a52b:	0003e0                                    	callx8	a3
    a52e:	d79031                                    	l32r	a3, 370 (6b0 <comfort_noise_gen_wb2>)
    a531:	02ad                                    	mov.n	a10, a2
    a533:	0003e0                                    	callx8	a3
    a536:	d78f31                                    	l32r	a3, 374 (a200 <ns_ifft_wo>)
    a539:	02ad                                    	mov.n	a10, a2
    a53b:	31b8                                    	l32i.n	a11, a1, 12
    a53d:	0003e0                                    	callx8	a3
    a540:	f01d                                    	retw.n

0000a542 <NOISE_GEN_Prcs+0x1ae>:
	...

0000a544 <EXT_POST_EC_PRCS>:
    a544:	004136                                    	entry	a1, 32
    a547:	d74571                                    	l32r	a7, 25c (a394 <NOISE_GEN_Prcs>)
    a54a:	18d2a2                                    	addmi	a10, a2, 0x1800
    a54d:	03bd                                    	mov.n	a11, a3
    a54f:	02cd                                    	mov.n	a12, a2
    a551:	0007e0                                    	callx8	a7
    a554:	115590                                    	slli	a5, a5, 7
    a557:	7fa382                                    	movi	a8, 0x37f
    a55a:	7fc5e2                                    	addi	a14, a5, 127
    a55d:	1188d0                                    	slli	a8, a8, 3
    a560:	d74051                                    	l32r	a5, 260 (a10c <aec_post_prcs>)
    a563:	1ad272                                    	addmi	a7, a2, 0x1a00
    a566:	a28a                                    	add.n	a10, a2, a8
    a568:	ff0c                                    	movi.n	a15, 15
    a56a:	03bd                                    	mov.n	a11, a3
    a56c:	04cd                                    	mov.n	a12, a4
    a56e:	02dd                                    	mov.n	a13, a2
    a570:	fe57e2                                    	s16i	a14, a7, 0x1fc
    a573:	0005e0                                    	callx8	a5
    a576:	ff9722                                    	l16si	a2, a7, 0x1fe
    a579:	1f0c                                    	movi.n	a15, 1
    a57b:	662d                                    	ae_s16i.n	a2, a6, 0
    a57d:	030c                                    	movi.n	a3, 0
    a57f:	112f30                                    	slli	a2, a15, 13
    a582:	763d                                    	ae_s16i.n	a3, a6, 2
    a584:	025622                                    	s16i	a2, a6, 4
    a587:	f01d                                    	retw.n

0000a589 <EXT_POST_EC_PRCS+0x45>:
    a589:	000000                                        ...

0000a58c <__do_global_ctors_aux>:
    a58c:	004136                                    	entry	a1, 32
    a58f:	d77a31                                    	l32r	a3, 378 (b1ec <__CTOR_END__>)
    a592:	fcc322                                    	addi	a2, a3, -4
    a595:	002222                                    	l32i	a2, a2, 0
    a598:	020283a4001e920e                  	{ beqi.w15	a2, -1, a5ad <__do_global_ctors_aux+0x21>; addi	a3, a3, -8 }

0000a5a0 <__do_global_ctors_aux+0x14>:
    a5a0:	0002e0                                    	callx8	a2
    a5a3:	0328                                    	l32i.n	a2, a3, 0
    a5a5:	0302e3bc07ffb26e                  	{ bnei.w15	a2, -1, a5a0 <__do_global_ctors_aux+0x14>; addi	a3, a3, -4 }
    a5ad:	f01d                                    	retw.n

0000a5af <__do_global_ctors_aux+0x23>:
	...

0000a5b0 <xt_memset>:
    a5b0:	004136                                    	entry	a1, 32
    a5b3:	025d                                    	mov.n	a5, a2
    a5b5:	728c                                    	beqz.n	a2, a5c0 <xt_memset+0x10>
    a5b7:	548c                                    	beqz.n	a4, a5c0 <xt_memset+0x10>
    a5b9:	038476                                    	loop	a4, a5c0 <xt_memset+0x10>
    a5bc:	653d                                    	ae_s16i.n	a3, a5, 0
    a5be:	552b                                    	addi.n	a5, a5, 2

0000a5c0 <xt_memset+0x10>:
    a5c0:	f01d                                    	retw.n

0000a5c2 <xt_memset+0x12>:
	...

0000a5c4 <xt_memcpy>:
    a5c4:	004136                                    	entry	a1, 32
    a5c7:	025d                                    	mov.n	a5, a2
    a5c9:	020c                                    	movi.n	a2, 0
    a5cb:	640b                                    	addi.n	a6, a4, -1
    a5cd:	95bc                                    	beqz.n	a5, a60a <xt_memcpy+0x46>
    a5cf:	1176f0                                    	slli	a7, a6, 1
    a5d2:	43bc                                    	beqz.n	a3, a60a <xt_memcpy+0x46>
    a5d4:	902430                                    	addx2	a2, a4, a3
    a5d7:	1cb357                                    	bgeu	a3, a5, a5f7 <xt_memcpy+0x33>
    a5da:	657a                                    	add.n	a6, a5, a7
    a5dc:	17b527                                    	bgeu	a5, a2, a5f7 <xt_memcpy+0x33>
    a5df:	052d                                    	mov.n	a2, a5
    a5e1:	54ac                                    	beqz.n	a4, a60a <xt_memcpy+0x46>
    a5e3:	337a                                    	add.n	a3, a3, a7
    a5e5:	0b8476                                    	loop	a4, a5f4 <xt_memcpy+0x30>
    a5e8:	232d                                    	ae_l16si.n	a2, a3, 0
    a5ea:	fec332                                    	addi	a3, a3, -2
    a5ed:	662d                                    	ae_s16i.n	a2, a6, 0
    a5ef:	052d                                    	mov.n	a2, a5
    a5f1:	fec662                                    	addi	a6, a6, -2

0000a5f4 <xt_memcpy+0x30>:
    a5f4:	000486                                    	j	a60a <xt_memcpy+0x46>

0000a5f7 <xt_memcpy+0x33>:
    a5f7:	052d                                    	mov.n	a2, a5
    a5f9:	d48c                                    	beqz.n	a4, a60a <xt_memcpy+0x46>
    a5fb:	056d                                    	mov.n	a6, a5
    a5fd:	098476                                    	loop	a4, a60a <xt_memcpy+0x46>
    a600:	232d                                    	ae_l16si.n	a2, a3, 0
    a602:	332b                                    	addi.n	a3, a3, 2
    a604:	662d                                    	ae_s16i.n	a2, a6, 0
    a606:	052d                                    	mov.n	a2, a5
    a608:	662b                                    	addi.n	a6, a6, 2

0000a60a <xt_memcpy+0x46>:
    a60a:	f01d                                    	retw.n

0000a60c <_fini>:
    a60c:	008136                                    	entry	a1, 64
    a60f:	d75b81                                    	l32r	a8, 37c (398 <__do_global_dtors_aux>)
    a612:	f03d                                    	nop.n
    a614:	0008e0                                    	callx8	a8

0000a617 <_fini+0xb>:
    a617:	f01d                                    	retw.n
